In archive crc16/libcrc16.a:

crc16.c.obj:     file format elf32-littlearm


Disassembly of section .text:

00000000 <crc16_ccitt>:
   0:	b530      	push	{r4, r5, lr}
   2:	2900      	cmp	r1, #0
   4:	dd0f      	ble.n	26 <crc16_ccitt+0x26>
   6:	0002      	movs	r2, r0
   8:	1841      	adds	r1, r0, r1
   a:	2000      	movs	r0, #0
   c:	4d07      	ldr	r5, [pc, #28]	; (2c <crc16_ccitt+0x2c>)
   e:	7814      	ldrb	r4, [r2, #0]
  10:	0a03      	lsrs	r3, r0, #8
  12:	4063      	eors	r3, r4
  14:	005b      	lsls	r3, r3, #1
  16:	5aeb      	ldrh	r3, [r5, r3]
  18:	0200      	lsls	r0, r0, #8
  1a:	4058      	eors	r0, r3
  1c:	3201      	adds	r2, #1
  1e:	b280      	uxth	r0, r0
  20:	4291      	cmp	r1, r2
  22:	d1f4      	bne.n	e <crc16_ccitt+0xe>
  24:	bd30      	pop	{r4, r5, pc}
  26:	2000      	movs	r0, #0
  28:	e7fc      	b.n	24 <crc16_ccitt+0x24>
  2a:	46c0      	nop			; (mov r8, r8)
  2c:	00000000 	.word	0x00000000

head-tail.c.obj:     file format elf32-littlearm


Disassembly of section .text:

00000000 <bump_head>:
   0:	4288      	cmp	r0, r1
   2:	d001      	beq.n	8 <bump_head+0x8>
   4:	3001      	adds	r0, #1
   6:	4770      	bx	lr
   8:	0010      	movs	r0, r2
   a:	e7fc      	b.n	6 <bump_head+0x6>

0000000c <bump_tail>:
   c:	4288      	cmp	r0, r1
   e:	d001      	beq.n	14 <bump_tail+0x8>
  10:	3001      	adds	r0, #1
  12:	4770      	bx	lr
  14:	0010      	movs	r0, r2
  16:	e7fc      	b.n	12 <bump_tail+0x6>

00000018 <dec_head>:
  18:	1a82      	subs	r2, r0, r2
  1a:	1e53      	subs	r3, r2, #1
  1c:	419a      	sbcs	r2, r3
  1e:	1a80      	subs	r0, r0, r2
  20:	4770      	bx	lr
  22:	46c0      	nop			; (mov r8, r8)

00000024 <dec_tail>:
  24:	b510      	push	{r4, lr}
  26:	0004      	movs	r4, r0
  28:	4290      	cmp	r0, r2
  2a:	d004      	beq.n	36 <dec_tail+0x12>
  2c:	4804      	ldr	r0, [pc, #16]	; (40 <dec_tail+0x1c>)
  2e:	f7ff fffe 	bl	0 <puts>
  32:	1e60      	subs	r0, r4, #1
  34:	bd10      	pop	{r4, pc}
  36:	4803      	ldr	r0, [pc, #12]	; (44 <dec_tail+0x20>)
  38:	f7ff fffe 	bl	0 <puts>
  3c:	0020      	movs	r0, r4
  3e:	e7f9      	b.n	34 <dec_tail+0x10>
  40:	00000014 	.word	0x00000014
  44:	00000000 	.word	0x00000000

cvtutils.c.obj:     file format elf32-littlearm


Disassembly of section .text:

00000000 <asciiValueToBinary>:
   0:	b510      	push	{r4, lr}
   2:	1e02      	subs	r2, r0, #0
   4:	dd0d      	ble.n	22 <asciiValueToBinary+0x22>
   6:	2301      	movs	r3, #1
   8:	2000      	movs	r0, #0
   a:	2401      	movs	r4, #1
   c:	0021      	movs	r1, r4
   e:	4011      	ands	r1, r2
  10:	4359      	muls	r1, r3
  12:	1840      	adds	r0, r0, r1
  14:	0099      	lsls	r1, r3, #2
  16:	18cb      	adds	r3, r1, r3
  18:	1052      	asrs	r2, r2, #1
  1a:	005b      	lsls	r3, r3, #1
  1c:	2a00      	cmp	r2, #0
  1e:	d1f5      	bne.n	c <asciiValueToBinary+0xc>
  20:	bd10      	pop	{r4, pc}
  22:	2000      	movs	r0, #0
  24:	e7fc      	b.n	20 <asciiValueToBinary+0x20>
  26:	46c0      	nop			; (mov r8, r8)

lfs_util.c.obj:     file format elf32-littlearm


Disassembly of section .text:

00000000 <lfs_crc>:
   0:	b570      	push	{r4, r5, r6, lr}
   2:	2a00      	cmp	r2, #0
   4:	d013      	beq.n	2e <lfs_crc+0x2e>
   6:	240f      	movs	r4, #15
   8:	4d09      	ldr	r5, [pc, #36]	; (30 <lfs_crc+0x30>)
   a:	188a      	adds	r2, r1, r2
   c:	780b      	ldrb	r3, [r1, #0]
   e:	0906      	lsrs	r6, r0, #4
  10:	4058      	eors	r0, r3
  12:	4020      	ands	r0, r4
  14:	0080      	lsls	r0, r0, #2
  16:	5828      	ldr	r0, [r5, r0]
  18:	091b      	lsrs	r3, r3, #4
  1a:	4046      	eors	r6, r0
  1c:	4073      	eors	r3, r6
  1e:	4023      	ands	r3, r4
  20:	009b      	lsls	r3, r3, #2
  22:	58eb      	ldr	r3, [r5, r3]
  24:	0930      	lsrs	r0, r6, #4
  26:	3101      	adds	r1, #1
  28:	4058      	eors	r0, r3
  2a:	428a      	cmp	r2, r1
  2c:	d1ee      	bne.n	c <lfs_crc+0xc>
  2e:	bd70      	pop	{r4, r5, r6, pc}
  30:	00000000 	.word	0x00000000

lfs.c.obj:     file format elf32-littlearm


Disassembly of section .text:

00000000 <lfs_dir_traverse_filter>:
       0:	22ff      	movs	r2, #255	; 0xff
       2:	00cb      	lsls	r3, r1, #3
       4:	0512      	lsls	r2, r2, #20
       6:	17db      	asrs	r3, r3, #31
       8:	4013      	ands	r3, r2
       a:	4a16      	ldr	r2, [pc, #88]	; (64 <lfs_dir_traverse_filter+0x64>)
       c:	b570      	push	{r4, r5, r6, lr}
       e:	4694      	mov	ip, r2
      10:	6802      	ldr	r2, [r0, #0]
      12:	4463      	add	r3, ip
      14:	0014      	movs	r4, r2
      16:	404c      	eors	r4, r1
      18:	4223      	tst	r3, r4
      1a:	d01f      	beq.n	5c <lfs_dir_traverse_filter+0x5c>
      1c:	0593      	lsls	r3, r2, #22
      1e:	159b      	asrs	r3, r3, #22
      20:	3301      	adds	r3, #1
      22:	d01b      	beq.n	5c <lfs_dir_traverse_filter+0x5c>
      24:	4d10      	ldr	r5, [pc, #64]	; (68 <lfs_dir_traverse_filter+0x68>)
      26:	4c11      	ldr	r4, [pc, #68]	; (6c <lfs_dir_traverse_filter+0x6c>)
      28:	4b11      	ldr	r3, [pc, #68]	; (70 <lfs_dir_traverse_filter+0x70>)
      2a:	4015      	ands	r5, r2
      2c:	400c      	ands	r4, r1
      2e:	432b      	orrs	r3, r5
      30:	429c      	cmp	r4, r3
      32:	d013      	beq.n	5c <lfs_dir_traverse_filter+0x5c>
      34:	24e0      	movs	r4, #224	; 0xe0
      36:	2680      	movs	r6, #128	; 0x80
      38:	0d0d      	lsrs	r5, r1, #20
      3a:	00e4      	lsls	r4, r4, #3
      3c:	00f6      	lsls	r6, r6, #3
      3e:	402c      	ands	r4, r5
      40:	2300      	movs	r3, #0
      42:	42b4      	cmp	r4, r6
      44:	d10b      	bne.n	5e <lfs_dir_traverse_filter+0x5e>
      46:	0314      	lsls	r4, r2, #12
      48:	0309      	lsls	r1, r1, #12
      4a:	0da4      	lsrs	r4, r4, #22
      4c:	0d89      	lsrs	r1, r1, #22
      4e:	428c      	cmp	r4, r1
      50:	d305      	bcc.n	5e <lfs_dir_traverse_filter+0x5e>
      52:	b26d      	sxtb	r5, r5
      54:	02ad      	lsls	r5, r5, #10
      56:	18aa      	adds	r2, r5, r2
      58:	6002      	str	r2, [r0, #0]
      5a:	e000      	b.n	5e <lfs_dir_traverse_filter+0x5e>
      5c:	2301      	movs	r3, #1
      5e:	0018      	movs	r0, r3
      60:	bd70      	pop	{r4, r5, r6, pc}
      62:	46c0      	nop			; (mov r8, r8)
      64:	700ffc00 	.word	0x700ffc00
      68:	000ffc00 	.word	0x000ffc00
      6c:	7ffffc00 	.word	0x7ffffc00
      70:	4ff00000 	.word	0x4ff00000

00000074 <lfs_dir_commit_size>:
      74:	058b      	lsls	r3, r1, #22
      76:	159b      	asrs	r3, r3, #22
      78:	3301      	adds	r3, #1
      7a:	425a      	negs	r2, r3
      7c:	4153      	adcs	r3, r2
      7e:	6802      	ldr	r2, [r0, #0]
      80:	185b      	adds	r3, r3, r1
      82:	059b      	lsls	r3, r3, #22
      84:	1d11      	adds	r1, r2, #4
      86:	0d9b      	lsrs	r3, r3, #22
      88:	185b      	adds	r3, r3, r1
      8a:	6003      	str	r3, [r0, #0]
      8c:	2000      	movs	r0, #0
      8e:	4770      	bx	lr

00000090 <lfs_fs_size_count>:
      90:	6803      	ldr	r3, [r0, #0]
      92:	3301      	adds	r3, #1
      94:	6003      	str	r3, [r0, #0]
      96:	2000      	movs	r0, #0
      98:	4770      	bx	lr
      9a:	46c0      	nop			; (mov r8, r8)

0000009c <lfs_init>:
      9c:	b5f8      	push	{r3, r4, r5, r6, r7, lr}
      9e:	0004      	movs	r4, r0
      a0:	6b0e      	ldr	r6, [r1, #48]	; 0x30
      a2:	000d      	movs	r5, r1
      a4:	66a1      	str	r1, [r4, #104]	; 0x68
      a6:	6a8f      	ldr	r7, [r1, #40]	; 0x28
      a8:	2e00      	cmp	r6, #0
      aa:	d043      	beq.n	134 <lfs_init+0x98>
      ac:	60c6      	str	r6, [r0, #12]
      ae:	6b6b      	ldr	r3, [r5, #52]	; 0x34
      b0:	2b00      	cmp	r3, #0
      b2:	d04d      	beq.n	150 <lfs_init+0xb4>
      b4:	61e3      	str	r3, [r4, #28]
      b6:	2501      	movs	r5, #1
      b8:	003a      	movs	r2, r7
      ba:	21ff      	movs	r1, #255	; 0xff
      bc:	68e0      	ldr	r0, [r4, #12]
      be:	f7ff fffe 	bl	0 <memset>
      c2:	426d      	negs	r5, r5
      c4:	6ea3      	ldr	r3, [r4, #104]	; 0x68
      c6:	6025      	str	r5, [r4, #0]
      c8:	6a9a      	ldr	r2, [r3, #40]	; 0x28
      ca:	21ff      	movs	r1, #255	; 0xff
      cc:	69e0      	ldr	r0, [r4, #28]
      ce:	f7ff fffe 	bl	0 <memset>
      d2:	6125      	str	r5, [r4, #16]
      d4:	6ea5      	ldr	r5, [r4, #104]	; 0x68
      d6:	6bab      	ldr	r3, [r5, #56]	; 0x38
      d8:	2b00      	cmp	r3, #0
      da:	d04b      	beq.n	174 <lfs_init+0xd8>
      dc:	6663      	str	r3, [r4, #100]	; 0x64
      de:	6beb      	ldr	r3, [r5, #60]	; 0x3c
      e0:	2b00      	cmp	r3, #0
      e2:	d100      	bne.n	e6 <lfs_init+0x4a>
      e4:	23ff      	movs	r3, #255	; 0xff
      e6:	66e3      	str	r3, [r4, #108]	; 0x6c
      e8:	6c2b      	ldr	r3, [r5, #64]	; 0x40
      ea:	2b00      	cmp	r3, #0
      ec:	d100      	bne.n	f0 <lfs_init+0x54>
      ee:	4b2a      	ldr	r3, [pc, #168]	; (198 <lfs_init+0xfc>)
      f0:	6723      	str	r3, [r4, #112]	; 0x70
      f2:	6c6b      	ldr	r3, [r5, #68]	; 0x44
      f4:	2b00      	cmp	r3, #0
      f6:	d01b      	beq.n	130 <lfs_init+0x94>
      f8:	6763      	str	r3, [r4, #116]	; 0x74
      fa:	2301      	movs	r3, #1
      fc:	425b      	negs	r3, r3
      fe:	6223      	str	r3, [r4, #32]
     100:	6263      	str	r3, [r4, #36]	; 0x24
     102:	0020      	movs	r0, r4
     104:	2300      	movs	r3, #0
     106:	220c      	movs	r2, #12
     108:	62a3      	str	r3, [r4, #40]	; 0x28
     10a:	62e3      	str	r3, [r4, #44]	; 0x2c
     10c:	2100      	movs	r1, #0
     10e:	303c      	adds	r0, #60	; 0x3c
     110:	f7ff fffe 	bl	0 <memset>
     114:	0020      	movs	r0, r4
     116:	220c      	movs	r2, #12
     118:	2100      	movs	r1, #0
     11a:	3030      	adds	r0, #48	; 0x30
     11c:	f7ff fffe 	bl	0 <memset>
     120:	0020      	movs	r0, r4
     122:	220c      	movs	r2, #12
     124:	3048      	adds	r0, #72	; 0x48
     126:	2100      	movs	r1, #0
     128:	f7ff fffe 	bl	0 <memset>
     12c:	2000      	movs	r0, #0
     12e:	bdf8      	pop	{r3, r4, r5, r6, r7, pc}
     130:	4b1a      	ldr	r3, [pc, #104]	; (19c <lfs_init+0x100>)
     132:	e7e1      	b.n	f8 <lfs_init+0x5c>
     134:	0038      	movs	r0, r7
     136:	f7ff fffe 	bl	0 <malloc>
     13a:	60e0      	str	r0, [r4, #12]
     13c:	2800      	cmp	r0, #0
     13e:	d1b6      	bne.n	ae <lfs_init+0x12>
     140:	68e0      	ldr	r0, [r4, #12]
     142:	f7ff fffe 	bl	0 <free>
     146:	6ea3      	ldr	r3, [r4, #104]	; 0x68
     148:	6b5a      	ldr	r2, [r3, #52]	; 0x34
     14a:	2a00      	cmp	r2, #0
     14c:	d10c      	bne.n	168 <lfs_init+0xcc>
     14e:	e007      	b.n	160 <lfs_init+0xc4>
     150:	0038      	movs	r0, r7
     152:	f7ff fffe 	bl	0 <malloc>
     156:	61e0      	str	r0, [r4, #28]
     158:	2800      	cmp	r0, #0
     15a:	d1ac      	bne.n	b6 <lfs_init+0x1a>
     15c:	2e00      	cmp	r6, #0
     15e:	d0ef      	beq.n	140 <lfs_init+0xa4>
     160:	69e0      	ldr	r0, [r4, #28]
     162:	f7ff fffe 	bl	0 <free>
     166:	6ea3      	ldr	r3, [r4, #104]	; 0x68
     168:	200c      	movs	r0, #12
     16a:	6b9b      	ldr	r3, [r3, #56]	; 0x38
     16c:	4240      	negs	r0, r0
     16e:	2b00      	cmp	r3, #0
     170:	d1dd      	bne.n	12e <lfs_init+0x92>
     172:	e00b      	b.n	18c <lfs_init+0xf0>
     174:	6ae8      	ldr	r0, [r5, #44]	; 0x2c
     176:	f7ff fffe 	bl	0 <malloc>
     17a:	6660      	str	r0, [r4, #100]	; 0x64
     17c:	2800      	cmp	r0, #0
     17e:	d1ae      	bne.n	de <lfs_init+0x42>
     180:	6b2b      	ldr	r3, [r5, #48]	; 0x30
     182:	2b00      	cmp	r3, #0
     184:	d0dc      	beq.n	140 <lfs_init+0xa4>
     186:	6b6b      	ldr	r3, [r5, #52]	; 0x34
     188:	2b00      	cmp	r3, #0
     18a:	d0e9      	beq.n	160 <lfs_init+0xc4>
     18c:	6e60      	ldr	r0, [r4, #100]	; 0x64
     18e:	f7ff fffe 	bl	0 <free>
     192:	200c      	movs	r0, #12
     194:	4240      	negs	r0, r0
     196:	e7ca      	b.n	12e <lfs_init+0x92>
     198:	7fffffff 	.word	0x7fffffff
     19c:	000003fe 	.word	0x000003fe

000001a0 <lfs_bd_read.isra.21.part.22>:
     1a0:	b5f0      	push	{r4, r5, r6, r7, lr}
     1a2:	4657      	mov	r7, sl
     1a4:	464e      	mov	r6, r9
     1a6:	46de      	mov	lr, fp
     1a8:	4645      	mov	r5, r8
     1aa:	b5e0      	push	{r5, r6, r7, lr}
     1ac:	b087      	sub	sp, #28
     1ae:	9304      	str	r3, [sp, #16]
     1b0:	3b01      	subs	r3, #1
     1b2:	0016      	movs	r6, r2
     1b4:	9305      	str	r3, [sp, #20]
     1b6:	9a11      	ldr	r2, [sp, #68]	; 0x44
     1b8:	9b13      	ldr	r3, [sp, #76]	; 0x4c
     1ba:	4681      	mov	r9, r0
     1bc:	468a      	mov	sl, r1
     1be:	0017      	movs	r7, r2
     1c0:	2b00      	cmp	r3, #0
     1c2:	d100      	bne.n	1c6 <lfs_bd_read.isra.21.part.22+0x26>
     1c4:	e084      	b.n	2d0 <lfs_bd_read.isra.21.part.22+0x130>
     1c6:	4653      	mov	r3, sl
     1c8:	9c13      	ldr	r4, [sp, #76]	; 0x4c
     1ca:	2b00      	cmp	r3, #0
     1cc:	d003      	beq.n	1d6 <lfs_bd_read.isra.21.part.22+0x36>
     1ce:	681b      	ldr	r3, [r3, #0]
     1d0:	9a10      	ldr	r2, [sp, #64]	; 0x40
     1d2:	4293      	cmp	r3, r2
     1d4:	d05e      	beq.n	294 <lfs_bd_read.isra.21.part.22+0xf4>
     1d6:	9b10      	ldr	r3, [sp, #64]	; 0x40
     1d8:	6832      	ldr	r2, [r6, #0]
     1da:	4293      	cmp	r3, r2
     1dc:	d04e      	beq.n	27c <lfs_bd_read.isra.21.part.22+0xdc>
     1de:	464b      	mov	r3, r9
     1e0:	681d      	ldr	r5, [r3, #0]
     1e2:	0038      	movs	r0, r7
     1e4:	696b      	ldr	r3, [r5, #20]
     1e6:	0019      	movs	r1, r3
     1e8:	469b      	mov	fp, r3
     1ea:	f7ff fffe 	bl	0 <__aeabi_uidivmod>
     1ee:	686b      	ldr	r3, [r5, #4]
     1f0:	4688      	mov	r8, r1
     1f2:	9a04      	ldr	r2, [sp, #16]
     1f4:	9913      	ldr	r1, [sp, #76]	; 0x4c
     1f6:	9302      	str	r3, [sp, #8]
     1f8:	428a      	cmp	r2, r1
     1fa:	d81b      	bhi.n	234 <lfs_bd_read.isra.21.part.22+0x94>
     1fc:	4642      	mov	r2, r8
     1fe:	2a00      	cmp	r2, #0
     200:	d118      	bne.n	234 <lfs_bd_read.isra.21.part.22+0x94>
     202:	4559      	cmp	r1, fp
     204:	d316      	bcc.n	234 <lfs_bd_read.isra.21.part.22+0x94>
     206:	4659      	mov	r1, fp
     208:	0020      	movs	r0, r4
     20a:	f7ff fffe 	bl	0 <__aeabi_uidivmod>
     20e:	1a62      	subs	r2, r4, r1
     210:	4688      	mov	r8, r1
     212:	4693      	mov	fp, r2
     214:	9200      	str	r2, [sp, #0]
     216:	0028      	movs	r0, r5
     218:	9b12      	ldr	r3, [sp, #72]	; 0x48
     21a:	003a      	movs	r2, r7
     21c:	9910      	ldr	r1, [sp, #64]	; 0x40
     21e:	9d02      	ldr	r5, [sp, #8]
     220:	47a8      	blx	r5
     222:	2800      	cmp	r0, #0
     224:	d046      	beq.n	2b4 <lfs_bd_read.isra.21.part.22+0x114>
     226:	b007      	add	sp, #28
     228:	bc3c      	pop	{r2, r3, r4, r5}
     22a:	4690      	mov	r8, r2
     22c:	4699      	mov	r9, r3
     22e:	46a2      	mov	sl, r4
     230:	46ab      	mov	fp, r5
     232:	bdf0      	pop	{r4, r5, r6, r7, pc}
     234:	9b10      	ldr	r3, [sp, #64]	; 0x40
     236:	4659      	mov	r1, fp
     238:	6033      	str	r3, [r6, #0]
     23a:	4643      	mov	r3, r8
     23c:	1afb      	subs	r3, r7, r3
     23e:	9303      	str	r3, [sp, #12]
     240:	6073      	str	r3, [r6, #4]
     242:	9b05      	ldr	r3, [sp, #20]
     244:	445b      	add	r3, fp
     246:	19dc      	adds	r4, r3, r7
     248:	0020      	movs	r0, r4
     24a:	f7ff fffe 	bl	0 <__aeabi_uidivmod>
     24e:	69eb      	ldr	r3, [r5, #28]
     250:	1a64      	subs	r4, r4, r1
     252:	429c      	cmp	r4, r3
     254:	d900      	bls.n	258 <lfs_bd_read.isra.21.part.22+0xb8>
     256:	001c      	movs	r4, r3
     258:	4643      	mov	r3, r8
     25a:	1bd9      	subs	r1, r3, r7
     25c:	6aab      	ldr	r3, [r5, #40]	; 0x28
     25e:	1864      	adds	r4, r4, r1
     260:	429c      	cmp	r4, r3
     262:	d900      	bls.n	266 <lfs_bd_read.isra.21.part.22+0xc6>
     264:	001c      	movs	r4, r3
     266:	60b4      	str	r4, [r6, #8]
     268:	9400      	str	r4, [sp, #0]
     26a:	68f3      	ldr	r3, [r6, #12]
     26c:	9a03      	ldr	r2, [sp, #12]
     26e:	9910      	ldr	r1, [sp, #64]	; 0x40
     270:	0028      	movs	r0, r5
     272:	9c02      	ldr	r4, [sp, #8]
     274:	47a0      	blx	r4
     276:	2800      	cmp	r0, #0
     278:	d0a5      	beq.n	1c6 <lfs_bd_read.isra.21.part.22+0x26>
     27a:	e7d4      	b.n	226 <lfs_bd_read.isra.21.part.22+0x86>
     27c:	6873      	ldr	r3, [r6, #4]
     27e:	68b2      	ldr	r2, [r6, #8]
     280:	189d      	adds	r5, r3, r2
     282:	42bd      	cmp	r5, r7
     284:	d9ab      	bls.n	1de <lfs_bd_read.isra.21.part.22+0x3e>
     286:	42bb      	cmp	r3, r7
     288:	d924      	bls.n	2d4 <lfs_bd_read.isra.21.part.22+0x134>
     28a:	1bdb      	subs	r3, r3, r7
     28c:	429c      	cmp	r4, r3
     28e:	d9a6      	bls.n	1de <lfs_bd_read.isra.21.part.22+0x3e>
     290:	001c      	movs	r4, r3
     292:	e7a4      	b.n	1de <lfs_bd_read.isra.21.part.22+0x3e>
     294:	4653      	mov	r3, sl
     296:	685c      	ldr	r4, [r3, #4]
     298:	689b      	ldr	r3, [r3, #8]
     29a:	18e5      	adds	r5, r4, r3
     29c:	42bd      	cmp	r5, r7
     29e:	d907      	bls.n	2b0 <lfs_bd_read.isra.21.part.22+0x110>
     2a0:	42bc      	cmp	r4, r7
     2a2:	d92e      	bls.n	302 <lfs_bd_read.isra.21.part.22+0x162>
     2a4:	9b13      	ldr	r3, [sp, #76]	; 0x4c
     2a6:	1be4      	subs	r4, r4, r7
     2a8:	429c      	cmp	r4, r3
     2aa:	d994      	bls.n	1d6 <lfs_bd_read.isra.21.part.22+0x36>
     2ac:	001c      	movs	r4, r3
     2ae:	e792      	b.n	1d6 <lfs_bd_read.isra.21.part.22+0x36>
     2b0:	9c13      	ldr	r4, [sp, #76]	; 0x4c
     2b2:	e790      	b.n	1d6 <lfs_bd_read.isra.21.part.22+0x36>
     2b4:	9b12      	ldr	r3, [sp, #72]	; 0x48
     2b6:	445f      	add	r7, fp
     2b8:	445b      	add	r3, fp
     2ba:	9312      	str	r3, [sp, #72]	; 0x48
     2bc:	4643      	mov	r3, r8
     2be:	1b1c      	subs	r4, r3, r4
     2c0:	9b13      	ldr	r3, [sp, #76]	; 0x4c
     2c2:	469c      	mov	ip, r3
     2c4:	44a4      	add	ip, r4
     2c6:	4663      	mov	r3, ip
     2c8:	9313      	str	r3, [sp, #76]	; 0x4c
     2ca:	2b00      	cmp	r3, #0
     2cc:	d000      	beq.n	2d0 <lfs_bd_read.isra.21.part.22+0x130>
     2ce:	e77a      	b.n	1c6 <lfs_bd_read.isra.21.part.22+0x26>
     2d0:	2000      	movs	r0, #0
     2d2:	e7a8      	b.n	226 <lfs_bd_read.isra.21.part.22+0x86>
     2d4:	1bed      	subs	r5, r5, r7
     2d6:	42a5      	cmp	r5, r4
     2d8:	d811      	bhi.n	2fe <lfs_bd_read.isra.21.part.22+0x15e>
     2da:	1af9      	subs	r1, r7, r3
     2dc:	68f3      	ldr	r3, [r6, #12]
     2de:	469c      	mov	ip, r3
     2e0:	002a      	movs	r2, r5
     2e2:	4461      	add	r1, ip
     2e4:	9812      	ldr	r0, [sp, #72]	; 0x48
     2e6:	f7ff fffe 	bl	0 <memcpy>
     2ea:	9b12      	ldr	r3, [sp, #72]	; 0x48
     2ec:	197f      	adds	r7, r7, r5
     2ee:	469c      	mov	ip, r3
     2f0:	44ac      	add	ip, r5
     2f2:	4663      	mov	r3, ip
     2f4:	9312      	str	r3, [sp, #72]	; 0x48
     2f6:	9b13      	ldr	r3, [sp, #76]	; 0x4c
     2f8:	1b5b      	subs	r3, r3, r5
     2fa:	9313      	str	r3, [sp, #76]	; 0x4c
     2fc:	e7e5      	b.n	2ca <lfs_bd_read.isra.21.part.22+0x12a>
     2fe:	0025      	movs	r5, r4
     300:	e7eb      	b.n	2da <lfs_bd_read.isra.21.part.22+0x13a>
     302:	9b13      	ldr	r3, [sp, #76]	; 0x4c
     304:	1bed      	subs	r5, r5, r7
     306:	429d      	cmp	r5, r3
     308:	d900      	bls.n	30c <lfs_bd_read.isra.21.part.22+0x16c>
     30a:	001d      	movs	r5, r3
     30c:	4653      	mov	r3, sl
     30e:	1b39      	subs	r1, r7, r4
     310:	68db      	ldr	r3, [r3, #12]
     312:	e7e4      	b.n	2de <lfs_bd_read.isra.21.part.22+0x13e>

00000314 <lfs_ctz_traverse.part.23>:
     314:	b5f0      	push	{r4, r5, r6, r7, lr}
     316:	4645      	mov	r5, r8
     318:	46de      	mov	lr, fp
     31a:	464e      	mov	r6, r9
     31c:	4657      	mov	r7, sl
     31e:	b5e0      	push	{r5, r6, r7, lr}
     320:	b08b      	sub	sp, #44	; 0x2c
     322:	001d      	movs	r5, r3
     324:	9b14      	ldr	r3, [sp, #80]	; 0x50
     326:	4680      	mov	r8, r0
     328:	1e5c      	subs	r4, r3, #1
     32a:	6e83      	ldr	r3, [r0, #104]	; 0x68
     32c:	468b      	mov	fp, r1
     32e:	69de      	ldr	r6, [r3, #28]
     330:	9206      	str	r2, [sp, #24]
     332:	3e08      	subs	r6, #8
     334:	42b4      	cmp	r4, r6
     336:	d354      	bcc.n	3e2 <lfs_ctz_traverse.part.23+0xce>
     338:	0031      	movs	r1, r6
     33a:	0020      	movs	r0, r4
     33c:	f7ff fffe 	bl	0 <__aeabi_uidiv>
     340:	3801      	subs	r0, #1
     342:	f7ff fffe 	bl	0 <__popcountsi2>
     346:	3002      	adds	r0, #2
     348:	0080      	lsls	r0, r0, #2
     34a:	0031      	movs	r1, r6
     34c:	1a20      	subs	r0, r4, r0
     34e:	f7ff fffe 	bl	0 <__aeabi_uidiv>
     352:	0006      	movs	r6, r0
     354:	2301      	movs	r3, #1
     356:	469a      	mov	sl, r3
     358:	3301      	adds	r3, #1
     35a:	4699      	mov	r9, r3
     35c:	3366      	adds	r3, #102	; 0x66
     35e:	4443      	add	r3, r8
     360:	9307      	str	r3, [sp, #28]
     362:	0029      	movs	r1, r5
     364:	9816      	ldr	r0, [sp, #88]	; 0x58
     366:	9b15      	ldr	r3, [sp, #84]	; 0x54
     368:	4798      	blx	r3
     36a:	2800      	cmp	r0, #0
     36c:	d132      	bne.n	3d4 <lfs_ctz_traverse.part.23+0xc0>
     36e:	2e00      	cmp	r6, #0
     370:	d030      	beq.n	3d4 <lfs_ctz_traverse.part.23+0xc0>
     372:	4642      	mov	r2, r8
     374:	4657      	mov	r7, sl
     376:	464b      	mov	r3, r9
     378:	6e92      	ldr	r2, [r2, #104]	; 0x68
     37a:	4037      	ands	r7, r6
     37c:	6a11      	ldr	r1, [r2, #32]
     37e:	1bdc      	subs	r4, r3, r7
     380:	00a3      	lsls	r3, r4, #2
     382:	428d      	cmp	r5, r1
     384:	d22f      	bcs.n	3e6 <lfs_ctz_traverse.part.23+0xd2>
     386:	69d2      	ldr	r2, [r2, #28]
     388:	4293      	cmp	r3, r2
     38a:	d82c      	bhi.n	3e6 <lfs_ctz_traverse.part.23+0xd2>
     38c:	aa08      	add	r2, sp, #32
     38e:	9202      	str	r2, [sp, #8]
     390:	9001      	str	r0, [sp, #4]
     392:	9303      	str	r3, [sp, #12]
     394:	9500      	str	r5, [sp, #0]
     396:	9a06      	ldr	r2, [sp, #24]
     398:	4659      	mov	r1, fp
     39a:	9807      	ldr	r0, [sp, #28]
     39c:	f7ff ff00 	bl	1a0 <lfs_bd_read.isra.21.part.22>
     3a0:	2800      	cmp	r0, #0
     3a2:	d117      	bne.n	3d4 <lfs_ctz_traverse.part.23+0xc0>
     3a4:	3c01      	subs	r4, #1
     3a6:	2c01      	cmp	r4, #1
     3a8:	d107      	bne.n	3ba <lfs_ctz_traverse.part.23+0xa6>
     3aa:	9b08      	ldr	r3, [sp, #32]
     3ac:	9816      	ldr	r0, [sp, #88]	; 0x58
     3ae:	9305      	str	r3, [sp, #20]
     3b0:	0019      	movs	r1, r3
     3b2:	9b15      	ldr	r3, [sp, #84]	; 0x54
     3b4:	4798      	blx	r3
     3b6:	2800      	cmp	r0, #0
     3b8:	d10c      	bne.n	3d4 <lfs_ctz_traverse.part.23+0xc0>
     3ba:	2210      	movs	r2, #16
     3bc:	ab04      	add	r3, sp, #16
     3be:	189b      	adds	r3, r3, r2
     3c0:	00a4      	lsls	r4, r4, #2
     3c2:	591d      	ldr	r5, [r3, r4]
     3c4:	1ebb      	subs	r3, r7, #2
     3c6:	18f6      	adds	r6, r6, r3
     3c8:	0029      	movs	r1, r5
     3ca:	9816      	ldr	r0, [sp, #88]	; 0x58
     3cc:	9b15      	ldr	r3, [sp, #84]	; 0x54
     3ce:	4798      	blx	r3
     3d0:	2800      	cmp	r0, #0
     3d2:	d0cc      	beq.n	36e <lfs_ctz_traverse.part.23+0x5a>
     3d4:	b00b      	add	sp, #44	; 0x2c
     3d6:	bc3c      	pop	{r2, r3, r4, r5}
     3d8:	4690      	mov	r8, r2
     3da:	4699      	mov	r9, r3
     3dc:	46a2      	mov	sl, r4
     3de:	46ab      	mov	fp, r5
     3e0:	bdf0      	pop	{r4, r5, r6, r7, pc}
     3e2:	2600      	movs	r6, #0
     3e4:	e7b6      	b.n	354 <lfs_ctz_traverse.part.23+0x40>
     3e6:	2054      	movs	r0, #84	; 0x54
     3e8:	4240      	negs	r0, r0
     3ea:	e7f3      	b.n	3d4 <lfs_ctz_traverse.part.23+0xc0>

000003ec <lfs_ctz_traverse.part.23.constprop.40>:
     3ec:	b5f0      	push	{r4, r5, r6, r7, lr}
     3ee:	46de      	mov	lr, fp
     3f0:	4657      	mov	r7, sl
     3f2:	464e      	mov	r6, r9
     3f4:	4645      	mov	r5, r8
     3f6:	b5e0      	push	{r5, r6, r7, lr}
     3f8:	b089      	sub	sp, #36	; 0x24
     3fa:	4699      	mov	r9, r3
     3fc:	9b13      	ldr	r3, [sp, #76]	; 0x4c
     3fe:	6e87      	ldr	r7, [r0, #104]	; 0x68
     400:	4698      	mov	r8, r3
     402:	69fd      	ldr	r5, [r7, #28]
     404:	9b12      	ldr	r3, [sp, #72]	; 0x48
     406:	3d08      	subs	r5, #8
     408:	1e5e      	subs	r6, r3, #1
     40a:	9104      	str	r1, [sp, #16]
     40c:	4682      	mov	sl, r0
     40e:	0029      	movs	r1, r5
     410:	0030      	movs	r0, r6
     412:	9205      	str	r2, [sp, #20]
     414:	f7ff fffe 	bl	0 <__aeabi_uidiv>
     418:	4643      	mov	r3, r8
     41a:	681b      	ldr	r3, [r3, #0]
     41c:	3301      	adds	r3, #1
     41e:	469b      	mov	fp, r3
     420:	42ae      	cmp	r6, r5
     422:	d356      	bcc.n	4d2 <lfs_ctz_traverse.part.23.constprop.40+0xe6>
     424:	3801      	subs	r0, #1
     426:	f7ff fffe 	bl	0 <__popcountsi2>
     42a:	1c84      	adds	r4, r0, #2
     42c:	00a4      	lsls	r4, r4, #2
     42e:	1b34      	subs	r4, r6, r4
     430:	0029      	movs	r1, r5
     432:	0020      	movs	r0, r4
     434:	f7ff fffe 	bl	0 <__aeabi_uidiv>
     438:	4643      	mov	r3, r8
     43a:	465a      	mov	r2, fp
     43c:	0006      	movs	r6, r0
     43e:	601a      	str	r2, [r3, #0]
     440:	42a5      	cmp	r5, r4
     442:	d849      	bhi.n	4d8 <lfs_ctz_traverse.part.23.constprop.40+0xec>
     444:	2268      	movs	r2, #104	; 0x68
     446:	2501      	movs	r5, #1
     448:	2402      	movs	r4, #2
     44a:	4452      	add	r2, sl
     44c:	4005      	ands	r5, r0
     44e:	4693      	mov	fp, r2
     450:	6a3a      	ldr	r2, [r7, #32]
     452:	1b64      	subs	r4, r4, r5
     454:	00a3      	lsls	r3, r4, #2
     456:	4591      	cmp	r9, r2
     458:	d232      	bcs.n	4c0 <lfs_ctz_traverse.part.23.constprop.40+0xd4>
     45a:	69fa      	ldr	r2, [r7, #28]
     45c:	429a      	cmp	r2, r3
     45e:	d32f      	bcc.n	4c0 <lfs_ctz_traverse.part.23.constprop.40+0xd4>
     460:	4641      	mov	r1, r8
     462:	464a      	mov	r2, r9
     464:	46a8      	mov	r8, r5
     466:	000d      	movs	r5, r1
     468:	af06      	add	r7, sp, #24
     46a:	9113      	str	r1, [sp, #76]	; 0x4c
     46c:	2100      	movs	r1, #0
     46e:	9200      	str	r2, [sp, #0]
     470:	9101      	str	r1, [sp, #4]
     472:	9303      	str	r3, [sp, #12]
     474:	9702      	str	r7, [sp, #8]
     476:	9a05      	ldr	r2, [sp, #20]
     478:	9904      	ldr	r1, [sp, #16]
     47a:	4658      	mov	r0, fp
     47c:	f7ff fe90 	bl	1a0 <lfs_bd_read.isra.21.part.22>
     480:	2800      	cmp	r0, #0
     482:	d11f      	bne.n	4c4 <lfs_ctz_traverse.part.23.constprop.40+0xd8>
     484:	6829      	ldr	r1, [r5, #0]
     486:	1e62      	subs	r2, r4, #1
     488:	3c02      	subs	r4, #2
     48a:	4263      	negs	r3, r4
     48c:	4163      	adcs	r3, r4
     48e:	468c      	mov	ip, r1
     490:	4446      	add	r6, r8
     492:	4463      	add	r3, ip
     494:	3301      	adds	r3, #1
     496:	0092      	lsls	r2, r2, #2
     498:	3e02      	subs	r6, #2
     49a:	58ba      	ldr	r2, [r7, r2]
     49c:	602b      	str	r3, [r5, #0]
     49e:	2e00      	cmp	r6, #0
     4a0:	d01a      	beq.n	4d8 <lfs_ctz_traverse.part.23.constprop.40+0xec>
     4a2:	2301      	movs	r3, #1
     4a4:	4033      	ands	r3, r6
     4a6:	4698      	mov	r8, r3
     4a8:	2302      	movs	r3, #2
     4aa:	4641      	mov	r1, r8
     4ac:	1a5c      	subs	r4, r3, r1
     4ae:	4651      	mov	r1, sl
     4b0:	6e89      	ldr	r1, [r1, #104]	; 0x68
     4b2:	00a3      	lsls	r3, r4, #2
     4b4:	6a08      	ldr	r0, [r1, #32]
     4b6:	4282      	cmp	r2, r0
     4b8:	d202      	bcs.n	4c0 <lfs_ctz_traverse.part.23.constprop.40+0xd4>
     4ba:	69c9      	ldr	r1, [r1, #28]
     4bc:	428b      	cmp	r3, r1
     4be:	d9d5      	bls.n	46c <lfs_ctz_traverse.part.23.constprop.40+0x80>
     4c0:	2054      	movs	r0, #84	; 0x54
     4c2:	4240      	negs	r0, r0
     4c4:	b009      	add	sp, #36	; 0x24
     4c6:	bc3c      	pop	{r2, r3, r4, r5}
     4c8:	4690      	mov	r8, r2
     4ca:	4699      	mov	r9, r3
     4cc:	46a2      	mov	sl, r4
     4ce:	46ab      	mov	fp, r5
     4d0:	bdf0      	pop	{r4, r5, r6, r7, pc}
     4d2:	4643      	mov	r3, r8
     4d4:	465a      	mov	r2, fp
     4d6:	601a      	str	r2, [r3, #0]
     4d8:	2000      	movs	r0, #0
     4da:	e7f3      	b.n	4c4 <lfs_ctz_traverse.part.23.constprop.40+0xd8>

000004dc <lfs_fs_parent_match>:
     4dc:	b5f0      	push	{r4, r5, r6, r7, lr}
     4de:	6804      	ldr	r4, [r0, #0]
     4e0:	0005      	movs	r5, r0
     4e2:	0021      	movs	r1, r4
     4e4:	0020      	movs	r0, r4
     4e6:	6ea6      	ldr	r6, [r4, #104]	; 0x68
     4e8:	6817      	ldr	r7, [r2, #0]
     4ea:	69f3      	ldr	r3, [r6, #28]
     4ec:	6a36      	ldr	r6, [r6, #32]
     4ee:	b087      	sub	sp, #28
     4f0:	3110      	adds	r1, #16
     4f2:	6852      	ldr	r2, [r2, #4]
     4f4:	3068      	adds	r0, #104	; 0x68
     4f6:	42b7      	cmp	r7, r6
     4f8:	d21d      	bcs.n	536 <lfs_fs_parent_match+0x5a>
     4fa:	0016      	movs	r6, r2
     4fc:	3608      	adds	r6, #8
     4fe:	42b3      	cmp	r3, r6
     500:	d319      	bcc.n	536 <lfs_fs_parent_match+0x5a>
     502:	2608      	movs	r6, #8
     504:	9603      	str	r6, [sp, #12]
     506:	ae04      	add	r6, sp, #16
     508:	9201      	str	r2, [sp, #4]
     50a:	9602      	str	r6, [sp, #8]
     50c:	9700      	str	r7, [sp, #0]
     50e:	0022      	movs	r2, r4
     510:	f7ff fe46 	bl	1a0 <lfs_bd_read.isra.21.part.22>
     514:	2800      	cmp	r0, #0
     516:	d10c      	bne.n	532 <lfs_fs_parent_match+0x56>
     518:	9b04      	ldr	r3, [sp, #16]
     51a:	686a      	ldr	r2, [r5, #4]
     51c:	429a      	cmp	r2, r3
     51e:	d008      	beq.n	532 <lfs_fs_parent_match+0x56>
     520:	9c05      	ldr	r4, [sp, #20]
     522:	68a9      	ldr	r1, [r5, #8]
     524:	428c      	cmp	r4, r1
     526:	d004      	beq.n	532 <lfs_fs_parent_match+0x56>
     528:	428b      	cmp	r3, r1
     52a:	d002      	beq.n	532 <lfs_fs_parent_match+0x56>
     52c:	1b10      	subs	r0, r2, r4
     52e:	1e43      	subs	r3, r0, #1
     530:	4198      	sbcs	r0, r3
     532:	b007      	add	sp, #28
     534:	bdf0      	pop	{r4, r5, r6, r7, pc}
     536:	2054      	movs	r0, #84	; 0x54
     538:	4240      	negs	r0, r0
     53a:	e7fa      	b.n	532 <lfs_fs_parent_match+0x56>

0000053c <lfs_dir_find_match>:
     53c:	b5f0      	push	{r4, r5, r6, r7, lr}
     53e:	464e      	mov	r6, r9
     540:	4645      	mov	r5, r8
     542:	46de      	mov	lr, fp
     544:	4657      	mov	r7, sl
     546:	b5e0      	push	{r5, r6, r7, lr}
     548:	6803      	ldr	r3, [r0, #0]
     54a:	0589      	lsls	r1, r1, #22
     54c:	4698      	mov	r8, r3
     54e:	6883      	ldr	r3, [r0, #8]
     550:	b089      	sub	sp, #36	; 0x24
     552:	4681      	mov	r9, r0
     554:	0d8d      	lsrs	r5, r1, #22
     556:	001e      	movs	r6, r3
     558:	42ab      	cmp	r3, r5
     55a:	d900      	bls.n	55e <lfs_dir_find_match+0x22>
     55c:	002e      	movs	r6, r5
     55e:	6811      	ldr	r1, [r2, #0]
     560:	6852      	ldr	r2, [r2, #4]
     562:	468a      	mov	sl, r1
     564:	4693      	mov	fp, r2
     566:	464a      	mov	r2, r9
     568:	6852      	ldr	r2, [r2, #4]
     56a:	9204      	str	r2, [sp, #16]
     56c:	2e00      	cmp	r6, #0
     56e:	d04a      	beq.n	606 <lfs_dir_find_match+0xca>
     570:	0034      	movs	r4, r6
     572:	2e08      	cmp	r6, #8
     574:	d84e      	bhi.n	614 <lfs_dir_find_match+0xd8>
     576:	2368      	movs	r3, #104	; 0x68
     578:	4443      	add	r3, r8
     57a:	9305      	str	r3, [sp, #20]
     57c:	4643      	mov	r3, r8
     57e:	6e9a      	ldr	r2, [r3, #104]	; 0x68
     580:	6a13      	ldr	r3, [r2, #32]
     582:	459a      	cmp	sl, r3
     584:	d248      	bcs.n	618 <lfs_dir_find_match+0xdc>
     586:	465b      	mov	r3, fp
     588:	69d2      	ldr	r2, [r2, #28]
     58a:	191b      	adds	r3, r3, r4
     58c:	4293      	cmp	r3, r2
     58e:	d843      	bhi.n	618 <lfs_dir_find_match+0xdc>
     590:	0033      	movs	r3, r6
     592:	4659      	mov	r1, fp
     594:	4656      	mov	r6, sl
     596:	2700      	movs	r7, #0
     598:	46aa      	mov	sl, r5
     59a:	001d      	movs	r5, r3
     59c:	e012      	b.n	5c4 <lfs_dir_find_match+0x88>
     59e:	193f      	adds	r7, r7, r4
     5a0:	42bd      	cmp	r5, r7
     5a2:	d92d      	bls.n	600 <lfs_dir_find_match+0xc4>
     5a4:	1beb      	subs	r3, r5, r7
     5a6:	001c      	movs	r4, r3
     5a8:	2b08      	cmp	r3, #8
     5aa:	d900      	bls.n	5ae <lfs_dir_find_match+0x72>
     5ac:	2408      	movs	r4, #8
     5ae:	465a      	mov	r2, fp
     5b0:	19d1      	adds	r1, r2, r7
     5b2:	4642      	mov	r2, r8
     5b4:	6e90      	ldr	r0, [r2, #104]	; 0x68
     5b6:	6a02      	ldr	r2, [r0, #32]
     5b8:	4296      	cmp	r6, r2
     5ba:	d22d      	bcs.n	618 <lfs_dir_find_match+0xdc>
     5bc:	69c0      	ldr	r0, [r0, #28]
     5be:	1862      	adds	r2, r4, r1
     5c0:	4282      	cmp	r2, r0
     5c2:	d829      	bhi.n	618 <lfs_dir_find_match+0xdc>
     5c4:	aa06      	add	r2, sp, #24
     5c6:	9202      	str	r2, [sp, #8]
     5c8:	9101      	str	r1, [sp, #4]
     5ca:	9403      	str	r4, [sp, #12]
     5cc:	9600      	str	r6, [sp, #0]
     5ce:	4642      	mov	r2, r8
     5d0:	2100      	movs	r1, #0
     5d2:	9805      	ldr	r0, [sp, #20]
     5d4:	f7ff fde4 	bl	1a0 <lfs_bd_read.isra.21.part.22>
     5d8:	2800      	cmp	r0, #0
     5da:	d10a      	bne.n	5f2 <lfs_dir_find_match+0xb6>
     5dc:	9b04      	ldr	r3, [sp, #16]
     5de:	0022      	movs	r2, r4
     5e0:	19d9      	adds	r1, r3, r7
     5e2:	a806      	add	r0, sp, #24
     5e4:	f7ff fffe 	bl	0 <memcmp>
     5e8:	2800      	cmp	r0, #0
     5ea:	d0d8      	beq.n	59e <lfs_dir_find_match+0x62>
     5ec:	43c0      	mvns	r0, r0
     5ee:	0fc0      	lsrs	r0, r0, #31
     5f0:	3001      	adds	r0, #1
     5f2:	b009      	add	sp, #36	; 0x24
     5f4:	bc3c      	pop	{r2, r3, r4, r5}
     5f6:	4690      	mov	r8, r2
     5f8:	4699      	mov	r9, r3
     5fa:	46a2      	mov	sl, r4
     5fc:	46ab      	mov	fp, r5
     5fe:	bdf0      	pop	{r4, r5, r6, r7, pc}
     600:	464b      	mov	r3, r9
     602:	4655      	mov	r5, sl
     604:	689b      	ldr	r3, [r3, #8]
     606:	2000      	movs	r0, #0
     608:	429d      	cmp	r5, r3
     60a:	d0f2      	beq.n	5f2 <lfs_dir_find_match+0xb6>
     60c:	42ab      	cmp	r3, r5
     60e:	4140      	adcs	r0, r0
     610:	3001      	adds	r0, #1
     612:	e7ee      	b.n	5f2 <lfs_dir_find_match+0xb6>
     614:	2408      	movs	r4, #8
     616:	e7ae      	b.n	576 <lfs_dir_find_match+0x3a>
     618:	2054      	movs	r0, #84	; 0x54
     61a:	4240      	negs	r0, r0
     61c:	e7e9      	b.n	5f2 <lfs_dir_find_match+0xb6>
     61e:	46c0      	nop			; (mov r8, r8)

00000620 <lfs_ctz_find.constprop.30>:
     620:	b5f0      	push	{r4, r5, r6, r7, lr}
     622:	464e      	mov	r6, r9
     624:	4645      	mov	r5, r8
     626:	46de      	mov	lr, fp
     628:	4657      	mov	r7, sl
     62a:	b5e0      	push	{r5, r6, r7, lr}
     62c:	b087      	sub	sp, #28
     62e:	4680      	mov	r8, r0
     630:	4689      	mov	r9, r1
     632:	9205      	str	r2, [sp, #20]
     634:	2b00      	cmp	r3, #0
     636:	d100      	bne.n	63a <lfs_ctz_find.constprop.30+0x1a>
     638:	e08e      	b.n	758 <lfs_ctz_find.constprop.30+0x138>
     63a:	1e5d      	subs	r5, r3, #1
     63c:	6e83      	ldr	r3, [r0, #104]	; 0x68
     63e:	0016      	movs	r6, r2
     640:	469a      	mov	sl, r3
     642:	69db      	ldr	r3, [r3, #28]
     644:	001c      	movs	r4, r3
     646:	3c08      	subs	r4, #8
     648:	469b      	mov	fp, r3
     64a:	42a5      	cmp	r5, r4
     64c:	d200      	bcs.n	650 <lfs_ctz_find.constprop.30+0x30>
     64e:	e07e      	b.n	74e <lfs_ctz_find.constprop.30+0x12e>
     650:	0021      	movs	r1, r4
     652:	0028      	movs	r0, r5
     654:	f7ff fffe 	bl	0 <__aeabi_uidiv>
     658:	3801      	subs	r0, #1
     65a:	f7ff fffe 	bl	0 <__popcountsi2>
     65e:	3002      	adds	r0, #2
     660:	0080      	lsls	r0, r0, #2
     662:	1a28      	subs	r0, r5, r0
     664:	0021      	movs	r1, r4
     666:	f7ff fffe 	bl	0 <__aeabi_uidiv>
     66a:	9b10      	ldr	r3, [sp, #64]	; 0x40
     66c:	0005      	movs	r5, r0
     66e:	2700      	movs	r7, #0
     670:	429c      	cmp	r4, r3
     672:	d816      	bhi.n	6a2 <lfs_ctz_find.constprop.30+0x82>
     674:	0021      	movs	r1, r4
     676:	9810      	ldr	r0, [sp, #64]	; 0x40
     678:	f7ff fffe 	bl	0 <__aeabi_uidiv>
     67c:	3801      	subs	r0, #1
     67e:	f7ff fffe 	bl	0 <__popcountsi2>
     682:	9b10      	ldr	r3, [sp, #64]	; 0x40
     684:	3002      	adds	r0, #2
     686:	0080      	lsls	r0, r0, #2
     688:	1a18      	subs	r0, r3, r0
     68a:	0021      	movs	r1, r4
     68c:	f7ff fffe 	bl	0 <__aeabi_uidiv>
     690:	0007      	movs	r7, r0
     692:	f7ff fffe 	bl	0 <__popcountsi2>
     696:	437c      	muls	r4, r7
     698:	9b10      	ldr	r3, [sp, #64]	; 0x40
     69a:	0080      	lsls	r0, r0, #2
     69c:	1a18      	subs	r0, r3, r0
     69e:	1b03      	subs	r3, r0, r4
     6a0:	9310      	str	r3, [sp, #64]	; 0x40
     6a2:	42bd      	cmp	r5, r7
     6a4:	d946      	bls.n	734 <lfs_ctz_find.constprop.30+0x114>
     6a6:	1be8      	subs	r0, r5, r7
     6a8:	f7ff fffe 	bl	0 <__clzsi2>
     6ac:	0004      	movs	r4, r0
     6ae:	0028      	movs	r0, r5
     6b0:	43e4      	mvns	r4, r4
     6b2:	f7ff fffe 	bl	0 <__ctzsi2>
     6b6:	3420      	adds	r4, #32
     6b8:	4284      	cmp	r4, r0
     6ba:	d900      	bls.n	6be <lfs_ctz_find.constprop.30+0x9e>
     6bc:	0004      	movs	r4, r0
     6be:	2368      	movs	r3, #104	; 0x68
     6c0:	4443      	add	r3, r8
     6c2:	9304      	str	r3, [sp, #16]
     6c4:	4653      	mov	r3, sl
     6c6:	6a1b      	ldr	r3, [r3, #32]
     6c8:	00a2      	lsls	r2, r4, #2
     6ca:	42b3      	cmp	r3, r6
     6cc:	d94c      	bls.n	768 <lfs_ctz_find.constprop.30+0x148>
     6ce:	1d13      	adds	r3, r2, #4
     6d0:	459b      	cmp	fp, r3
     6d2:	d349      	bcc.n	768 <lfs_ctz_find.constprop.30+0x148>
     6d4:	2304      	movs	r3, #4
     6d6:	469a      	mov	sl, r3
     6d8:	3b03      	subs	r3, #3
     6da:	469b      	mov	fp, r3
     6dc:	e016      	b.n	70c <lfs_ctz_find.constprop.30+0xec>
     6de:	1be8      	subs	r0, r5, r7
     6e0:	f7ff fffe 	bl	0 <__clzsi2>
     6e4:	0004      	movs	r4, r0
     6e6:	0028      	movs	r0, r5
     6e8:	f7ff fffe 	bl	0 <__ctzsi2>
     6ec:	2320      	movs	r3, #32
     6ee:	1b1c      	subs	r4, r3, r4
     6f0:	3c01      	subs	r4, #1
     6f2:	4284      	cmp	r4, r0
     6f4:	d900      	bls.n	6f8 <lfs_ctz_find.constprop.30+0xd8>
     6f6:	0004      	movs	r4, r0
     6f8:	4643      	mov	r3, r8
     6fa:	6e99      	ldr	r1, [r3, #104]	; 0x68
     6fc:	00a2      	lsls	r2, r4, #2
     6fe:	6a0b      	ldr	r3, [r1, #32]
     700:	42b3      	cmp	r3, r6
     702:	d931      	bls.n	768 <lfs_ctz_find.constprop.30+0x148>
     704:	69c9      	ldr	r1, [r1, #28]
     706:	1d13      	adds	r3, r2, #4
     708:	428b      	cmp	r3, r1
     70a:	d82d      	bhi.n	768 <lfs_ctz_find.constprop.30+0x148>
     70c:	4653      	mov	r3, sl
     70e:	9303      	str	r3, [sp, #12]
     710:	ab05      	add	r3, sp, #20
     712:	9302      	str	r3, [sp, #8]
     714:	9201      	str	r2, [sp, #4]
     716:	9600      	str	r6, [sp, #0]
     718:	2304      	movs	r3, #4
     71a:	464a      	mov	r2, r9
     71c:	2100      	movs	r1, #0
     71e:	9804      	ldr	r0, [sp, #16]
     720:	f7ff fd3e 	bl	1a0 <lfs_bd_read.isra.21.part.22>
     724:	2800      	cmp	r0, #0
     726:	d10b      	bne.n	740 <lfs_ctz_find.constprop.30+0x120>
     728:	465b      	mov	r3, fp
     72a:	40a3      	lsls	r3, r4
     72c:	9e05      	ldr	r6, [sp, #20]
     72e:	1aed      	subs	r5, r5, r3
     730:	42bd      	cmp	r5, r7
     732:	d8d4      	bhi.n	6de <lfs_ctz_find.constprop.30+0xbe>
     734:	2000      	movs	r0, #0
     736:	9b11      	ldr	r3, [sp, #68]	; 0x44
     738:	9a10      	ldr	r2, [sp, #64]	; 0x40
     73a:	601e      	str	r6, [r3, #0]
     73c:	9b12      	ldr	r3, [sp, #72]	; 0x48
     73e:	601a      	str	r2, [r3, #0]
     740:	b007      	add	sp, #28
     742:	bc3c      	pop	{r2, r3, r4, r5}
     744:	4690      	mov	r8, r2
     746:	4699      	mov	r9, r3
     748:	46a2      	mov	sl, r4
     74a:	46ab      	mov	fp, r5
     74c:	bdf0      	pop	{r4, r5, r6, r7, pc}
     74e:	9b10      	ldr	r3, [sp, #64]	; 0x40
     750:	429c      	cmp	r4, r3
     752:	d8ef      	bhi.n	734 <lfs_ctz_find.constprop.30+0x114>
     754:	2500      	movs	r5, #0
     756:	e78d      	b.n	674 <lfs_ctz_find.constprop.30+0x54>
     758:	2201      	movs	r2, #1
     75a:	9911      	ldr	r1, [sp, #68]	; 0x44
     75c:	4252      	negs	r2, r2
     75e:	600a      	str	r2, [r1, #0]
     760:	9a12      	ldr	r2, [sp, #72]	; 0x48
     762:	2000      	movs	r0, #0
     764:	6013      	str	r3, [r2, #0]
     766:	e7eb      	b.n	740 <lfs_ctz_find.constprop.30+0x120>
     768:	2054      	movs	r0, #84	; 0x54
     76a:	4240      	negs	r0, r0
     76c:	e7e8      	b.n	740 <lfs_ctz_find.constprop.30+0x120>
     76e:	46c0      	nop			; (mov r8, r8)

00000770 <lfs_dir_traverse>:
     770:	b5f0      	push	{r4, r5, r6, r7, lr}
     772:	4657      	mov	r7, sl
     774:	464e      	mov	r6, r9
     776:	4645      	mov	r5, r8
     778:	46de      	mov	lr, fp
     77a:	b5e0      	push	{r5, r6, r7, lr}
     77c:	b095      	sub	sp, #84	; 0x54
     77e:	001d      	movs	r5, r3
     780:	9b1f      	ldr	r3, [sp, #124]	; 0x7c
     782:	4683      	mov	fp, r0
     784:	4698      	mov	r8, r3
     786:	4689      	mov	r9, r1
     788:	4647      	mov	r7, r8
     78a:	ab22      	add	r3, sp, #136	; 0x88
     78c:	881b      	ldrh	r3, [r3, #0]
     78e:	4692      	mov	sl, r2
     790:	930d      	str	r3, [sp, #52]	; 0x34
     792:	ab23      	add	r3, sp, #140	; 0x8c
     794:	881b      	ldrh	r3, [r3, #0]
     796:	9e1e      	ldr	r6, [sp, #120]	; 0x78
     798:	930e      	str	r3, [sp, #56]	; 0x38
     79a:	ab24      	add	r3, sp, #144	; 0x90
     79c:	2200      	movs	r2, #0
     79e:	5e9a      	ldrsh	r2, [r3, r2]
     7a0:	9b20      	ldr	r3, [sp, #128]	; 0x80
     7a2:	920f      	str	r2, [sp, #60]	; 0x3c
     7a4:	0a9b      	lsrs	r3, r3, #10
     7a6:	b29b      	uxth	r3, r3
     7a8:	930b      	str	r3, [sp, #44]	; 0x2c
     7aa:	0293      	lsls	r3, r2, #10
     7ac:	930c      	str	r3, [sp, #48]	; 0x30
     7ae:	05ac      	lsls	r4, r5, #22
     7b0:	15a4      	asrs	r4, r4, #22
     7b2:	3401      	adds	r4, #1
     7b4:	4263      	negs	r3, r4
     7b6:	415c      	adcs	r4, r3
     7b8:	4653      	mov	r3, sl
     7ba:	1964      	adds	r4, r4, r5
     7bc:	05a4      	lsls	r4, r4, #22
     7be:	3304      	adds	r3, #4
     7c0:	0da4      	lsrs	r4, r4, #22
     7c2:	18e4      	adds	r4, r4, r3
     7c4:	464b      	mov	r3, r9
     7c6:	68db      	ldr	r3, [r3, #12]
     7c8:	429c      	cmp	r4, r3
     7ca:	d32e      	bcc.n	82a <lfs_dir_traverse+0xba>
     7cc:	2f00      	cmp	r7, #0
     7ce:	dc00      	bgt.n	7d2 <lfs_dir_traverse+0x62>
     7d0:	e0c2      	b.n	958 <lfs_dir_traverse+0x1e8>
     7d2:	6873      	ldr	r3, [r6, #4]
     7d4:	6831      	ldr	r1, [r6, #0]
     7d6:	4698      	mov	r8, r3
     7d8:	9111      	str	r1, [sp, #68]	; 0x44
     7da:	3608      	adds	r6, #8
     7dc:	3f01      	subs	r7, #1
     7de:	9c21      	ldr	r4, [sp, #132]	; 0x84
     7e0:	9b20      	ldr	r3, [sp, #128]	; 0x80
     7e2:	404c      	eors	r4, r1
     7e4:	401c      	ands	r4, r3
     7e6:	4b61      	ldr	r3, [pc, #388]	; (96c <lfs_dir_traverse+0x1fc>)
     7e8:	401c      	ands	r4, r3
     7ea:	d1e0      	bne.n	7ae <lfs_dir_traverse+0x3e>
     7ec:	9b0b      	ldr	r3, [sp, #44]	; 0x2c
     7ee:	2b00      	cmp	r3, #0
     7f0:	d149      	bne.n	886 <lfs_dir_traverse+0x116>
     7f2:	004b      	lsls	r3, r1, #1
     7f4:	0d5b      	lsrs	r3, r3, #21
     7f6:	d0da      	beq.n	7ae <lfs_dir_traverse+0x3e>
     7f8:	2202      	movs	r2, #2
     7fa:	32ff      	adds	r2, #255	; 0xff
     7fc:	4293      	cmp	r3, r2
     7fe:	d062      	beq.n	8c6 <lfs_dir_traverse+0x156>
     800:	2281      	movs	r2, #129	; 0x81
     802:	0052      	lsls	r2, r2, #1
     804:	4293      	cmp	r3, r2
     806:	d100      	bne.n	80a <lfs_dir_traverse+0x9a>
     808:	e080      	b.n	90c <lfs_dir_traverse+0x19c>
     80a:	9b0c      	ldr	r3, [sp, #48]	; 0x30
     80c:	4642      	mov	r2, r8
     80e:	469c      	mov	ip, r3
     810:	9826      	ldr	r0, [sp, #152]	; 0x98
     812:	4461      	add	r1, ip
     814:	9b25      	ldr	r3, [sp, #148]	; 0x94
     816:	4798      	blx	r3
     818:	2800      	cmp	r0, #0
     81a:	d0c8      	beq.n	7ae <lfs_dir_traverse+0x3e>
     81c:	b015      	add	sp, #84	; 0x54
     81e:	bc3c      	pop	{r2, r3, r4, r5}
     820:	4690      	mov	r8, r2
     822:	4699      	mov	r9, r3
     824:	46a2      	mov	sl, r4
     826:	46ab      	mov	fp, r5
     828:	bdf0      	pop	{r4, r5, r6, r7, pc}
     82a:	464b      	mov	r3, r9
     82c:	681a      	ldr	r2, [r3, #0]
     82e:	465b      	mov	r3, fp
     830:	4658      	mov	r0, fp
     832:	6e9b      	ldr	r3, [r3, #104]	; 0x68
     834:	3068      	adds	r0, #104	; 0x68
     836:	6a19      	ldr	r1, [r3, #32]
     838:	428a      	cmp	r2, r1
     83a:	d300      	bcc.n	83e <lfs_dir_traverse+0xce>
     83c:	e092      	b.n	964 <lfs_dir_traverse+0x1f4>
     83e:	69db      	ldr	r3, [r3, #28]
     840:	1d21      	adds	r1, r4, #4
     842:	4688      	mov	r8, r1
     844:	4299      	cmp	r1, r3
     846:	d900      	bls.n	84a <lfs_dir_traverse+0xda>
     848:	e08c      	b.n	964 <lfs_dir_traverse+0x1f4>
     84a:	2304      	movs	r3, #4
     84c:	9303      	str	r3, [sp, #12]
     84e:	ab11      	add	r3, sp, #68	; 0x44
     850:	9302      	str	r3, [sp, #8]
     852:	9200      	str	r2, [sp, #0]
     854:	9401      	str	r4, [sp, #4]
     856:	2304      	movs	r3, #4
     858:	465a      	mov	r2, fp
     85a:	2100      	movs	r1, #0
     85c:	f7ff fca0 	bl	1a0 <lfs_bd_read.isra.21.part.22>
     860:	2800      	cmp	r0, #0
     862:	d1db      	bne.n	81c <lfs_dir_traverse+0xac>
     864:	9b11      	ldr	r3, [sp, #68]	; 0x44
     866:	46a2      	mov	sl, r4
     868:	ba19      	rev	r1, r3
     86a:	464b      	mov	r3, r9
     86c:	681b      	ldr	r3, [r3, #0]
     86e:	404d      	eors	r5, r1
     870:	2180      	movs	r1, #128	; 0x80
     872:	9312      	str	r3, [sp, #72]	; 0x48
     874:	4643      	mov	r3, r8
     876:	0609      	lsls	r1, r1, #24
     878:	4329      	orrs	r1, r5
     87a:	9313      	str	r3, [sp, #76]	; 0x4c
     87c:	ab12      	add	r3, sp, #72	; 0x48
     87e:	9111      	str	r1, [sp, #68]	; 0x44
     880:	000d      	movs	r5, r1
     882:	4698      	mov	r8, r3
     884:	e7ab      	b.n	7de <lfs_dir_traverse+0x6e>
     886:	ab11      	add	r3, sp, #68	; 0x44
     888:	9308      	str	r3, [sp, #32]
     88a:	4b39      	ldr	r3, [pc, #228]	; (970 <lfs_dir_traverse+0x200>)
     88c:	9406      	str	r4, [sp, #24]
     88e:	9307      	str	r3, [sp, #28]
     890:	9405      	str	r4, [sp, #20]
     892:	9404      	str	r4, [sp, #16]
     894:	9403      	str	r4, [sp, #12]
     896:	9402      	str	r4, [sp, #8]
     898:	9701      	str	r7, [sp, #4]
     89a:	9600      	str	r6, [sp, #0]
     89c:	002b      	movs	r3, r5
     89e:	4652      	mov	r2, sl
     8a0:	4649      	mov	r1, r9
     8a2:	4658      	mov	r0, fp
     8a4:	f7ff ff64 	bl	770 <lfs_dir_traverse>
     8a8:	2800      	cmp	r0, #0
     8aa:	dbb7      	blt.n	81c <lfs_dir_traverse+0xac>
     8ac:	d000      	beq.n	8b0 <lfs_dir_traverse+0x140>
     8ae:	e77e      	b.n	7ae <lfs_dir_traverse+0x3e>
     8b0:	9911      	ldr	r1, [sp, #68]	; 0x44
     8b2:	9a0d      	ldr	r2, [sp, #52]	; 0x34
     8b4:	030b      	lsls	r3, r1, #12
     8b6:	0d9b      	lsrs	r3, r3, #22
     8b8:	429a      	cmp	r2, r3
     8ba:	d900      	bls.n	8be <lfs_dir_traverse+0x14e>
     8bc:	e777      	b.n	7ae <lfs_dir_traverse+0x3e>
     8be:	9a0e      	ldr	r2, [sp, #56]	; 0x38
     8c0:	429a      	cmp	r2, r3
     8c2:	d896      	bhi.n	7f2 <lfs_dir_traverse+0x82>
     8c4:	e773      	b.n	7ae <lfs_dir_traverse+0x3e>
     8c6:	9b26      	ldr	r3, [sp, #152]	; 0x98
     8c8:	058a      	lsls	r2, r1, #22
     8ca:	9308      	str	r3, [sp, #32]
     8cc:	0309      	lsls	r1, r1, #12
     8ce:	9b25      	ldr	r3, [sp, #148]	; 0x94
     8d0:	0d92      	lsrs	r2, r2, #22
     8d2:	0d89      	lsrs	r1, r1, #22
     8d4:	9307      	str	r3, [sp, #28]
     8d6:	1a8b      	subs	r3, r1, r2
     8d8:	990f      	ldr	r1, [sp, #60]	; 0x3c
     8da:	9204      	str	r2, [sp, #16]
     8dc:	468c      	mov	ip, r1
     8de:	4463      	add	r3, ip
     8e0:	b21b      	sxth	r3, r3
     8e2:	9306      	str	r3, [sp, #24]
     8e4:	1c53      	adds	r3, r2, #1
     8e6:	9305      	str	r3, [sp, #20]
     8e8:	2380      	movs	r3, #128	; 0x80
     8ea:	059b      	lsls	r3, r3, #22
     8ec:	9303      	str	r3, [sp, #12]
     8ee:	4b21      	ldr	r3, [pc, #132]	; (974 <lfs_dir_traverse+0x204>)
     8f0:	2200      	movs	r2, #0
     8f2:	9302      	str	r3, [sp, #8]
     8f4:	2300      	movs	r3, #0
     8f6:	4641      	mov	r1, r8
     8f8:	9301      	str	r3, [sp, #4]
     8fa:	9300      	str	r3, [sp, #0]
     8fc:	4658      	mov	r0, fp
     8fe:	3b01      	subs	r3, #1
     900:	f7ff ff36 	bl	770 <lfs_dir_traverse>
     904:	2800      	cmp	r0, #0
     906:	d100      	bne.n	90a <lfs_dir_traverse+0x19a>
     908:	e751      	b.n	7ae <lfs_dir_traverse+0x3e>
     90a:	e787      	b.n	81c <lfs_dir_traverse+0xac>
     90c:	058b      	lsls	r3, r1, #22
     90e:	d100      	bne.n	912 <lfs_dir_traverse+0x1a2>
     910:	e74d      	b.n	7ae <lfs_dir_traverse+0x3e>
     912:	002b      	movs	r3, r5
     914:	961e      	str	r6, [sp, #120]	; 0x78
     916:	0025      	movs	r5, r4
     918:	971f      	str	r7, [sp, #124]	; 0x7c
     91a:	4644      	mov	r4, r8
     91c:	9e0f      	ldr	r6, [sp, #60]	; 0x3c
     91e:	9f25      	ldr	r7, [sp, #148]	; 0x94
     920:	4698      	mov	r8, r3
     922:	e006      	b.n	932 <lfs_dir_traverse+0x1c2>
     924:	9911      	ldr	r1, [sp, #68]	; 0x44
     926:	3501      	adds	r5, #1
     928:	058b      	lsls	r3, r1, #22
     92a:	340c      	adds	r4, #12
     92c:	0d9b      	lsrs	r3, r3, #22
     92e:	429d      	cmp	r5, r3
     930:	d214      	bcs.n	95c <lfs_dir_traverse+0x1ec>
     932:	22c0      	movs	r2, #192	; 0xc0
     934:	0092      	lsls	r2, r2, #2
     936:	4694      	mov	ip, r2
     938:	0309      	lsls	r1, r1, #12
     93a:	0d89      	lsrs	r1, r1, #22
     93c:	68a3      	ldr	r3, [r4, #8]
     93e:	1989      	adds	r1, r1, r6
     940:	0289      	lsls	r1, r1, #10
     942:	4319      	orrs	r1, r3
     944:	7823      	ldrb	r3, [r4, #0]
     946:	6862      	ldr	r2, [r4, #4]
     948:	4463      	add	r3, ip
     94a:	051b      	lsls	r3, r3, #20
     94c:	4319      	orrs	r1, r3
     94e:	9826      	ldr	r0, [sp, #152]	; 0x98
     950:	47b8      	blx	r7
     952:	2800      	cmp	r0, #0
     954:	d0e6      	beq.n	924 <lfs_dir_traverse+0x1b4>
     956:	e761      	b.n	81c <lfs_dir_traverse+0xac>
     958:	2000      	movs	r0, #0
     95a:	e75f      	b.n	81c <lfs_dir_traverse+0xac>
     95c:	4645      	mov	r5, r8
     95e:	9e1e      	ldr	r6, [sp, #120]	; 0x78
     960:	9f1f      	ldr	r7, [sp, #124]	; 0x7c
     962:	e724      	b.n	7ae <lfs_dir_traverse+0x3e>
     964:	2054      	movs	r0, #84	; 0x54
     966:	4240      	negs	r0, r0
     968:	e758      	b.n	81c <lfs_dir_traverse+0xac>
     96a:	46c0      	nop			; (mov r8, r8)
     96c:	7ff00000 	.word	0x7ff00000
     970:	00000000 	.word	0x00000000
     974:	600ffc00 	.word	0x600ffc00

00000978 <lfs_bd_flush>:
     978:	b5f0      	push	{r4, r5, r6, r7, lr}
     97a:	464e      	mov	r6, r9
     97c:	46de      	mov	lr, fp
     97e:	4657      	mov	r7, sl
     980:	4645      	mov	r5, r8
     982:	4693      	mov	fp, r2
     984:	2200      	movs	r2, #0
     986:	b5e0      	push	{r5, r6, r7, lr}
     988:	680e      	ldr	r6, [r1, #0]
     98a:	b08b      	sub	sp, #44	; 0x2c
     98c:	9306      	str	r3, [sp, #24]
     98e:	1cb3      	adds	r3, r6, #2
     990:	4681      	mov	r9, r0
     992:	000f      	movs	r7, r1
     994:	4690      	mov	r8, r2
     996:	2b01      	cmp	r3, #1
     998:	d967      	bls.n	a6a <lfs_bd_flush+0xf2>
     99a:	6889      	ldr	r1, [r1, #8]
     99c:	6e85      	ldr	r5, [r0, #104]	; 0x68
     99e:	468c      	mov	ip, r1
     9a0:	69aa      	ldr	r2, [r5, #24]
     9a2:	69a9      	ldr	r1, [r5, #24]
     9a4:	4462      	add	r2, ip
     9a6:	0014      	movs	r4, r2
     9a8:	3c01      	subs	r4, #1
     9aa:	0020      	movs	r0, r4
     9ac:	f7ff fffe 	bl	0 <__aeabi_uidivmod>
     9b0:	1a64      	subs	r4, r4, r1
     9b2:	9400      	str	r4, [sp, #0]
     9b4:	68aa      	ldr	r2, [r5, #8]
     9b6:	68fb      	ldr	r3, [r7, #12]
     9b8:	4692      	mov	sl, r2
     9ba:	0031      	movs	r1, r6
     9bc:	687a      	ldr	r2, [r7, #4]
     9be:	0028      	movs	r0, r5
     9c0:	47d0      	blx	sl
     9c2:	4680      	mov	r8, r0
     9c4:	2800      	cmp	r0, #0
     9c6:	d150      	bne.n	a6a <lfs_bd_flush+0xf2>
     9c8:	68fa      	ldr	r2, [r7, #12]
     9ca:	9b06      	ldr	r3, [sp, #24]
     9cc:	9205      	str	r2, [sp, #20]
     9ce:	464a      	mov	r2, r9
     9d0:	6e92      	ldr	r2, [r2, #104]	; 0x68
     9d2:	2b00      	cmp	r3, #0
     9d4:	d054      	beq.n	a80 <lfs_bd_flush+0x108>
     9d6:	2301      	movs	r3, #1
     9d8:	4659      	mov	r1, fp
     9da:	425b      	negs	r3, r3
     9dc:	600b      	str	r3, [r1, #0]
     9de:	683b      	ldr	r3, [r7, #0]
     9e0:	469a      	mov	sl, r3
     9e2:	687b      	ldr	r3, [r7, #4]
     9e4:	9306      	str	r3, [sp, #24]
     9e6:	2c00      	cmp	r4, #0
     9e8:	d04a      	beq.n	a80 <lfs_bd_flush+0x108>
     9ea:	0025      	movs	r5, r4
     9ec:	2c08      	cmp	r4, #8
     9ee:	d900      	bls.n	9f2 <lfs_bd_flush+0x7a>
     9f0:	2508      	movs	r5, #8
     9f2:	2368      	movs	r3, #104	; 0x68
     9f4:	444b      	add	r3, r9
     9f6:	9307      	str	r3, [sp, #28]
     9f8:	6a13      	ldr	r3, [r2, #32]
     9fa:	459a      	cmp	sl, r3
     9fc:	d232      	bcs.n	a64 <lfs_bd_flush+0xec>
     9fe:	9806      	ldr	r0, [sp, #24]
     a00:	69d2      	ldr	r2, [r2, #28]
     a02:	1943      	adds	r3, r0, r5
     a04:	429a      	cmp	r2, r3
     a06:	d32d      	bcc.n	a64 <lfs_bd_flush+0xec>
     a08:	003a      	movs	r2, r7
     a0a:	0023      	movs	r3, r4
     a0c:	0027      	movs	r7, r4
     a0e:	2600      	movs	r6, #0
     a10:	4654      	mov	r4, sl
     a12:	4692      	mov	sl, r2
     a14:	e012      	b.n	a3c <lfs_bd_flush+0xc4>
     a16:	464b      	mov	r3, r9
     a18:	1976      	adds	r6, r6, r5
     a1a:	6e9a      	ldr	r2, [r3, #104]	; 0x68
     a1c:	42b7      	cmp	r7, r6
     a1e:	d92c      	bls.n	a7a <lfs_bd_flush+0x102>
     a20:	1bbb      	subs	r3, r7, r6
     a22:	001d      	movs	r5, r3
     a24:	2b08      	cmp	r3, #8
     a26:	d900      	bls.n	a2a <lfs_bd_flush+0xb2>
     a28:	2508      	movs	r5, #8
     a2a:	9906      	ldr	r1, [sp, #24]
     a2c:	1988      	adds	r0, r1, r6
     a2e:	6a11      	ldr	r1, [r2, #32]
     a30:	428c      	cmp	r4, r1
     a32:	d217      	bcs.n	a64 <lfs_bd_flush+0xec>
     a34:	69d2      	ldr	r2, [r2, #28]
     a36:	1829      	adds	r1, r5, r0
     a38:	4291      	cmp	r1, r2
     a3a:	d813      	bhi.n	a64 <lfs_bd_flush+0xec>
     a3c:	aa08      	add	r2, sp, #32
     a3e:	9202      	str	r2, [sp, #8]
     a40:	9001      	str	r0, [sp, #4]
     a42:	9503      	str	r5, [sp, #12]
     a44:	9400      	str	r4, [sp, #0]
     a46:	465a      	mov	r2, fp
     a48:	2100      	movs	r1, #0
     a4a:	9807      	ldr	r0, [sp, #28]
     a4c:	f7ff fba8 	bl	1a0 <lfs_bd_read.isra.21.part.22>
     a50:	2800      	cmp	r0, #0
     a52:	d11e      	bne.n	a92 <lfs_bd_flush+0x11a>
     a54:	9b05      	ldr	r3, [sp, #20]
     a56:	002a      	movs	r2, r5
     a58:	1999      	adds	r1, r3, r6
     a5a:	a808      	add	r0, sp, #32
     a5c:	f7ff fffe 	bl	0 <memcmp>
     a60:	2800      	cmp	r0, #0
     a62:	d0d8      	beq.n	a16 <lfs_bd_flush+0x9e>
     a64:	2354      	movs	r3, #84	; 0x54
     a66:	425b      	negs	r3, r3
     a68:	4698      	mov	r8, r3
     a6a:	4640      	mov	r0, r8
     a6c:	b00b      	add	sp, #44	; 0x2c
     a6e:	bc3c      	pop	{r2, r3, r4, r5}
     a70:	4690      	mov	r8, r2
     a72:	4699      	mov	r9, r3
     a74:	46a2      	mov	sl, r4
     a76:	46ab      	mov	fp, r5
     a78:	bdf0      	pop	{r4, r5, r6, r7, pc}
     a7a:	4657      	mov	r7, sl
     a7c:	68fb      	ldr	r3, [r7, #12]
     a7e:	9305      	str	r3, [sp, #20]
     a80:	6a92      	ldr	r2, [r2, #40]	; 0x28
     a82:	21ff      	movs	r1, #255	; 0xff
     a84:	9805      	ldr	r0, [sp, #20]
     a86:	f7ff fffe 	bl	0 <memset>
     a8a:	2301      	movs	r3, #1
     a8c:	425b      	negs	r3, r3
     a8e:	603b      	str	r3, [r7, #0]
     a90:	e7eb      	b.n	a6a <lfs_bd_flush+0xf2>
     a92:	2800      	cmp	r0, #0
     a94:	dae6      	bge.n	a64 <lfs_bd_flush+0xec>
     a96:	4680      	mov	r8, r0
     a98:	e7e7      	b.n	a6a <lfs_bd_flush+0xf2>
     a9a:	46c0      	nop			; (mov r8, r8)

00000a9c <lfs_bd_prog.constprop.34>:
     a9c:	b5f0      	push	{r4, r5, r6, r7, lr}
     a9e:	46de      	mov	lr, fp
     aa0:	4657      	mov	r7, sl
     aa2:	4646      	mov	r6, r8
     aa4:	b5c0      	push	{r6, r7, lr}
     aa6:	001e      	movs	r6, r3
     aa8:	9b0a      	ldr	r3, [sp, #40]	; 0x28
     aaa:	4682      	mov	sl, r0
     aac:	000c      	movs	r4, r1
     aae:	4693      	mov	fp, r2
     ab0:	9d08      	ldr	r5, [sp, #32]
     ab2:	2b00      	cmp	r3, #0
     ab4:	d03b      	beq.n	b2e <lfs_bd_prog.constprop.34+0x92>
     ab6:	6e83      	ldr	r3, [r0, #104]	; 0x68
     ab8:	2700      	movs	r7, #0
     aba:	4698      	mov	r8, r3
     abc:	680b      	ldr	r3, [r1, #0]
     abe:	e009      	b.n	ad4 <lfs_bd_prog.constprop.34+0x38>
     ac0:	4643      	mov	r3, r8
     ac2:	6026      	str	r6, [r4, #0]
     ac4:	6999      	ldr	r1, [r3, #24]
     ac6:	0028      	movs	r0, r5
     ac8:	f7ff fffe 	bl	0 <__aeabi_uidivmod>
     acc:	0033      	movs	r3, r6
     ace:	1a69      	subs	r1, r5, r1
     ad0:	6061      	str	r1, [r4, #4]
     ad2:	60a7      	str	r7, [r4, #8]
     ad4:	42b3      	cmp	r3, r6
     ad6:	d1f3      	bne.n	ac0 <lfs_bd_prog.constprop.34+0x24>
     ad8:	6860      	ldr	r0, [r4, #4]
     ada:	42a8      	cmp	r0, r5
     adc:	d8f0      	bhi.n	ac0 <lfs_bd_prog.constprop.34+0x24>
     ade:	4643      	mov	r3, r8
     ae0:	6a9b      	ldr	r3, [r3, #40]	; 0x28
     ae2:	18c3      	adds	r3, r0, r3
     ae4:	42ab      	cmp	r3, r5
     ae6:	d9eb      	bls.n	ac0 <lfs_bd_prog.constprop.34+0x24>
     ae8:	1b5b      	subs	r3, r3, r5
     aea:	4698      	mov	r8, r3
     aec:	9b0a      	ldr	r3, [sp, #40]	; 0x28
     aee:	4598      	cmp	r8, r3
     af0:	d833      	bhi.n	b5a <lfs_bd_prog.constprop.34+0xbe>
     af2:	68e3      	ldr	r3, [r4, #12]
     af4:	1a28      	subs	r0, r5, r0
     af6:	469c      	mov	ip, r3
     af8:	4642      	mov	r2, r8
     afa:	4460      	add	r0, ip
     afc:	9909      	ldr	r1, [sp, #36]	; 0x24
     afe:	f7ff fffe 	bl	0 <memcpy>
     b02:	4642      	mov	r2, r8
     b04:	9b09      	ldr	r3, [sp, #36]	; 0x24
     b06:	4445      	add	r5, r8
     b08:	4443      	add	r3, r8
     b0a:	9309      	str	r3, [sp, #36]	; 0x24
     b0c:	9b0a      	ldr	r3, [sp, #40]	; 0x28
     b0e:	1a9b      	subs	r3, r3, r2
     b10:	930a      	str	r3, [sp, #40]	; 0x28
     b12:	68a2      	ldr	r2, [r4, #8]
     b14:	6863      	ldr	r3, [r4, #4]
     b16:	1aeb      	subs	r3, r5, r3
     b18:	4293      	cmp	r3, r2
     b1a:	d30e      	bcc.n	b3a <lfs_bd_prog.constprop.34+0x9e>
     b1c:	4652      	mov	r2, sl
     b1e:	6e92      	ldr	r2, [r2, #104]	; 0x68
     b20:	60a3      	str	r3, [r4, #8]
     b22:	6a92      	ldr	r2, [r2, #40]	; 0x28
     b24:	4293      	cmp	r3, r2
     b26:	d00f      	beq.n	b48 <lfs_bd_prog.constprop.34+0xac>
     b28:	9b0a      	ldr	r3, [sp, #40]	; 0x28
     b2a:	2b00      	cmp	r3, #0
     b2c:	d117      	bne.n	b5e <lfs_bd_prog.constprop.34+0xc2>
     b2e:	2000      	movs	r0, #0
     b30:	bc1c      	pop	{r2, r3, r4}
     b32:	4690      	mov	r8, r2
     b34:	469a      	mov	sl, r3
     b36:	46a3      	mov	fp, r4
     b38:	bdf0      	pop	{r4, r5, r6, r7, pc}
     b3a:	0013      	movs	r3, r2
     b3c:	4652      	mov	r2, sl
     b3e:	6e92      	ldr	r2, [r2, #104]	; 0x68
     b40:	60a3      	str	r3, [r4, #8]
     b42:	6a92      	ldr	r2, [r2, #40]	; 0x28
     b44:	4293      	cmp	r3, r2
     b46:	d1ef      	bne.n	b28 <lfs_bd_prog.constprop.34+0x8c>
     b48:	2301      	movs	r3, #1
     b4a:	465a      	mov	r2, fp
     b4c:	0021      	movs	r1, r4
     b4e:	4650      	mov	r0, sl
     b50:	f7ff ff12 	bl	978 <lfs_bd_flush>
     b54:	2800      	cmp	r0, #0
     b56:	d1eb      	bne.n	b30 <lfs_bd_prog.constprop.34+0x94>
     b58:	e7e6      	b.n	b28 <lfs_bd_prog.constprop.34+0x8c>
     b5a:	4698      	mov	r8, r3
     b5c:	e7c9      	b.n	af2 <lfs_bd_prog.constprop.34+0x56>
     b5e:	4653      	mov	r3, sl
     b60:	6e9b      	ldr	r3, [r3, #104]	; 0x68
     b62:	4698      	mov	r8, r3
     b64:	6823      	ldr	r3, [r4, #0]
     b66:	e7b5      	b.n	ad4 <lfs_bd_prog.constprop.34+0x38>

00000b68 <lfs_dir_commitprog>:
     b68:	b5f0      	push	{r4, r5, r6, r7, lr}
     b6a:	46de      	mov	lr, fp
     b6c:	469b      	mov	fp, r3
     b6e:	4657      	mov	r7, sl
     b70:	464e      	mov	r6, r9
     b72:	4645      	mov	r5, r8
     b74:	680b      	ldr	r3, [r1, #0]
     b76:	b5e0      	push	{r5, r6, r7, lr}
     b78:	469a      	mov	sl, r3
     b7a:	465b      	mov	r3, fp
     b7c:	b089      	sub	sp, #36	; 0x24
     b7e:	0004      	movs	r4, r0
     b80:	000e      	movs	r6, r1
     b82:	9203      	str	r2, [sp, #12]
     b84:	684d      	ldr	r5, [r1, #4]
     b86:	2b00      	cmp	r3, #0
     b88:	d035      	beq.n	bf6 <lfs_dir_commitprog+0x8e>
     b8a:	4691      	mov	r9, r2
     b8c:	46d8      	mov	r8, fp
     b8e:	6ea7      	ldr	r7, [r4, #104]	; 0x68
     b90:	e009      	b.n	ba6 <lfs_dir_commitprog+0x3e>
     b92:	4653      	mov	r3, sl
     b94:	69b9      	ldr	r1, [r7, #24]
     b96:	6123      	str	r3, [r4, #16]
     b98:	0028      	movs	r0, r5
     b9a:	f7ff fffe 	bl	0 <__aeabi_uidivmod>
     b9e:	2300      	movs	r3, #0
     ba0:	1a69      	subs	r1, r5, r1
     ba2:	6161      	str	r1, [r4, #20]
     ba4:	61a3      	str	r3, [r4, #24]
     ba6:	6923      	ldr	r3, [r4, #16]
     ba8:	459a      	cmp	sl, r3
     baa:	d1f2      	bne.n	b92 <lfs_dir_commitprog+0x2a>
     bac:	6960      	ldr	r0, [r4, #20]
     bae:	42a8      	cmp	r0, r5
     bb0:	d8ef      	bhi.n	b92 <lfs_dir_commitprog+0x2a>
     bb2:	6abb      	ldr	r3, [r7, #40]	; 0x28
     bb4:	18c3      	adds	r3, r0, r3
     bb6:	42ab      	cmp	r3, r5
     bb8:	d9eb      	bls.n	b92 <lfs_dir_commitprog+0x2a>
     bba:	1b5f      	subs	r7, r3, r5
     bbc:	4547      	cmp	r7, r8
     bbe:	d857      	bhi.n	c70 <lfs_dir_commitprog+0x108>
     bc0:	69e3      	ldr	r3, [r4, #28]
     bc2:	1a28      	subs	r0, r5, r0
     bc4:	469c      	mov	ip, r3
     bc6:	4649      	mov	r1, r9
     bc8:	4460      	add	r0, ip
     bca:	003a      	movs	r2, r7
     bcc:	f7ff fffe 	bl	0 <memcpy>
     bd0:	4643      	mov	r3, r8
     bd2:	1bdb      	subs	r3, r3, r7
     bd4:	4698      	mov	r8, r3
     bd6:	69a1      	ldr	r1, [r4, #24]
     bd8:	6963      	ldr	r3, [r4, #20]
     bda:	19ed      	adds	r5, r5, r7
     bdc:	9304      	str	r3, [sp, #16]
     bde:	44b9      	add	r9, r7
     be0:	1aeb      	subs	r3, r5, r3
     be2:	4299      	cmp	r1, r3
     be4:	d318      	bcc.n	c18 <lfs_dir_commitprog+0xb0>
     be6:	6ea7      	ldr	r7, [r4, #104]	; 0x68
     be8:	61a1      	str	r1, [r4, #24]
     bea:	6abb      	ldr	r3, [r7, #40]	; 0x28
     bec:	4299      	cmp	r1, r3
     bee:	d019      	beq.n	c24 <lfs_dir_commitprog+0xbc>
     bf0:	4643      	mov	r3, r8
     bf2:	2b00      	cmp	r3, #0
     bf4:	d1cb      	bne.n	b8e <lfs_dir_commitprog+0x26>
     bf6:	465a      	mov	r2, fp
     bf8:	9903      	ldr	r1, [sp, #12]
     bfa:	68f0      	ldr	r0, [r6, #12]
     bfc:	f7ff fffe 	bl	0 <lfs_crc>
     c00:	60f0      	str	r0, [r6, #12]
     c02:	2000      	movs	r0, #0
     c04:	6873      	ldr	r3, [r6, #4]
     c06:	445b      	add	r3, fp
     c08:	6073      	str	r3, [r6, #4]
     c0a:	b009      	add	sp, #36	; 0x24
     c0c:	bc3c      	pop	{r2, r3, r4, r5}
     c0e:	4690      	mov	r8, r2
     c10:	4699      	mov	r9, r3
     c12:	46a2      	mov	sl, r4
     c14:	46ab      	mov	fp, r5
     c16:	bdf0      	pop	{r4, r5, r6, r7, pc}
     c18:	0019      	movs	r1, r3
     c1a:	6ea7      	ldr	r7, [r4, #104]	; 0x68
     c1c:	61a1      	str	r1, [r4, #24]
     c1e:	6abb      	ldr	r3, [r7, #40]	; 0x28
     c20:	4299      	cmp	r1, r3
     c22:	d1e5      	bne.n	bf0 <lfs_dir_commitprog+0x88>
     c24:	6923      	ldr	r3, [r4, #16]
     c26:	9305      	str	r3, [sp, #20]
     c28:	3302      	adds	r3, #2
     c2a:	2b01      	cmp	r3, #1
     c2c:	d9e0      	bls.n	bf0 <lfs_dir_commitprog+0x88>
     c2e:	69ba      	ldr	r2, [r7, #24]
     c30:	69e0      	ldr	r0, [r4, #28]
     c32:	1e53      	subs	r3, r2, #1
     c34:	185a      	adds	r2, r3, r1
     c36:	9007      	str	r0, [sp, #28]
     c38:	69b9      	ldr	r1, [r7, #24]
     c3a:	0010      	movs	r0, r2
     c3c:	9206      	str	r2, [sp, #24]
     c3e:	f7ff fffe 	bl	0 <__aeabi_uidivmod>
     c42:	9a06      	ldr	r2, [sp, #24]
     c44:	0038      	movs	r0, r7
     c46:	1a51      	subs	r1, r2, r1
     c48:	9100      	str	r1, [sp, #0]
     c4a:	68ba      	ldr	r2, [r7, #8]
     c4c:	9b07      	ldr	r3, [sp, #28]
     c4e:	9206      	str	r2, [sp, #24]
     c50:	9905      	ldr	r1, [sp, #20]
     c52:	9a04      	ldr	r2, [sp, #16]
     c54:	9f06      	ldr	r7, [sp, #24]
     c56:	47b8      	blx	r7
     c58:	2800      	cmp	r0, #0
     c5a:	d1d6      	bne.n	c0a <lfs_dir_commitprog+0xa2>
     c5c:	6ea3      	ldr	r3, [r4, #104]	; 0x68
     c5e:	21ff      	movs	r1, #255	; 0xff
     c60:	6a9a      	ldr	r2, [r3, #40]	; 0x28
     c62:	69e0      	ldr	r0, [r4, #28]
     c64:	f7ff fffe 	bl	0 <memset>
     c68:	2301      	movs	r3, #1
     c6a:	425b      	negs	r3, r3
     c6c:	6123      	str	r3, [r4, #16]
     c6e:	e7bf      	b.n	bf0 <lfs_dir_commitprog+0x88>
     c70:	4647      	mov	r7, r8
     c72:	e7a5      	b.n	bc0 <lfs_dir_commitprog+0x58>

00000c74 <lfs_dir_commitattr>:
     c74:	b5f0      	push	{r4, r5, r6, r7, lr}
     c76:	4657      	mov	r7, sl
     c78:	464e      	mov	r6, r9
     c7a:	4645      	mov	r5, r8
     c7c:	46de      	mov	lr, fp
     c7e:	469a      	mov	sl, r3
     c80:	0593      	lsls	r3, r2, #22
     c82:	159b      	asrs	r3, r3, #22
     c84:	3301      	adds	r3, #1
     c86:	b5e0      	push	{r5, r6, r7, lr}
     c88:	0015      	movs	r5, r2
     c8a:	425a      	negs	r2, r3
     c8c:	4153      	adcs	r3, r2
     c8e:	195b      	adds	r3, r3, r5
     c90:	059b      	lsls	r3, r3, #22
     c92:	0d9f      	lsrs	r7, r3, #22
     c94:	46bc      	mov	ip, r7
     c96:	684b      	ldr	r3, [r1, #4]
     c98:	694a      	ldr	r2, [r1, #20]
     c9a:	3304      	adds	r3, #4
     c9c:	b08d      	sub	sp, #52	; 0x34
     c9e:	4463      	add	r3, ip
     ca0:	0004      	movs	r4, r0
     ca2:	000e      	movs	r6, r1
     ca4:	9707      	str	r7, [sp, #28]
     ca6:	4293      	cmp	r3, r2
     ca8:	d900      	bls.n	cac <lfs_dir_commitattr+0x38>
     caa:	e0ce      	b.n	e4a <lfs_dir_commitattr+0x1d6>
     cac:	006b      	lsls	r3, r5, #1
     cae:	085b      	lsrs	r3, r3, #1
     cb0:	001a      	movs	r2, r3
     cb2:	9309      	str	r3, [sp, #36]	; 0x24
     cb4:	688b      	ldr	r3, [r1, #8]
     cb6:	4053      	eors	r3, r2
     cb8:	ba1b      	rev	r3, r3
     cba:	930b      	str	r3, [sp, #44]	; 0x2c
     cbc:	aa0b      	add	r2, sp, #44	; 0x2c
     cbe:	2304      	movs	r3, #4
     cc0:	f7ff ff52 	bl	b68 <lfs_dir_commitprog>
     cc4:	9008      	str	r0, [sp, #32]
     cc6:	2800      	cmp	r0, #0
     cc8:	d000      	beq.n	ccc <lfs_dir_commitattr+0x58>
     cca:	e089      	b.n	de0 <lfs_dir_commitattr+0x16c>
     ccc:	2d00      	cmp	r5, #0
     cce:	db00      	blt.n	cd2 <lfs_dir_commitattr+0x5e>
     cd0:	e08e      	b.n	df0 <lfs_dir_commitattr+0x17c>
     cd2:	9d07      	ldr	r5, [sp, #28]
     cd4:	2d00      	cmp	r5, #0
     cd6:	d100      	bne.n	cda <lfs_dir_commitattr+0x66>
     cd8:	e092      	b.n	e00 <lfs_dir_commitattr+0x18c>
     cda:	2268      	movs	r2, #104	; 0x68
     cdc:	4694      	mov	ip, r2
     cde:	44a4      	add	ip, r4
     ce0:	4653      	mov	r3, sl
     ce2:	4662      	mov	r2, ip
     ce4:	6ea0      	ldr	r0, [r4, #104]	; 0x68
     ce6:	6819      	ldr	r1, [r3, #0]
     ce8:	9206      	str	r2, [sp, #24]
     cea:	6a02      	ldr	r2, [r0, #32]
     cec:	685b      	ldr	r3, [r3, #4]
     cee:	4291      	cmp	r1, r2
     cf0:	d273      	bcs.n	dda <lfs_dir_commitattr+0x166>
     cf2:	69c0      	ldr	r0, [r0, #28]
     cf4:	1c5a      	adds	r2, r3, #1
     cf6:	4290      	cmp	r0, r2
     cf8:	d36f      	bcc.n	dda <lfs_dir_commitattr+0x166>
     cfa:	46ab      	mov	fp, r5
     cfc:	2201      	movs	r2, #1
     cfe:	a806      	add	r0, sp, #24
     d00:	4684      	mov	ip, r0
     d02:	9203      	str	r2, [sp, #12]
     d04:	3212      	adds	r2, #18
     d06:	4462      	add	r2, ip
     d08:	9202      	str	r2, [sp, #8]
     d0a:	9301      	str	r3, [sp, #4]
     d0c:	9100      	str	r1, [sp, #0]
     d0e:	465b      	mov	r3, fp
     d10:	0022      	movs	r2, r4
     d12:	2100      	movs	r1, #0
     d14:	9806      	ldr	r0, [sp, #24]
     d16:	f7ff fa43 	bl	1a0 <lfs_bd_read.isra.21.part.22>
     d1a:	2800      	cmp	r0, #0
     d1c:	d15f      	bne.n	dde <lfs_dir_commitattr+0x16a>
     d1e:	6ea2      	ldr	r2, [r4, #104]	; 0x68
     d20:	6837      	ldr	r7, [r6, #0]
     d22:	4691      	mov	r9, r2
     d24:	6a92      	ldr	r2, [r2, #40]	; 0x28
     d26:	6875      	ldr	r5, [r6, #4]
     d28:	4690      	mov	r8, r2
     d2a:	69e2      	ldr	r2, [r4, #28]
     d2c:	6923      	ldr	r3, [r4, #16]
     d2e:	9205      	str	r2, [sp, #20]
     d30:	e00a      	b.n	d48 <lfs_dir_commitattr+0xd4>
     d32:	464b      	mov	r3, r9
     d34:	6127      	str	r7, [r4, #16]
     d36:	6999      	ldr	r1, [r3, #24]
     d38:	0028      	movs	r0, r5
     d3a:	f7ff fffe 	bl	0 <__aeabi_uidivmod>
     d3e:	2300      	movs	r3, #0
     d40:	61a3      	str	r3, [r4, #24]
     d42:	003b      	movs	r3, r7
     d44:	1a69      	subs	r1, r5, r1
     d46:	6161      	str	r1, [r4, #20]
     d48:	429f      	cmp	r7, r3
     d4a:	d1f2      	bne.n	d32 <lfs_dir_commitattr+0xbe>
     d4c:	6960      	ldr	r0, [r4, #20]
     d4e:	4285      	cmp	r5, r0
     d50:	d3ef      	bcc.n	d32 <lfs_dir_commitattr+0xbe>
     d52:	4643      	mov	r3, r8
     d54:	18c1      	adds	r1, r0, r3
     d56:	428d      	cmp	r5, r1
     d58:	d2eb      	bcs.n	d32 <lfs_dir_commitattr+0xbe>
     d5a:	1b4f      	subs	r7, r1, r5
     d5c:	d000      	beq.n	d60 <lfs_dir_commitattr+0xec>
     d5e:	2701      	movs	r7, #1
     d60:	9b05      	ldr	r3, [sp, #20]
     d62:	1a28      	subs	r0, r5, r0
     d64:	469c      	mov	ip, r3
     d66:	a906      	add	r1, sp, #24
     d68:	4460      	add	r0, ip
     d6a:	2313      	movs	r3, #19
     d6c:	468c      	mov	ip, r1
     d6e:	4463      	add	r3, ip
     d70:	0019      	movs	r1, r3
     d72:	003a      	movs	r2, r7
     d74:	f7ff fffe 	bl	0 <memcpy>
     d78:	6963      	ldr	r3, [r4, #20]
     d7a:	1aed      	subs	r5, r5, r3
     d7c:	4698      	mov	r8, r3
     d7e:	69a3      	ldr	r3, [r4, #24]
     d80:	19ed      	adds	r5, r5, r7
     d82:	429d      	cmp	r5, r3
     d84:	d200      	bcs.n	d88 <lfs_dir_commitattr+0x114>
     d86:	001d      	movs	r5, r3
     d88:	6ea7      	ldr	r7, [r4, #104]	; 0x68
     d8a:	61a5      	str	r5, [r4, #24]
     d8c:	6abb      	ldr	r3, [r7, #40]	; 0x28
     d8e:	429d      	cmp	r5, r3
     d90:	d039      	beq.n	e06 <lfs_dir_commitattr+0x192>
     d92:	a906      	add	r1, sp, #24
     d94:	468c      	mov	ip, r1
     d96:	2313      	movs	r3, #19
     d98:	4463      	add	r3, ip
     d9a:	2201      	movs	r2, #1
     d9c:	0019      	movs	r1, r3
     d9e:	68f0      	ldr	r0, [r6, #12]
     da0:	f7ff fffe 	bl	0 <lfs_crc>
     da4:	465a      	mov	r2, fp
     da6:	6873      	ldr	r3, [r6, #4]
     da8:	60f0      	str	r0, [r6, #12]
     daa:	3301      	adds	r3, #1
     dac:	6073      	str	r3, [r6, #4]
     dae:	9b07      	ldr	r3, [sp, #28]
     db0:	3301      	adds	r3, #1
     db2:	1a9b      	subs	r3, r3, r2
     db4:	2a01      	cmp	r2, #1
     db6:	d023      	beq.n	e00 <lfs_dir_commitattr+0x18c>
     db8:	4652      	mov	r2, sl
     dba:	6811      	ldr	r1, [r2, #0]
     dbc:	6852      	ldr	r2, [r2, #4]
     dbe:	6ea0      	ldr	r0, [r4, #104]	; 0x68
     dc0:	4694      	mov	ip, r2
     dc2:	6a02      	ldr	r2, [r0, #32]
     dc4:	4463      	add	r3, ip
     dc6:	4291      	cmp	r1, r2
     dc8:	d207      	bcs.n	dda <lfs_dir_commitattr+0x166>
     dca:	2201      	movs	r2, #1
     dcc:	4252      	negs	r2, r2
     dce:	4694      	mov	ip, r2
     dd0:	69c0      	ldr	r0, [r0, #28]
     dd2:	1c5a      	adds	r2, r3, #1
     dd4:	44e3      	add	fp, ip
     dd6:	4282      	cmp	r2, r0
     dd8:	d990      	bls.n	cfc <lfs_dir_commitattr+0x88>
     dda:	2054      	movs	r0, #84	; 0x54
     ddc:	4240      	negs	r0, r0
     dde:	9008      	str	r0, [sp, #32]
     de0:	9808      	ldr	r0, [sp, #32]
     de2:	b00d      	add	sp, #52	; 0x34
     de4:	bc3c      	pop	{r2, r3, r4, r5}
     de6:	4690      	mov	r8, r2
     de8:	4699      	mov	r9, r3
     dea:	46a2      	mov	sl, r4
     dec:	46ab      	mov	fp, r5
     dee:	bdf0      	pop	{r4, r5, r6, r7, pc}
     df0:	003b      	movs	r3, r7
     df2:	4652      	mov	r2, sl
     df4:	0031      	movs	r1, r6
     df6:	0020      	movs	r0, r4
     df8:	f7ff feb6 	bl	b68 <lfs_dir_commitprog>
     dfc:	2800      	cmp	r0, #0
     dfe:	d1ee      	bne.n	dde <lfs_dir_commitattr+0x16a>
     e00:	9b09      	ldr	r3, [sp, #36]	; 0x24
     e02:	60b3      	str	r3, [r6, #8]
     e04:	e7ec      	b.n	de0 <lfs_dir_commitattr+0x16c>
     e06:	6923      	ldr	r3, [r4, #16]
     e08:	4699      	mov	r9, r3
     e0a:	3302      	adds	r3, #2
     e0c:	2b01      	cmp	r3, #1
     e0e:	d9c0      	bls.n	d92 <lfs_dir_commitattr+0x11e>
     e10:	69bb      	ldr	r3, [r7, #24]
     e12:	1e59      	subs	r1, r3, #1
     e14:	194d      	adds	r5, r1, r5
     e16:	69e3      	ldr	r3, [r4, #28]
     e18:	69b9      	ldr	r1, [r7, #24]
     e1a:	0028      	movs	r0, r5
     e1c:	9305      	str	r3, [sp, #20]
     e1e:	f7ff fffe 	bl	0 <__aeabi_uidivmod>
     e22:	1a6d      	subs	r5, r5, r1
     e24:	9500      	str	r5, [sp, #0]
     e26:	68bd      	ldr	r5, [r7, #8]
     e28:	9b05      	ldr	r3, [sp, #20]
     e2a:	4642      	mov	r2, r8
     e2c:	4649      	mov	r1, r9
     e2e:	0038      	movs	r0, r7
     e30:	47a8      	blx	r5
     e32:	2800      	cmp	r0, #0
     e34:	d1d3      	bne.n	dde <lfs_dir_commitattr+0x16a>
     e36:	6ea3      	ldr	r3, [r4, #104]	; 0x68
     e38:	21ff      	movs	r1, #255	; 0xff
     e3a:	6a9a      	ldr	r2, [r3, #40]	; 0x28
     e3c:	69e0      	ldr	r0, [r4, #28]
     e3e:	f7ff fffe 	bl	0 <memset>
     e42:	2301      	movs	r3, #1
     e44:	425b      	negs	r3, r3
     e46:	6123      	str	r3, [r4, #16]
     e48:	e7a3      	b.n	d92 <lfs_dir_commitattr+0x11e>
     e4a:	231c      	movs	r3, #28
     e4c:	425b      	negs	r3, r3
     e4e:	9308      	str	r3, [sp, #32]
     e50:	e7c6      	b.n	de0 <lfs_dir_commitattr+0x16c>
     e52:	46c0      	nop			; (mov r8, r8)

00000e54 <lfs_dir_commit_commit>:
     e54:	b510      	push	{r4, lr}
     e56:	000c      	movs	r4, r1
     e58:	0013      	movs	r3, r2
     e5a:	6841      	ldr	r1, [r0, #4]
     e5c:	0022      	movs	r2, r4
     e5e:	6800      	ldr	r0, [r0, #0]
     e60:	f7ff ff08 	bl	c74 <lfs_dir_commitattr>
     e64:	bd10      	pop	{r4, pc}
     e66:	46c0      	nop			; (mov r8, r8)

00000e68 <lfs_dir_fetchmatch>:
     e68:	b5f0      	push	{r4, r5, r6, r7, lr}
     e6a:	46de      	mov	lr, fp
     e6c:	464e      	mov	r6, r9
     e6e:	4645      	mov	r5, r8
     e70:	4657      	mov	r7, sl
     e72:	b5e0      	push	{r5, r6, r7, lr}
     e74:	0014      	movs	r4, r2
     e76:	6815      	ldr	r5, [r2, #0]
     e78:	6e82      	ldr	r2, [r0, #104]	; 0x68
     e7a:	468b      	mov	fp, r1
     e7c:	6a11      	ldr	r1, [r2, #32]
     e7e:	b099      	sub	sp, #100	; 0x64
     e80:	0006      	movs	r6, r0
     e82:	9309      	str	r3, [sp, #36]	; 0x24
     e84:	428d      	cmp	r5, r1
     e86:	d300      	bcc.n	e8a <lfs_dir_fetchmatch+0x22>
     e88:	e288      	b.n	139c <lfs_dir_fetchmatch+0x534>
     e8a:	6863      	ldr	r3, [r4, #4]
     e8c:	4299      	cmp	r1, r3
     e8e:	d800      	bhi.n	e92 <lfs_dir_fetchmatch+0x2a>
     e90:	e284      	b.n	139c <lfs_dir_fetchmatch+0x534>
     e92:	2100      	movs	r1, #0
     e94:	2000      	movs	r0, #0
     e96:	9012      	str	r0, [sp, #72]	; 0x48
     e98:	9113      	str	r1, [sp, #76]	; 0x4c
     e9a:	2168      	movs	r1, #104	; 0x68
     e9c:	468a      	mov	sl, r1
     e9e:	69d2      	ldr	r2, [r2, #28]
     ea0:	44b2      	add	sl, r6
     ea2:	2a03      	cmp	r2, #3
     ea4:	d800      	bhi.n	ea8 <lfs_dir_fetchmatch+0x40>
     ea6:	e28e      	b.n	13c6 <lfs_dir_fetchmatch+0x55e>
     ea8:	2304      	movs	r3, #4
     eaa:	9303      	str	r3, [sp, #12]
     eac:	ab12      	add	r3, sp, #72	; 0x48
     eae:	9307      	str	r3, [sp, #28]
     eb0:	9302      	str	r3, [sp, #8]
     eb2:	2300      	movs	r3, #0
     eb4:	9500      	str	r5, [sp, #0]
     eb6:	9301      	str	r3, [sp, #4]
     eb8:	0032      	movs	r2, r6
     eba:	3304      	adds	r3, #4
     ebc:	2100      	movs	r1, #0
     ebe:	4650      	mov	r0, sl
     ec0:	f7ff f96e 	bl	1a0 <lfs_bd_read.isra.21.part.22>
     ec4:	1e07      	subs	r7, r0, #0
     ec6:	d000      	beq.n	eca <lfs_dir_fetchmatch+0x62>
     ec8:	e18d      	b.n	11e6 <lfs_dir_fetchmatch+0x37e>
     eca:	6863      	ldr	r3, [r4, #4]
     ecc:	6eb2      	ldr	r2, [r6, #104]	; 0x68
     ece:	6a11      	ldr	r1, [r2, #32]
     ed0:	428b      	cmp	r3, r1
     ed2:	d300      	bcc.n	ed6 <lfs_dir_fetchmatch+0x6e>
     ed4:	e18f      	b.n	11f6 <lfs_dir_fetchmatch+0x38e>
     ed6:	69d2      	ldr	r2, [r2, #28]
     ed8:	2a03      	cmp	r2, #3
     eda:	d800      	bhi.n	ede <lfs_dir_fetchmatch+0x76>
     edc:	e18b      	b.n	11f6 <lfs_dir_fetchmatch+0x38e>
     ede:	2204      	movs	r2, #4
     ee0:	9203      	str	r2, [sp, #12]
     ee2:	aa13      	add	r2, sp, #76	; 0x4c
     ee4:	9202      	str	r2, [sp, #8]
     ee6:	2200      	movs	r2, #0
     ee8:	9300      	str	r3, [sp, #0]
     eea:	9201      	str	r2, [sp, #4]
     eec:	2304      	movs	r3, #4
     eee:	0032      	movs	r2, r6
     ef0:	2100      	movs	r1, #0
     ef2:	4650      	mov	r0, sl
     ef4:	f7ff f954 	bl	1a0 <lfs_bd_read.isra.21.part.22>
     ef8:	1e07      	subs	r7, r0, #0
     efa:	d000      	beq.n	efe <lfs_dir_fetchmatch+0x96>
     efc:	e178      	b.n	11f0 <lfs_dir_fetchmatch+0x388>
     efe:	9b07      	ldr	r3, [sp, #28]
     f00:	9a12      	ldr	r2, [sp, #72]	; 0x48
     f02:	685b      	ldr	r3, [r3, #4]
     f04:	1a9a      	subs	r2, r3, r2
     f06:	9304      	str	r3, [sp, #16]
     f08:	17d3      	asrs	r3, r2, #31
     f0a:	1a9b      	subs	r3, r3, r2
     f0c:	0fdb      	lsrs	r3, r3, #31
     f0e:	4659      	mov	r1, fp
     f10:	009a      	lsls	r2, r3, #2
     f12:	5910      	ldr	r0, [r2, r4]
     f14:	6008      	str	r0, [r1, #0]
     f16:	2101      	movs	r1, #1
     f18:	404b      	eors	r3, r1
     f1a:	4659      	mov	r1, fp
     f1c:	009b      	lsls	r3, r3, #2
     f1e:	930c      	str	r3, [sp, #48]	; 0x30
     f20:	58e3      	ldr	r3, [r4, r3]
     f22:	604b      	str	r3, [r1, #4]
     f24:	465b      	mov	r3, fp
     f26:	9907      	ldr	r1, [sp, #28]
     f28:	588a      	ldr	r2, [r1, r2]
     f2a:	609a      	str	r2, [r3, #8]
     f2c:	465a      	mov	r2, fp
     f2e:	2300      	movs	r3, #0
     f30:	60d3      	str	r3, [r2, #12]
     f32:	3308      	adds	r3, #8
     f34:	445b      	add	r3, fp
     f36:	930b      	str	r3, [sp, #44]	; 0x2c
     f38:	2302      	movs	r3, #2
     f3a:	46d3      	mov	fp, sl
     f3c:	4692      	mov	sl, r2
     f3e:	9308      	str	r3, [sp, #32]
     f40:	3b03      	subs	r3, #3
     f42:	930a      	str	r3, [sp, #40]	; 0x28
     f44:	4ac7      	ldr	r2, [pc, #796]	; (1264 <lfs_dir_fetchmatch+0x3fc>)
     f46:	ab14      	add	r3, sp, #80	; 0x50
     f48:	ca03      	ldmia	r2!, {r0, r1}
     f4a:	c303      	stmia	r3!, {r0, r1}
     f4c:	2001      	movs	r0, #1
     f4e:	2204      	movs	r2, #4
     f50:	990b      	ldr	r1, [sp, #44]	; 0x2c
     f52:	4240      	negs	r0, r0
     f54:	f7ff fffe 	bl	0 <lfs_crc>
     f58:	4653      	mov	r3, sl
     f5a:	681a      	ldr	r2, [r3, #0]
     f5c:	9b0a      	ldr	r3, [sp, #40]	; 0x28
     f5e:	2401      	movs	r4, #1
     f60:	9306      	str	r3, [sp, #24]
     f62:	2300      	movs	r3, #0
     f64:	4699      	mov	r9, r3
     f66:	900f      	str	r0, [sp, #60]	; 0x3c
     f68:	930d      	str	r3, [sp, #52]	; 0x34
     f6a:	9305      	str	r3, [sp, #20]
     f6c:	4264      	negs	r4, r4
     f6e:	05a3      	lsls	r3, r4, #22
     f70:	159b      	asrs	r3, r3, #22
     f72:	3301      	adds	r3, #1
     f74:	4259      	negs	r1, r3
     f76:	414b      	adcs	r3, r1
     f78:	191b      	adds	r3, r3, r4
     f7a:	059b      	lsls	r3, r3, #22
     f7c:	6eb1      	ldr	r1, [r6, #104]	; 0x68
     f7e:	0d9b      	lsrs	r3, r3, #22
     f80:	3304      	adds	r3, #4
     f82:	4499      	add	r9, r3
     f84:	69cb      	ldr	r3, [r1, #28]
     f86:	6a09      	ldr	r1, [r1, #32]
     f88:	4291      	cmp	r1, r2
     f8a:	d800      	bhi.n	f8e <lfs_dir_fetchmatch+0x126>
     f8c:	e0c9      	b.n	1122 <lfs_dir_fetchmatch+0x2ba>
     f8e:	4649      	mov	r1, r9
     f90:	3104      	adds	r1, #4
     f92:	9104      	str	r1, [sp, #16]
     f94:	428b      	cmp	r3, r1
     f96:	d200      	bcs.n	f9a <lfs_dir_fetchmatch+0x132>
     f98:	e0c3      	b.n	1122 <lfs_dir_fetchmatch+0x2ba>
     f9a:	2104      	movs	r1, #4
     f9c:	9103      	str	r1, [sp, #12]
     f9e:	a910      	add	r1, sp, #64	; 0x40
     fa0:	9102      	str	r1, [sp, #8]
     fa2:	4649      	mov	r1, r9
     fa4:	9200      	str	r2, [sp, #0]
     fa6:	9101      	str	r1, [sp, #4]
     fa8:	0032      	movs	r2, r6
     faa:	2100      	movs	r1, #0
     fac:	4658      	mov	r0, fp
     fae:	f7ff f8f7 	bl	1a0 <lfs_bd_read.isra.21.part.22>
     fb2:	1e07      	subs	r7, r0, #0
     fb4:	d000      	beq.n	fb8 <lfs_dir_fetchmatch+0x150>
     fb6:	e226      	b.n	1406 <lfs_dir_fetchmatch+0x59e>
     fb8:	2204      	movs	r2, #4
     fba:	a910      	add	r1, sp, #64	; 0x40
     fbc:	980f      	ldr	r0, [sp, #60]	; 0x3c
     fbe:	f7ff fffe 	bl	0 <lfs_crc>
     fc2:	9b10      	ldr	r3, [sp, #64]	; 0x40
     fc4:	900f      	str	r0, [sp, #60]	; 0x3c
     fc6:	ba1b      	rev	r3, r3
     fc8:	4063      	eors	r3, r4
     fca:	4698      	mov	r8, r3
     fcc:	9310      	str	r3, [sp, #64]	; 0x40
     fce:	d500      	bpl.n	fd2 <lfs_dir_fetchmatch+0x16a>
     fd0:	e190      	b.n	12f4 <lfs_dir_fetchmatch+0x48c>
     fd2:	0599      	lsls	r1, r3, #22
     fd4:	1589      	asrs	r1, r1, #22
     fd6:	3101      	adds	r1, #1
     fd8:	424b      	negs	r3, r1
     fda:	4159      	adcs	r1, r3
     fdc:	464a      	mov	r2, r9
     fde:	4441      	add	r1, r8
     fe0:	0589      	lsls	r1, r1, #22
     fe2:	6eb5      	ldr	r5, [r6, #104]	; 0x68
     fe4:	0d89      	lsrs	r1, r1, #22
     fe6:	3104      	adds	r1, #4
     fe8:	69eb      	ldr	r3, [r5, #28]
     fea:	188a      	adds	r2, r1, r2
     fec:	429a      	cmp	r2, r3
     fee:	d900      	bls.n	ff2 <lfs_dir_fetchmatch+0x18a>
     ff0:	e196      	b.n	1320 <lfs_dir_fetchmatch+0x4b8>
     ff2:	4642      	mov	r2, r8
     ff4:	20e0      	movs	r0, #224	; 0xe0
     ff6:	0d14      	lsrs	r4, r2, #20
     ff8:	27a0      	movs	r7, #160	; 0xa0
     ffa:	4652      	mov	r2, sl
     ffc:	00c0      	lsls	r0, r0, #3
     ffe:	4020      	ands	r0, r4
    1000:	6812      	ldr	r2, [r2, #0]
    1002:	00ff      	lsls	r7, r7, #3
    1004:	42b8      	cmp	r0, r7
    1006:	d071      	beq.n	10ec <lfs_dir_fetchmatch+0x284>
    1008:	2904      	cmp	r1, #4
    100a:	d100      	bne.n	100e <lfs_dir_fetchmatch+0x1a6>
    100c:	e170      	b.n	12f0 <lfs_dir_fetchmatch+0x488>
    100e:	6a29      	ldr	r1, [r5, #32]
    1010:	4291      	cmp	r1, r2
    1012:	d800      	bhi.n	1016 <lfs_dir_fetchmatch+0x1ae>
    1014:	e188      	b.n	1328 <lfs_dir_fetchmatch+0x4c0>
    1016:	4649      	mov	r1, r9
    1018:	3105      	adds	r1, #5
    101a:	428b      	cmp	r3, r1
    101c:	d200      	bcs.n	1020 <lfs_dir_fetchmatch+0x1b8>
    101e:	e183      	b.n	1328 <lfs_dir_fetchmatch+0x4c0>
    1020:	2101      	movs	r1, #1
    1022:	4648      	mov	r0, r9
    1024:	1a09      	subs	r1, r1, r0
    1026:	465f      	mov	r7, fp
    1028:	9c04      	ldr	r4, [sp, #16]
    102a:	ad11      	add	r5, sp, #68	; 0x44
    102c:	468b      	mov	fp, r1
    102e:	e00d      	b.n	104c <lfs_dir_fetchmatch+0x1e4>
    1030:	4652      	mov	r2, sl
    1032:	6eb0      	ldr	r0, [r6, #104]	; 0x68
    1034:	6812      	ldr	r2, [r2, #0]
    1036:	69c3      	ldr	r3, [r0, #28]
    1038:	6a00      	ldr	r0, [r0, #32]
    103a:	4282      	cmp	r2, r0
    103c:	d300      	bcc.n	1040 <lfs_dir_fetchmatch+0x1d8>
    103e:	e10a      	b.n	1256 <lfs_dir_fetchmatch+0x3ee>
    1040:	1c60      	adds	r0, r4, #1
    1042:	3402      	adds	r4, #2
    1044:	42a3      	cmp	r3, r4
    1046:	d200      	bcs.n	104a <lfs_dir_fetchmatch+0x1e2>
    1048:	e105      	b.n	1256 <lfs_dir_fetchmatch+0x3ee>
    104a:	0004      	movs	r4, r0
    104c:	2101      	movs	r1, #1
    104e:	9200      	str	r2, [sp, #0]
    1050:	9103      	str	r1, [sp, #12]
    1052:	9502      	str	r5, [sp, #8]
    1054:	9401      	str	r4, [sp, #4]
    1056:	0032      	movs	r2, r6
    1058:	2100      	movs	r1, #0
    105a:	0038      	movs	r0, r7
    105c:	f7ff f8a0 	bl	1a0 <lfs_bd_read.isra.21.part.22>
    1060:	2800      	cmp	r0, #0
    1062:	d000      	beq.n	1066 <lfs_dir_fetchmatch+0x1fe>
    1064:	e0af      	b.n	11c6 <lfs_dir_fetchmatch+0x35e>
    1066:	2201      	movs	r2, #1
    1068:	0029      	movs	r1, r5
    106a:	980f      	ldr	r0, [sp, #60]	; 0x3c
    106c:	f7ff fffe 	bl	0 <lfs_crc>
    1070:	9910      	ldr	r1, [sp, #64]	; 0x40
    1072:	900f      	str	r0, [sp, #60]	; 0x3c
    1074:	058b      	lsls	r3, r1, #22
    1076:	159b      	asrs	r3, r3, #22
    1078:	3301      	adds	r3, #1
    107a:	425a      	negs	r2, r3
    107c:	4153      	adcs	r3, r2
    107e:	465a      	mov	r2, fp
    1080:	185b      	adds	r3, r3, r1
    1082:	059b      	lsls	r3, r3, #22
    1084:	0d9b      	lsrs	r3, r3, #22
    1086:	3304      	adds	r3, #4
    1088:	1912      	adds	r2, r2, r4
    108a:	4293      	cmp	r3, r2
    108c:	d8d0      	bhi.n	1030 <lfs_dir_fetchmatch+0x1c8>
    108e:	4653      	mov	r3, sl
    1090:	20e0      	movs	r0, #224	; 0xe0
    1092:	46bb      	mov	fp, r7
    1094:	0d0c      	lsrs	r4, r1, #20
    1096:	00c0      	lsls	r0, r0, #3
    1098:	681a      	ldr	r2, [r3, #0]
    109a:	4020      	ands	r0, r4
    109c:	2800      	cmp	r0, #0
    109e:	d169      	bne.n	1174 <lfs_dir_fetchmatch+0x30c>
    10a0:	9805      	ldr	r0, [sp, #20]
    10a2:	030b      	lsls	r3, r1, #12
    10a4:	0d9b      	lsrs	r3, r3, #22
    10a6:	4298      	cmp	r0, r3
    10a8:	d801      	bhi.n	10ae <lfs_dir_fetchmatch+0x246>
    10aa:	3301      	adds	r3, #1
    10ac:	9305      	str	r3, [sp, #20]
    10ae:	9c22      	ldr	r4, [sp, #136]	; 0x88
    10b0:	9b09      	ldr	r3, [sp, #36]	; 0x24
    10b2:	404c      	eors	r4, r1
    10b4:	401c      	ands	r4, r3
    10b6:	d117      	bne.n	10e8 <lfs_dir_fetchmatch+0x280>
    10b8:	9b04      	ldr	r3, [sp, #16]
    10ba:	9216      	str	r2, [sp, #88]	; 0x58
    10bc:	9317      	str	r3, [sp, #92]	; 0x5c
    10be:	aa16      	add	r2, sp, #88	; 0x58
    10c0:	9825      	ldr	r0, [sp, #148]	; 0x94
    10c2:	9b24      	ldr	r3, [sp, #144]	; 0x90
    10c4:	4798      	blx	r3
    10c6:	1e07      	subs	r7, r0, #0
    10c8:	da00      	bge.n	10cc <lfs_dir_fetchmatch+0x264>
    10ca:	e15f      	b.n	138c <lfs_dir_fetchmatch+0x524>
    10cc:	4652      	mov	r2, sl
    10ce:	9b10      	ldr	r3, [sp, #64]	; 0x40
    10d0:	6812      	ldr	r2, [r2, #0]
    10d2:	2800      	cmp	r0, #0
    10d4:	d007      	beq.n	10e6 <lfs_dir_fetchmatch+0x27e>
    10d6:	9906      	ldr	r1, [sp, #24]
    10d8:	4863      	ldr	r0, [pc, #396]	; (1268 <lfs_dir_fetchmatch+0x400>)
    10da:	4059      	eors	r1, r3
    10dc:	4201      	tst	r1, r0
    10de:	d000      	beq.n	10e2 <lfs_dir_fetchmatch+0x27a>
    10e0:	e08b      	b.n	11fa <lfs_dir_fetchmatch+0x392>
    10e2:	2301      	movs	r3, #1
    10e4:	425b      	negs	r3, r3
    10e6:	9306      	str	r3, [sp, #24]
    10e8:	4644      	mov	r4, r8
    10ea:	e740      	b.n	f6e <lfs_dir_fetchmatch+0x106>
    10ec:	6a29      	ldr	r1, [r5, #32]
    10ee:	4291      	cmp	r1, r2
    10f0:	d917      	bls.n	1122 <lfs_dir_fetchmatch+0x2ba>
    10f2:	4649      	mov	r1, r9
    10f4:	3108      	adds	r1, #8
    10f6:	428b      	cmp	r3, r1
    10f8:	d313      	bcc.n	1122 <lfs_dir_fetchmatch+0x2ba>
    10fa:	2104      	movs	r1, #4
    10fc:	9103      	str	r1, [sp, #12]
    10fe:	9904      	ldr	r1, [sp, #16]
    1100:	ad11      	add	r5, sp, #68	; 0x44
    1102:	9101      	str	r1, [sp, #4]
    1104:	9200      	str	r2, [sp, #0]
    1106:	9502      	str	r5, [sp, #8]
    1108:	0032      	movs	r2, r6
    110a:	2100      	movs	r1, #0
    110c:	4658      	mov	r0, fp
    110e:	f7ff f847 	bl	1a0 <lfs_bd_read.isra.21.part.22>
    1112:	1e07      	subs	r7, r0, #0
    1114:	d000      	beq.n	1118 <lfs_dir_fetchmatch+0x2b0>
    1116:	e176      	b.n	1406 <lfs_dir_fetchmatch+0x59e>
    1118:	9b11      	ldr	r3, [sp, #68]	; 0x44
    111a:	9a0f      	ldr	r2, [sp, #60]	; 0x3c
    111c:	4293      	cmp	r3, r2
    111e:	d100      	bne.n	1122 <lfs_dir_fetchmatch+0x2ba>
    1120:	e0b0      	b.n	1284 <lfs_dir_fetchmatch+0x41c>
    1122:	4653      	mov	r3, sl
    1124:	2200      	movs	r2, #0
    1126:	68dd      	ldr	r5, [r3, #12]
    1128:	759a      	strb	r2, [r3, #22]
    112a:	2d00      	cmp	r5, #0
    112c:	d000      	beq.n	1130 <lfs_dir_fetchmatch+0x2c8>
    112e:	e0fd      	b.n	132c <lfs_dir_fetchmatch+0x4c4>
    1130:	4653      	mov	r3, sl
    1132:	4651      	mov	r1, sl
    1134:	681a      	ldr	r2, [r3, #0]
    1136:	685b      	ldr	r3, [r3, #4]
    1138:	980c      	ldr	r0, [sp, #48]	; 0x30
    113a:	600b      	str	r3, [r1, #0]
    113c:	604a      	str	r2, [r1, #4]
    113e:	9907      	ldr	r1, [sp, #28]
    1140:	5809      	ldr	r1, [r1, r0]
    1142:	9104      	str	r1, [sp, #16]
    1144:	4651      	mov	r1, sl
    1146:	9804      	ldr	r0, [sp, #16]
    1148:	6088      	str	r0, [r1, #8]
    114a:	9908      	ldr	r1, [sp, #32]
    114c:	2901      	cmp	r1, #1
    114e:	d137      	bne.n	11c0 <lfs_dir_fetchmatch+0x358>
    1150:	4946      	ldr	r1, [pc, #280]	; (126c <lfs_dir_fetchmatch+0x404>)
    1152:	9200      	str	r2, [sp, #0]
    1154:	9101      	str	r1, [sp, #4]
    1156:	4a46      	ldr	r2, [pc, #280]	; (1270 <lfs_dir_fetchmatch+0x408>)
    1158:	4946      	ldr	r1, [pc, #280]	; (1274 <lfs_dir_fetchmatch+0x40c>)
    115a:	4847      	ldr	r0, [pc, #284]	; (1278 <lfs_dir_fetchmatch+0x410>)
    115c:	2754      	movs	r7, #84	; 0x54
    115e:	f7ff fffe 	bl	0 <printf>
    1162:	427f      	negs	r7, r7
    1164:	0038      	movs	r0, r7
    1166:	b019      	add	sp, #100	; 0x64
    1168:	bc3c      	pop	{r2, r3, r4, r5}
    116a:	4690      	mov	r8, r2
    116c:	4699      	mov	r9, r3
    116e:	46a2      	mov	sl, r4
    1170:	46ab      	mov	fp, r5
    1172:	bdf0      	pop	{r4, r5, r6, r7, pc}
    1174:	2380      	movs	r3, #128	; 0x80
    1176:	00db      	lsls	r3, r3, #3
    1178:	4298      	cmp	r0, r3
    117a:	d04f      	beq.n	121c <lfs_dir_fetchmatch+0x3b4>
    117c:	23c0      	movs	r3, #192	; 0xc0
    117e:	00db      	lsls	r3, r3, #3
    1180:	4298      	cmp	r0, r3
    1182:	d194      	bne.n	10ae <lfs_dir_fetchmatch+0x246>
    1184:	2301      	movs	r3, #1
    1186:	6eb1      	ldr	r1, [r6, #104]	; 0x68
    1188:	401c      	ands	r4, r3
    118a:	69cb      	ldr	r3, [r1, #28]
    118c:	6a09      	ldr	r1, [r1, #32]
    118e:	940d      	str	r4, [sp, #52]	; 0x34
    1190:	4291      	cmp	r1, r2
    1192:	d9c6      	bls.n	1122 <lfs_dir_fetchmatch+0x2ba>
    1194:	4649      	mov	r1, r9
    1196:	310c      	adds	r1, #12
    1198:	428b      	cmp	r3, r1
    119a:	d3c2      	bcc.n	1122 <lfs_dir_fetchmatch+0x2ba>
    119c:	2108      	movs	r1, #8
    119e:	9103      	str	r1, [sp, #12]
    11a0:	a914      	add	r1, sp, #80	; 0x50
    11a2:	9102      	str	r1, [sp, #8]
    11a4:	9904      	ldr	r1, [sp, #16]
    11a6:	9200      	str	r2, [sp, #0]
    11a8:	9101      	str	r1, [sp, #4]
    11aa:	0032      	movs	r2, r6
    11ac:	2100      	movs	r1, #0
    11ae:	4658      	mov	r0, fp
    11b0:	f7fe fff6 	bl	1a0 <lfs_bd_read.isra.21.part.22>
    11b4:	3054      	adds	r0, #84	; 0x54
    11b6:	d0b4      	beq.n	1122 <lfs_dir_fetchmatch+0x2ba>
    11b8:	4653      	mov	r3, sl
    11ba:	9910      	ldr	r1, [sp, #64]	; 0x40
    11bc:	681a      	ldr	r2, [r3, #0]
    11be:	e776      	b.n	10ae <lfs_dir_fetchmatch+0x246>
    11c0:	2301      	movs	r3, #1
    11c2:	9308      	str	r3, [sp, #32]
    11c4:	e6be      	b.n	f44 <lfs_dir_fetchmatch+0xdc>
    11c6:	0003      	movs	r3, r0
    11c8:	46bb      	mov	fp, r7
    11ca:	0007      	movs	r7, r0
    11cc:	3354      	adds	r3, #84	; 0x54
    11ce:	d1c9      	bne.n	1164 <lfs_dir_fetchmatch+0x2fc>
    11d0:	4653      	mov	r3, sl
    11d2:	20e0      	movs	r0, #224	; 0xe0
    11d4:	9910      	ldr	r1, [sp, #64]	; 0x40
    11d6:	00c0      	lsls	r0, r0, #3
    11d8:	0d0c      	lsrs	r4, r1, #20
    11da:	681a      	ldr	r2, [r3, #0]
    11dc:	4020      	ands	r0, r4
    11de:	4653      	mov	r3, sl
    11e0:	2500      	movs	r5, #0
    11e2:	759d      	strb	r5, [r3, #22]
    11e4:	e75a      	b.n	109c <lfs_dir_fetchmatch+0x234>
    11e6:	0003      	movs	r3, r0
    11e8:	3354      	adds	r3, #84	; 0x54
    11ea:	d100      	bne.n	11ee <lfs_dir_fetchmatch+0x386>
    11ec:	e66d      	b.n	eca <lfs_dir_fetchmatch+0x62>
    11ee:	e7b9      	b.n	1164 <lfs_dir_fetchmatch+0x2fc>
    11f0:	0003      	movs	r3, r0
    11f2:	3354      	adds	r3, #84	; 0x54
    11f4:	d1b6      	bne.n	1164 <lfs_dir_fetchmatch+0x2fc>
    11f6:	2300      	movs	r3, #0
    11f8:	e689      	b.n	f0e <lfs_dir_fetchmatch+0xa6>
    11fa:	2f02      	cmp	r7, #2
    11fc:	d000      	beq.n	1200 <lfs_dir_fetchmatch+0x398>
    11fe:	e773      	b.n	10e8 <lfs_dir_fetchmatch+0x280>
    1200:	9906      	ldr	r1, [sp, #24]
    1202:	0308      	lsls	r0, r1, #12
    1204:	0319      	lsls	r1, r3, #12
    1206:	0d80      	lsrs	r0, r0, #22
    1208:	0d89      	lsrs	r1, r1, #22
    120a:	4288      	cmp	r0, r1
    120c:	d200      	bcs.n	1210 <lfs_dir_fetchmatch+0x3a8>
    120e:	e76b      	b.n	10e8 <lfs_dir_fetchmatch+0x280>
    1210:	2180      	movs	r1, #128	; 0x80
    1212:	0609      	lsls	r1, r1, #24
    1214:	4319      	orrs	r1, r3
    1216:	9106      	str	r1, [sp, #24]
    1218:	4644      	mov	r4, r8
    121a:	e6a8      	b.n	f6e <lfs_dir_fetchmatch+0x106>
    121c:	9b05      	ldr	r3, [sp, #20]
    121e:	b264      	sxtb	r4, r4
    1220:	191b      	adds	r3, r3, r4
    1222:	b29b      	uxth	r3, r3
    1224:	9305      	str	r3, [sp, #20]
    1226:	4815      	ldr	r0, [pc, #84]	; (127c <lfs_dir_fetchmatch+0x414>)
    1228:	9b06      	ldr	r3, [sp, #24]
    122a:	4018      	ands	r0, r3
    122c:	4b14      	ldr	r3, [pc, #80]	; (1280 <lfs_dir_fetchmatch+0x418>)
    122e:	4303      	orrs	r3, r0
    1230:	428b      	cmp	r3, r1
    1232:	d057      	beq.n	12e4 <lfs_dir_fetchmatch+0x47c>
    1234:	9d06      	ldr	r5, [sp, #24]
    1236:	1c6b      	adds	r3, r5, #1
    1238:	d100      	bne.n	123c <lfs_dir_fetchmatch+0x3d4>
    123a:	e738      	b.n	10ae <lfs_dir_fetchmatch+0x246>
    123c:	0328      	lsls	r0, r5, #12
    123e:	030b      	lsls	r3, r1, #12
    1240:	0d80      	lsrs	r0, r0, #22
    1242:	0d9b      	lsrs	r3, r3, #22
    1244:	4298      	cmp	r0, r3
    1246:	d200      	bcs.n	124a <lfs_dir_fetchmatch+0x3e2>
    1248:	e731      	b.n	10ae <lfs_dir_fetchmatch+0x246>
    124a:	46ac      	mov	ip, r5
    124c:	02a4      	lsls	r4, r4, #10
    124e:	44a4      	add	ip, r4
    1250:	4663      	mov	r3, ip
    1252:	9306      	str	r3, [sp, #24]
    1254:	e72b      	b.n	10ae <lfs_dir_fetchmatch+0x246>
    1256:	20e0      	movs	r0, #224	; 0xe0
    1258:	0d0c      	lsrs	r4, r1, #20
    125a:	00c0      	lsls	r0, r0, #3
    125c:	46bb      	mov	fp, r7
    125e:	4020      	ands	r0, r4
    1260:	e7bd      	b.n	11de <lfs_dir_fetchmatch+0x376>
    1262:	46c0      	nop			; (mov r8, r8)
    1264:	00000000 	.word	0x00000000
    1268:	7ffffc00 	.word	0x7ffffc00
    126c:	00000074 	.word	0x00000074
    1270:	0000042f 	.word	0x0000042f
    1274:	00000000 	.word	0x00000000
    1278:	0000003c 	.word	0x0000003c
    127c:	000ffc00 	.word	0x000ffc00
    1280:	4ff00000 	.word	0x4ff00000
    1284:	9b10      	ldr	r3, [sp, #64]	; 0x40
    1286:	2204      	movs	r2, #4
    1288:	0d1c      	lsrs	r4, r3, #20
    128a:	4643      	mov	r3, r8
    128c:	a90f      	add	r1, sp, #60	; 0x3c
    128e:	07e4      	lsls	r4, r4, #31
    1290:	6af0      	ldr	r0, [r6, #44]	; 0x2c
    1292:	405c      	eors	r4, r3
    1294:	f7ff fffe 	bl	0 <lfs_crc>
    1298:	9a10      	ldr	r2, [sp, #64]	; 0x40
    129a:	62f0      	str	r0, [r6, #44]	; 0x2c
    129c:	0593      	lsls	r3, r2, #22
    129e:	159b      	asrs	r3, r3, #22
    12a0:	3301      	adds	r3, #1
    12a2:	4259      	negs	r1, r3
    12a4:	414b      	adcs	r3, r1
    12a6:	189b      	adds	r3, r3, r2
    12a8:	4652      	mov	r2, sl
    12aa:	059b      	lsls	r3, r3, #22
    12ac:	0d9b      	lsrs	r3, r3, #22
    12ae:	3304      	adds	r3, #4
    12b0:	444b      	add	r3, r9
    12b2:	60d3      	str	r3, [r2, #12]
    12b4:	4653      	mov	r3, sl
    12b6:	6114      	str	r4, [r2, #16]
    12b8:	9a05      	ldr	r2, [sp, #20]
    12ba:	829a      	strh	r2, [r3, #20]
    12bc:	9b14      	ldr	r3, [sp, #80]	; 0x50
    12be:	9304      	str	r3, [sp, #16]
    12c0:	4653      	mov	r3, sl
    12c2:	9a04      	ldr	r2, [sp, #16]
    12c4:	619a      	str	r2, [r3, #24]
    12c6:	9b15      	ldr	r3, [sp, #84]	; 0x54
    12c8:	9304      	str	r3, [sp, #16]
    12ca:	4653      	mov	r3, sl
    12cc:	9a04      	ldr	r2, [sp, #16]
    12ce:	61da      	str	r2, [r3, #28]
    12d0:	9a0d      	ldr	r2, [sp, #52]	; 0x34
    12d2:	75da      	strb	r2, [r3, #23]
    12d4:	2301      	movs	r3, #1
    12d6:	425b      	negs	r3, r3
    12d8:	930f      	str	r3, [sp, #60]	; 0x3c
    12da:	4653      	mov	r3, sl
    12dc:	681a      	ldr	r2, [r3, #0]
    12de:	9b06      	ldr	r3, [sp, #24]
    12e0:	930a      	str	r3, [sp, #40]	; 0x28
    12e2:	e644      	b.n	f6e <lfs_dir_fetchmatch+0x106>
    12e4:	2380      	movs	r3, #128	; 0x80
    12e6:	9806      	ldr	r0, [sp, #24]
    12e8:	061b      	lsls	r3, r3, #24
    12ea:	4318      	orrs	r0, r3
    12ec:	9006      	str	r0, [sp, #24]
    12ee:	e6de      	b.n	10ae <lfs_dir_fetchmatch+0x246>
    12f0:	4641      	mov	r1, r8
    12f2:	e6d3      	b.n	109c <lfs_dir_fetchmatch+0x234>
    12f4:	4653      	mov	r3, sl
    12f6:	68dd      	ldr	r5, [r3, #12]
    12f8:	23e0      	movs	r3, #224	; 0xe0
    12fa:	22a0      	movs	r2, #160	; 0xa0
    12fc:	00db      	lsls	r3, r3, #3
    12fe:	0d24      	lsrs	r4, r4, #20
    1300:	401c      	ands	r4, r3
    1302:	00d2      	lsls	r2, r2, #3
    1304:	2300      	movs	r3, #0
    1306:	4294      	cmp	r4, r2
    1308:	d107      	bne.n	131a <lfs_dir_fetchmatch+0x4b2>
    130a:	6eb3      	ldr	r3, [r6, #104]	; 0x68
    130c:	0028      	movs	r0, r5
    130e:	6999      	ldr	r1, [r3, #24]
    1310:	f7ff fffe 	bl	0 <__aeabi_uidivmod>
    1314:	424b      	negs	r3, r1
    1316:	414b      	adcs	r3, r1
    1318:	b2db      	uxtb	r3, r3
    131a:	4652      	mov	r2, sl
    131c:	7593      	strb	r3, [r2, #22]
    131e:	e704      	b.n	112a <lfs_dir_fetchmatch+0x2c2>
    1320:	4653      	mov	r3, sl
    1322:	759f      	strb	r7, [r3, #22]
    1324:	68dd      	ldr	r5, [r3, #12]
    1326:	e700      	b.n	112a <lfs_dir_fetchmatch+0x2c2>
    1328:	4641      	mov	r1, r8
    132a:	e758      	b.n	11de <lfs_dir_fetchmatch+0x376>
    132c:	23e0      	movs	r3, #224	; 0xe0
    132e:	6bf2      	ldr	r2, [r6, #60]	; 0x3c
    1330:	00db      	lsls	r3, r3, #3
    1332:	0d10      	lsrs	r0, r2, #20
    1334:	46d3      	mov	fp, sl
    1336:	990a      	ldr	r1, [sp, #40]	; 0x28
    1338:	4218      	tst	r0, r3
    133a:	d00d      	beq.n	1358 <lfs_dir_fetchmatch+0x4f0>
    133c:	4653      	mov	r3, sl
    133e:	6c35      	ldr	r5, [r6, #64]	; 0x40
    1340:	6818      	ldr	r0, [r3, #0]
    1342:	4285      	cmp	r5, r0
    1344:	d02d      	beq.n	13a2 <lfs_dir_fetchmatch+0x53a>
    1346:	4654      	mov	r4, sl
    1348:	6c73      	ldr	r3, [r6, #68]	; 0x44
    134a:	6864      	ldr	r4, [r4, #4]
    134c:	42a3      	cmp	r3, r4
    134e:	d028      	beq.n	13a2 <lfs_dir_fetchmatch+0x53a>
    1350:	42a5      	cmp	r5, r4
    1352:	d026      	beq.n	13a2 <lfs_dir_fetchmatch+0x53a>
    1354:	4298      	cmp	r0, r3
    1356:	d024      	beq.n	13a2 <lfs_dir_fetchmatch+0x53a>
    1358:	9b23      	ldr	r3, [sp, #140]	; 0x8c
    135a:	9f0a      	ldr	r7, [sp, #40]	; 0x28
    135c:	2b00      	cmp	r3, #0
    135e:	d008      	beq.n	1372 <lfs_dir_fetchmatch+0x50a>
    1360:	465a      	mov	r2, fp
    1362:	033b      	lsls	r3, r7, #12
    1364:	8a92      	ldrh	r2, [r2, #20]
    1366:	0d9b      	lsrs	r3, r3, #22
    1368:	4293      	cmp	r3, r2
    136a:	d900      	bls.n	136e <lfs_dir_fetchmatch+0x506>
    136c:	0013      	movs	r3, r2
    136e:	9a23      	ldr	r2, [sp, #140]	; 0x8c
    1370:	8013      	strh	r3, [r2, #0]
    1372:	2f00      	cmp	r7, #0
    1374:	db00      	blt.n	1378 <lfs_dir_fetchmatch+0x510>
    1376:	e6f5      	b.n	1164 <lfs_dir_fetchmatch+0x2fc>
    1378:	465a      	mov	r2, fp
    137a:	030b      	lsls	r3, r1, #12
    137c:	8a92      	ldrh	r2, [r2, #20]
    137e:	0d9b      	lsrs	r3, r3, #22
    1380:	4293      	cmp	r3, r2
    1382:	419b      	sbcs	r3, r3
    1384:	2201      	movs	r2, #1
    1386:	4393      	bics	r3, r2
    1388:	001f      	movs	r7, r3
    138a:	e6eb      	b.n	1164 <lfs_dir_fetchmatch+0x2fc>
    138c:	0003      	movs	r3, r0
    138e:	3354      	adds	r3, #84	; 0x54
    1390:	d000      	beq.n	1394 <lfs_dir_fetchmatch+0x52c>
    1392:	e6e7      	b.n	1164 <lfs_dir_fetchmatch+0x2fc>
    1394:	4653      	mov	r3, sl
    1396:	759c      	strb	r4, [r3, #22]
    1398:	68dd      	ldr	r5, [r3, #12]
    139a:	e6c6      	b.n	112a <lfs_dir_fetchmatch+0x2c2>
    139c:	2754      	movs	r7, #84	; 0x54
    139e:	427f      	negs	r7, r7
    13a0:	e6e0      	b.n	1164 <lfs_dir_fetchmatch+0x2fc>
    13a2:	9b0a      	ldr	r3, [sp, #40]	; 0x28
    13a4:	0312      	lsls	r2, r2, #12
    13a6:	031b      	lsls	r3, r3, #12
    13a8:	0d92      	lsrs	r2, r2, #22
    13aa:	0d9b      	lsrs	r3, r3, #22
    13ac:	4293      	cmp	r3, r2
    13ae:	d00d      	beq.n	13cc <lfs_dir_fetchmatch+0x564>
    13b0:	980a      	ldr	r0, [sp, #40]	; 0x28
    13b2:	1c44      	adds	r4, r0, #1
    13b4:	d017      	beq.n	13e6 <lfs_dir_fetchmatch+0x57e>
    13b6:	4293      	cmp	r3, r2
    13b8:	d9ce      	bls.n	1358 <lfs_dir_fetchmatch+0x4f0>
    13ba:	4b15      	ldr	r3, [pc, #84]	; (1410 <lfs_dir_fetchmatch+0x5a8>)
    13bc:	469c      	mov	ip, r3
    13be:	4460      	add	r0, ip
    13c0:	900a      	str	r0, [sp, #40]	; 0x28
    13c2:	0001      	movs	r1, r0
    13c4:	e7c8      	b.n	1358 <lfs_dir_fetchmatch+0x4f0>
    13c6:	aa12      	add	r2, sp, #72	; 0x48
    13c8:	9207      	str	r2, [sp, #28]
    13ca:	e57f      	b.n	ecc <lfs_dir_fetchmatch+0x64>
    13cc:	2180      	movs	r1, #128	; 0x80
    13ce:	465a      	mov	r2, fp
    13d0:	9b0a      	ldr	r3, [sp, #40]	; 0x28
    13d2:	0609      	lsls	r1, r1, #24
    13d4:	4319      	orrs	r1, r3
    13d6:	9823      	ldr	r0, [sp, #140]	; 0x8c
    13d8:	030b      	lsls	r3, r1, #12
    13da:	000f      	movs	r7, r1
    13dc:	0d9b      	lsrs	r3, r3, #22
    13de:	8a92      	ldrh	r2, [r2, #20]
    13e0:	2800      	cmp	r0, #0
    13e2:	d1c1      	bne.n	1368 <lfs_dir_fetchmatch+0x500>
    13e4:	e7cc      	b.n	1380 <lfs_dir_fetchmatch+0x518>
    13e6:	465b      	mov	r3, fp
    13e8:	8a9a      	ldrh	r2, [r3, #20]
    13ea:	9b23      	ldr	r3, [sp, #140]	; 0x8c
    13ec:	2b00      	cmp	r3, #0
    13ee:	d008      	beq.n	1402 <lfs_dir_fetchmatch+0x59a>
    13f0:	4908      	ldr	r1, [pc, #32]	; (1414 <lfs_dir_fetchmatch+0x5ac>)
    13f2:	1c13      	adds	r3, r2, #0
    13f4:	428a      	cmp	r2, r1
    13f6:	d900      	bls.n	13fa <lfs_dir_fetchmatch+0x592>
    13f8:	1c0b      	adds	r3, r1, #0
    13fa:	9a23      	ldr	r2, [sp, #140]	; 0x8c
    13fc:	8013      	strh	r3, [r2, #0]
    13fe:	465b      	mov	r3, fp
    1400:	8a9a      	ldrh	r2, [r3, #20]
    1402:	4b04      	ldr	r3, [pc, #16]	; (1414 <lfs_dir_fetchmatch+0x5ac>)
    1404:	e7bc      	b.n	1380 <lfs_dir_fetchmatch+0x518>
    1406:	003b      	movs	r3, r7
    1408:	3354      	adds	r3, #84	; 0x54
    140a:	d000      	beq.n	140e <lfs_dir_fetchmatch+0x5a6>
    140c:	e6aa      	b.n	1164 <lfs_dir_fetchmatch+0x2fc>
    140e:	e688      	b.n	1122 <lfs_dir_fetchmatch+0x2ba>
    1410:	fffffc00 	.word	0xfffffc00
    1414:	000003ff 	.word	0x000003ff

00001418 <lfs_fs_pred>:
    1418:	b5f0      	push	{r4, r5, r6, r7, lr}
    141a:	2300      	movs	r3, #0
    141c:	464e      	mov	r6, r9
    141e:	4645      	mov	r5, r8
    1420:	46de      	mov	lr, fp
    1422:	4657      	mov	r7, sl
    1424:	0014      	movs	r4, r2
    1426:	b5e0      	push	{r5, r6, r7, lr}
    1428:	6193      	str	r3, [r2, #24]
    142a:	2201      	movs	r2, #1
    142c:	6e83      	ldr	r3, [r0, #104]	; 0x68
    142e:	b085      	sub	sp, #20
    1430:	6a1b      	ldr	r3, [r3, #32]
    1432:	0006      	movs	r6, r0
    1434:	000d      	movs	r5, r1
    1436:	61e2      	str	r2, [r4, #28]
    1438:	085b      	lsrs	r3, r3, #1
    143a:	d046      	beq.n	14ca <lfs_fs_pred+0xb2>
    143c:	680b      	ldr	r3, [r1, #0]
    143e:	2b00      	cmp	r3, #0
    1440:	d036      	beq.n	14b0 <lfs_fs_pred+0x98>
    1442:	6849      	ldr	r1, [r1, #4]
    1444:	428a      	cmp	r2, r1
    1446:	d033      	beq.n	14b0 <lfs_fs_pred+0x98>
    1448:	2900      	cmp	r1, #0
    144a:	d031      	beq.n	14b0 <lfs_fs_pred+0x98>
    144c:	429a      	cmp	r2, r3
    144e:	d02f      	beq.n	14b0 <lfs_fs_pred+0x98>
    1450:	2300      	movs	r3, #0
    1452:	4698      	mov	r8, r3
    1454:	3318      	adds	r3, #24
    1456:	469a      	mov	sl, r3
    1458:	3b19      	subs	r3, #25
    145a:	4699      	mov	r9, r3
    145c:	2700      	movs	r7, #0
    145e:	44a2      	add	sl, r4
    1460:	464b      	mov	r3, r9
    1462:	9300      	str	r3, [sp, #0]
    1464:	2301      	movs	r3, #1
    1466:	9703      	str	r7, [sp, #12]
    1468:	9702      	str	r7, [sp, #8]
    146a:	9701      	str	r7, [sp, #4]
    146c:	425b      	negs	r3, r3
    146e:	4652      	mov	r2, sl
    1470:	0021      	movs	r1, r4
    1472:	0030      	movs	r0, r6
    1474:	f7ff fcf8 	bl	e68 <lfs_dir_fetchmatch>
    1478:	2800      	cmp	r0, #0
    147a:	d11a      	bne.n	14b2 <lfs_fs_pred+0x9a>
    147c:	2301      	movs	r3, #1
    147e:	469c      	mov	ip, r3
    1480:	69a2      	ldr	r2, [r4, #24]
    1482:	44e0      	add	r8, ip
    1484:	1c53      	adds	r3, r2, #1
    1486:	d01b      	beq.n	14c0 <lfs_fs_pred+0xa8>
    1488:	69e1      	ldr	r1, [r4, #28]
    148a:	1c4b      	adds	r3, r1, #1
    148c:	d01b      	beq.n	14c6 <lfs_fs_pred+0xae>
    148e:	6eb3      	ldr	r3, [r6, #104]	; 0x68
    1490:	6a1b      	ldr	r3, [r3, #32]
    1492:	085b      	lsrs	r3, r3, #1
    1494:	4543      	cmp	r3, r8
    1496:	d918      	bls.n	14ca <lfs_fs_pred+0xb2>
    1498:	682b      	ldr	r3, [r5, #0]
    149a:	469b      	mov	fp, r3
    149c:	4293      	cmp	r3, r2
    149e:	d008      	beq.n	14b2 <lfs_fs_pred+0x9a>
    14a0:	686b      	ldr	r3, [r5, #4]
    14a2:	428b      	cmp	r3, r1
    14a4:	d005      	beq.n	14b2 <lfs_fs_pred+0x9a>
    14a6:	4293      	cmp	r3, r2
    14a8:	d003      	beq.n	14b2 <lfs_fs_pred+0x9a>
    14aa:	458b      	cmp	fp, r1
    14ac:	d1d8      	bne.n	1460 <lfs_fs_pred+0x48>
    14ae:	e000      	b.n	14b2 <lfs_fs_pred+0x9a>
    14b0:	2000      	movs	r0, #0
    14b2:	b005      	add	sp, #20
    14b4:	bc3c      	pop	{r2, r3, r4, r5}
    14b6:	4690      	mov	r8, r2
    14b8:	4699      	mov	r9, r3
    14ba:	46a2      	mov	sl, r4
    14bc:	46ab      	mov	fp, r5
    14be:	bdf0      	pop	{r4, r5, r6, r7, pc}
    14c0:	2002      	movs	r0, #2
    14c2:	4240      	negs	r0, r0
    14c4:	e7f5      	b.n	14b2 <lfs_fs_pred+0x9a>
    14c6:	3802      	subs	r0, #2
    14c8:	e7f3      	b.n	14b2 <lfs_fs_pred+0x9a>
    14ca:	2054      	movs	r0, #84	; 0x54
    14cc:	4240      	negs	r0, r0
    14ce:	e7f0      	b.n	14b2 <lfs_fs_pred+0x9a>

000014d0 <lfs_dir_getslice>:
    14d0:	b5f0      	push	{r4, r5, r6, r7, lr}
    14d2:	464e      	mov	r6, r9
    14d4:	46de      	mov	lr, fp
    14d6:	4657      	mov	r7, sl
    14d8:	4645      	mov	r5, r8
    14da:	b5e0      	push	{r5, r6, r7, lr}
    14dc:	b08b      	sub	sp, #44	; 0x2c
    14de:	9207      	str	r2, [sp, #28]
    14e0:	0312      	lsls	r2, r2, #12
    14e2:	0d92      	lsrs	r2, r2, #22
    14e4:	9205      	str	r2, [sp, #20]
    14e6:	22e0      	movs	r2, #224	; 0xe0
    14e8:	0006      	movs	r6, r0
    14ea:	469b      	mov	fp, r3
    14ec:	6bc3      	ldr	r3, [r0, #60]	; 0x3c
    14ee:	2000      	movs	r0, #0
    14f0:	690c      	ldr	r4, [r1, #16]
    14f2:	468a      	mov	sl, r1
    14f4:	68cd      	ldr	r5, [r1, #12]
    14f6:	00d2      	lsls	r2, r2, #3
    14f8:	0d19      	lsrs	r1, r3, #20
    14fa:	9409      	str	r4, [sp, #36]	; 0x24
    14fc:	4681      	mov	r9, r0
    14fe:	4211      	tst	r1, r2
    1500:	d011      	beq.n	1526 <lfs_dir_getslice+0x56>
    1502:	4651      	mov	r1, sl
    1504:	6c32      	ldr	r2, [r6, #64]	; 0x40
    1506:	6809      	ldr	r1, [r1, #0]
    1508:	4291      	cmp	r1, r2
    150a:	d100      	bne.n	150e <lfs_dir_getslice+0x3e>
    150c:	e09b      	b.n	1646 <lfs_dir_getslice+0x176>
    150e:	4650      	mov	r0, sl
    1510:	6c77      	ldr	r7, [r6, #68]	; 0x44
    1512:	6840      	ldr	r0, [r0, #4]
    1514:	42b8      	cmp	r0, r7
    1516:	d100      	bne.n	151a <lfs_dir_getslice+0x4a>
    1518:	e095      	b.n	1646 <lfs_dir_getslice+0x176>
    151a:	4290      	cmp	r0, r2
    151c:	d100      	bne.n	1520 <lfs_dir_getslice+0x50>
    151e:	e092      	b.n	1646 <lfs_dir_getslice+0x176>
    1520:	428f      	cmp	r7, r1
    1522:	d100      	bne.n	1526 <lfs_dir_getslice+0x56>
    1524:	e08f      	b.n	1646 <lfs_dir_getslice+0x176>
    1526:	2368      	movs	r3, #104	; 0x68
    1528:	469c      	mov	ip, r3
    152a:	44b4      	add	ip, r6
    152c:	4663      	mov	r3, ip
    152e:	46b0      	mov	r8, r6
    1530:	9306      	str	r3, [sp, #24]
    1532:	e004      	b.n	153e <lfs_dir_getslice+0x6e>
    1534:	9907      	ldr	r1, [sp, #28]
    1536:	4062      	eors	r2, r4
    1538:	4211      	tst	r1, r2
    153a:	d058      	beq.n	15ee <lfs_dir_getslice+0x11e>
    153c:	001c      	movs	r4, r3
    153e:	05a6      	lsls	r6, r4, #22
    1540:	15b7      	asrs	r7, r6, #22
    1542:	1c7b      	adds	r3, r7, #1
    1544:	425a      	negs	r2, r3
    1546:	4153      	adcs	r3, r2
    1548:	2204      	movs	r2, #4
    154a:	191b      	adds	r3, r3, r4
    154c:	059b      	lsls	r3, r3, #22
    154e:	0d9b      	lsrs	r3, r3, #22
    1550:	4252      	negs	r2, r2
    1552:	1ad2      	subs	r2, r2, r3
    1554:	3308      	adds	r3, #8
    1556:	42ab      	cmp	r3, r5
    1558:	d900      	bls.n	155c <lfs_dir_getslice+0x8c>
    155a:	e089      	b.n	1670 <lfs_dir_getslice+0x1a0>
    155c:	4653      	mov	r3, sl
    155e:	6819      	ldr	r1, [r3, #0]
    1560:	4643      	mov	r3, r8
    1562:	18ad      	adds	r5, r5, r2
    1564:	6e9a      	ldr	r2, [r3, #104]	; 0x68
    1566:	6a13      	ldr	r3, [r2, #32]
    1568:	4299      	cmp	r1, r3
    156a:	d300      	bcc.n	156e <lfs_dir_getslice+0x9e>
    156c:	e083      	b.n	1676 <lfs_dir_getslice+0x1a6>
    156e:	69d2      	ldr	r2, [r2, #28]
    1570:	1d2b      	adds	r3, r5, #4
    1572:	4293      	cmp	r3, r2
    1574:	d900      	bls.n	1578 <lfs_dir_getslice+0xa8>
    1576:	e07e      	b.n	1676 <lfs_dir_getslice+0x1a6>
    1578:	2304      	movs	r3, #4
    157a:	9303      	str	r3, [sp, #12]
    157c:	ab09      	add	r3, sp, #36	; 0x24
    157e:	9302      	str	r3, [sp, #8]
    1580:	9100      	str	r1, [sp, #0]
    1582:	9501      	str	r5, [sp, #4]
    1584:	2304      	movs	r3, #4
    1586:	4642      	mov	r2, r8
    1588:	2100      	movs	r1, #0
    158a:	9806      	ldr	r0, [sp, #24]
    158c:	f7fe fe08 	bl	1a0 <lfs_bd_read.isra.21.part.22>
    1590:	2800      	cmp	r0, #0
    1592:	d151      	bne.n	1638 <lfs_dir_getslice+0x168>
    1594:	4649      	mov	r1, r9
    1596:	465a      	mov	r2, fp
    1598:	9b09      	ldr	r3, [sp, #36]	; 0x24
    159a:	1a52      	subs	r2, r2, r1
    159c:	ba1b      	rev	r3, r3
    159e:	4063      	eors	r3, r4
    15a0:	005b      	lsls	r3, r3, #1
    15a2:	9905      	ldr	r1, [sp, #20]
    15a4:	085b      	lsrs	r3, r3, #1
    15a6:	9309      	str	r3, [sp, #36]	; 0x24
    15a8:	2900      	cmp	r1, #0
    15aa:	d0c3      	beq.n	1534 <lfs_dir_getslice+0x64>
    15ac:	0d21      	lsrs	r1, r4, #20
    15ae:	468c      	mov	ip, r1
    15b0:	21e0      	movs	r1, #224	; 0xe0
    15b2:	4660      	mov	r0, ip
    15b4:	00c9      	lsls	r1, r1, #3
    15b6:	4001      	ands	r1, r0
    15b8:	2080      	movs	r0, #128	; 0x80
    15ba:	00c0      	lsls	r0, r0, #3
    15bc:	4281      	cmp	r1, r0
    15be:	d1b9      	bne.n	1534 <lfs_dir_getslice+0x64>
    15c0:	0310      	lsls	r0, r2, #12
    15c2:	0321      	lsls	r1, r4, #12
    15c4:	0d80      	lsrs	r0, r0, #22
    15c6:	0d89      	lsrs	r1, r1, #22
    15c8:	4288      	cmp	r0, r1
    15ca:	d3b3      	bcc.n	1534 <lfs_dir_getslice+0x64>
    15cc:	4931      	ldr	r1, [pc, #196]	; (1694 <lfs_dir_getslice+0x1c4>)
    15ce:	4011      	ands	r1, r2
    15d0:	4a31      	ldr	r2, [pc, #196]	; (1698 <lfs_dir_getslice+0x1c8>)
    15d2:	430a      	orrs	r2, r1
    15d4:	42a2      	cmp	r2, r4
    15d6:	d04b      	beq.n	1670 <lfs_dir_getslice+0x1a0>
    15d8:	4662      	mov	r2, ip
    15da:	b252      	sxtb	r2, r2
    15dc:	0292      	lsls	r2, r2, #10
    15de:	4491      	add	r9, r2
    15e0:	4649      	mov	r1, r9
    15e2:	465a      	mov	r2, fp
    15e4:	1a52      	subs	r2, r2, r1
    15e6:	9907      	ldr	r1, [sp, #28]
    15e8:	4062      	eors	r2, r4
    15ea:	4211      	tst	r1, r2
    15ec:	d1a6      	bne.n	153c <lfs_dir_getslice+0x6c>
    15ee:	0033      	movs	r3, r6
    15f0:	4646      	mov	r6, r8
    15f2:	46b8      	mov	r8, r7
    15f4:	001f      	movs	r7, r3
    15f6:	4643      	mov	r3, r8
    15f8:	3301      	adds	r3, #1
    15fa:	d039      	beq.n	1670 <lfs_dir_getslice+0x1a0>
    15fc:	9b16      	ldr	r3, [sp, #88]	; 0x58
    15fe:	0dbf      	lsrs	r7, r7, #22
    1600:	429f      	cmp	r7, r3
    1602:	d83b      	bhi.n	167c <lfs_dir_getslice+0x1ac>
    1604:	4653      	mov	r3, sl
    1606:	681a      	ldr	r2, [r3, #0]
    1608:	9b14      	ldr	r3, [sp, #80]	; 0x50
    160a:	6eb1      	ldr	r1, [r6, #104]	; 0x68
    160c:	3304      	adds	r3, #4
    160e:	195d      	adds	r5, r3, r5
    1610:	6a0b      	ldr	r3, [r1, #32]
    1612:	429a      	cmp	r2, r3
    1614:	d22f      	bcs.n	1676 <lfs_dir_getslice+0x1a6>
    1616:	69c9      	ldr	r1, [r1, #28]
    1618:	19eb      	adds	r3, r5, r7
    161a:	428b      	cmp	r3, r1
    161c:	d82b      	bhi.n	1676 <lfs_dir_getslice+0x1a6>
    161e:	9b15      	ldr	r3, [sp, #84]	; 0x54
    1620:	9200      	str	r2, [sp, #0]
    1622:	9302      	str	r3, [sp, #8]
    1624:	9703      	str	r7, [sp, #12]
    1626:	9501      	str	r5, [sp, #4]
    1628:	003b      	movs	r3, r7
    162a:	0032      	movs	r2, r6
    162c:	2100      	movs	r1, #0
    162e:	9806      	ldr	r0, [sp, #24]
    1630:	f7fe fdb6 	bl	1a0 <lfs_bd_read.isra.21.part.22>
    1634:	2800      	cmp	r0, #0
    1636:	d023      	beq.n	1680 <lfs_dir_getslice+0x1b0>
    1638:	b00b      	add	sp, #44	; 0x2c
    163a:	bc3c      	pop	{r2, r3, r4, r5}
    163c:	4690      	mov	r8, r2
    163e:	4699      	mov	r9, r3
    1640:	46a2      	mov	sl, r4
    1642:	46ab      	mov	fp, r5
    1644:	bdf0      	pop	{r4, r5, r6, r7, pc}
    1646:	9a05      	ldr	r2, [sp, #20]
    1648:	2a00      	cmp	r2, #0
    164a:	d00e      	beq.n	166a <lfs_dir_getslice+0x19a>
    164c:	465a      	mov	r2, fp
    164e:	031b      	lsls	r3, r3, #12
    1650:	0312      	lsls	r2, r2, #12
    1652:	0d92      	lsrs	r2, r2, #22
    1654:	0d9b      	lsrs	r3, r3, #22
    1656:	429a      	cmp	r2, r3
    1658:	419b      	sbcs	r3, r3
    165a:	2280      	movs	r2, #128	; 0x80
    165c:	00d2      	lsls	r2, r2, #3
    165e:	4013      	ands	r3, r2
    1660:	4699      	mov	r9, r3
    1662:	4b0e      	ldr	r3, [pc, #56]	; (169c <lfs_dir_getslice+0x1cc>)
    1664:	469c      	mov	ip, r3
    1666:	44e1      	add	r9, ip
    1668:	e75d      	b.n	1526 <lfs_dir_getslice+0x56>
    166a:	2300      	movs	r3, #0
    166c:	4699      	mov	r9, r3
    166e:	e75a      	b.n	1526 <lfs_dir_getslice+0x56>
    1670:	2002      	movs	r0, #2
    1672:	4240      	negs	r0, r0
    1674:	e7e0      	b.n	1638 <lfs_dir_getslice+0x168>
    1676:	2054      	movs	r0, #84	; 0x54
    1678:	4240      	negs	r0, r0
    167a:	e7dd      	b.n	1638 <lfs_dir_getslice+0x168>
    167c:	001f      	movs	r7, r3
    167e:	e7c1      	b.n	1604 <lfs_dir_getslice+0x134>
    1680:	9b16      	ldr	r3, [sp, #88]	; 0x58
    1682:	2100      	movs	r1, #0
    1684:	1bda      	subs	r2, r3, r7
    1686:	9b15      	ldr	r3, [sp, #84]	; 0x54
    1688:	19d8      	adds	r0, r3, r7
    168a:	f7ff fffe 	bl	0 <memset>
    168e:	0020      	movs	r0, r4
    1690:	4448      	add	r0, r9
    1692:	e7d1      	b.n	1638 <lfs_dir_getslice+0x168>
    1694:	000ffc00 	.word	0x000ffc00
    1698:	40100000 	.word	0x40100000
    169c:	fffffc00 	.word	0xfffffc00

000016a0 <lfs_dir_getslice.constprop.38>:
    16a0:	b5f0      	push	{r4, r5, r6, r7, lr}
    16a2:	464e      	mov	r6, r9
    16a4:	46de      	mov	lr, fp
    16a6:	4657      	mov	r7, sl
    16a8:	4645      	mov	r5, r8
    16aa:	b5e0      	push	{r5, r6, r7, lr}
    16ac:	4693      	mov	fp, r2
    16ae:	b089      	sub	sp, #36	; 0x24
    16b0:	22e0      	movs	r2, #224	; 0xe0
    16b2:	0006      	movs	r6, r0
    16b4:	9305      	str	r3, [sp, #20]
    16b6:	6bc3      	ldr	r3, [r0, #60]	; 0x3c
    16b8:	2000      	movs	r0, #0
    16ba:	690c      	ldr	r4, [r1, #16]
    16bc:	468a      	mov	sl, r1
    16be:	68cd      	ldr	r5, [r1, #12]
    16c0:	00d2      	lsls	r2, r2, #3
    16c2:	0d19      	lsrs	r1, r3, #20
    16c4:	9407      	str	r4, [sp, #28]
    16c6:	4681      	mov	r9, r0
    16c8:	4211      	tst	r1, r2
    16ca:	d011      	beq.n	16f0 <lfs_dir_getslice.constprop.38+0x50>
    16cc:	4651      	mov	r1, sl
    16ce:	6c32      	ldr	r2, [r6, #64]	; 0x40
    16d0:	6809      	ldr	r1, [r1, #0]
    16d2:	428a      	cmp	r2, r1
    16d4:	d100      	bne.n	16d8 <lfs_dir_getslice.constprop.38+0x38>
    16d6:	e098      	b.n	180a <lfs_dir_getslice.constprop.38+0x16a>
    16d8:	4650      	mov	r0, sl
    16da:	6c77      	ldr	r7, [r6, #68]	; 0x44
    16dc:	6840      	ldr	r0, [r0, #4]
    16de:	4287      	cmp	r7, r0
    16e0:	d100      	bne.n	16e4 <lfs_dir_getslice.constprop.38+0x44>
    16e2:	e092      	b.n	180a <lfs_dir_getslice.constprop.38+0x16a>
    16e4:	4282      	cmp	r2, r0
    16e6:	d100      	bne.n	16ea <lfs_dir_getslice.constprop.38+0x4a>
    16e8:	e08f      	b.n	180a <lfs_dir_getslice.constprop.38+0x16a>
    16ea:	42b9      	cmp	r1, r7
    16ec:	d100      	bne.n	16f0 <lfs_dir_getslice.constprop.38+0x50>
    16ee:	e08c      	b.n	180a <lfs_dir_getslice.constprop.38+0x16a>
    16f0:	2368      	movs	r3, #104	; 0x68
    16f2:	469c      	mov	ip, r3
    16f4:	44b4      	add	ip, r6
    16f6:	4663      	mov	r3, ip
    16f8:	46b0      	mov	r8, r6
    16fa:	9304      	str	r3, [sp, #16]
    16fc:	e004      	b.n	1708 <lfs_dir_getslice.constprop.38+0x68>
    16fe:	4953      	ldr	r1, [pc, #332]	; (184c <lfs_dir_getslice.constprop.38+0x1ac>)
    1700:	4062      	eors	r2, r4
    1702:	420a      	tst	r2, r1
    1704:	d055      	beq.n	17b2 <lfs_dir_getslice.constprop.38+0x112>
    1706:	001c      	movs	r4, r3
    1708:	05a6      	lsls	r6, r4, #22
    170a:	15b7      	asrs	r7, r6, #22
    170c:	1c7b      	adds	r3, r7, #1
    170e:	425a      	negs	r2, r3
    1710:	4153      	adcs	r3, r2
    1712:	2204      	movs	r2, #4
    1714:	191b      	adds	r3, r3, r4
    1716:	059b      	lsls	r3, r3, #22
    1718:	0d9b      	lsrs	r3, r3, #22
    171a:	4252      	negs	r2, r2
    171c:	1ad2      	subs	r2, r2, r3
    171e:	3308      	adds	r3, #8
    1720:	429d      	cmp	r5, r3
    1722:	d200      	bcs.n	1726 <lfs_dir_getslice.constprop.38+0x86>
    1724:	e080      	b.n	1828 <lfs_dir_getslice.constprop.38+0x188>
    1726:	4653      	mov	r3, sl
    1728:	6819      	ldr	r1, [r3, #0]
    172a:	4643      	mov	r3, r8
    172c:	18ad      	adds	r5, r5, r2
    172e:	6e9a      	ldr	r2, [r3, #104]	; 0x68
    1730:	6a13      	ldr	r3, [r2, #32]
    1732:	4299      	cmp	r1, r3
    1734:	d300      	bcc.n	1738 <lfs_dir_getslice.constprop.38+0x98>
    1736:	e07a      	b.n	182e <lfs_dir_getslice.constprop.38+0x18e>
    1738:	69d2      	ldr	r2, [r2, #28]
    173a:	1d2b      	adds	r3, r5, #4
    173c:	4293      	cmp	r3, r2
    173e:	d900      	bls.n	1742 <lfs_dir_getslice.constprop.38+0xa2>
    1740:	e075      	b.n	182e <lfs_dir_getslice.constprop.38+0x18e>
    1742:	2304      	movs	r3, #4
    1744:	9303      	str	r3, [sp, #12]
    1746:	ab07      	add	r3, sp, #28
    1748:	9302      	str	r3, [sp, #8]
    174a:	9100      	str	r1, [sp, #0]
    174c:	9501      	str	r5, [sp, #4]
    174e:	2304      	movs	r3, #4
    1750:	4642      	mov	r2, r8
    1752:	2100      	movs	r1, #0
    1754:	9804      	ldr	r0, [sp, #16]
    1756:	f7fe fd23 	bl	1a0 <lfs_bd_read.isra.21.part.22>
    175a:	2800      	cmp	r0, #0
    175c:	d14e      	bne.n	17fc <lfs_dir_getslice.constprop.38+0x15c>
    175e:	0d22      	lsrs	r2, r4, #20
    1760:	4694      	mov	ip, r2
    1762:	4649      	mov	r1, r9
    1764:	465a      	mov	r2, fp
    1766:	1a52      	subs	r2, r2, r1
    1768:	21e0      	movs	r1, #224	; 0xe0
    176a:	4660      	mov	r0, ip
    176c:	00c9      	lsls	r1, r1, #3
    176e:	4001      	ands	r1, r0
    1770:	2080      	movs	r0, #128	; 0x80
    1772:	9b07      	ldr	r3, [sp, #28]
    1774:	00c0      	lsls	r0, r0, #3
    1776:	ba1b      	rev	r3, r3
    1778:	4063      	eors	r3, r4
    177a:	005b      	lsls	r3, r3, #1
    177c:	085b      	lsrs	r3, r3, #1
    177e:	9307      	str	r3, [sp, #28]
    1780:	4281      	cmp	r1, r0
    1782:	d1bc      	bne.n	16fe <lfs_dir_getslice.constprop.38+0x5e>
    1784:	0320      	lsls	r0, r4, #12
    1786:	0311      	lsls	r1, r2, #12
    1788:	0d80      	lsrs	r0, r0, #22
    178a:	0d89      	lsrs	r1, r1, #22
    178c:	4288      	cmp	r0, r1
    178e:	d8b6      	bhi.n	16fe <lfs_dir_getslice.constprop.38+0x5e>
    1790:	492f      	ldr	r1, [pc, #188]	; (1850 <lfs_dir_getslice.constprop.38+0x1b0>)
    1792:	4011      	ands	r1, r2
    1794:	4a2f      	ldr	r2, [pc, #188]	; (1854 <lfs_dir_getslice.constprop.38+0x1b4>)
    1796:	430a      	orrs	r2, r1
    1798:	42a2      	cmp	r2, r4
    179a:	d045      	beq.n	1828 <lfs_dir_getslice.constprop.38+0x188>
    179c:	4662      	mov	r2, ip
    179e:	b252      	sxtb	r2, r2
    17a0:	0292      	lsls	r2, r2, #10
    17a2:	4491      	add	r9, r2
    17a4:	4649      	mov	r1, r9
    17a6:	465a      	mov	r2, fp
    17a8:	1a52      	subs	r2, r2, r1
    17aa:	4928      	ldr	r1, [pc, #160]	; (184c <lfs_dir_getslice.constprop.38+0x1ac>)
    17ac:	4062      	eors	r2, r4
    17ae:	420a      	tst	r2, r1
    17b0:	d1a9      	bne.n	1706 <lfs_dir_getslice.constprop.38+0x66>
    17b2:	0033      	movs	r3, r6
    17b4:	4646      	mov	r6, r8
    17b6:	46b8      	mov	r8, r7
    17b8:	001f      	movs	r7, r3
    17ba:	4643      	mov	r3, r8
    17bc:	3301      	adds	r3, #1
    17be:	d033      	beq.n	1828 <lfs_dir_getslice.constprop.38+0x188>
    17c0:	9b13      	ldr	r3, [sp, #76]	; 0x4c
    17c2:	0dbf      	lsrs	r7, r7, #22
    17c4:	429f      	cmp	r7, r3
    17c6:	d835      	bhi.n	1834 <lfs_dir_getslice.constprop.38+0x194>
    17c8:	4653      	mov	r3, sl
    17ca:	681a      	ldr	r2, [r3, #0]
    17cc:	9b05      	ldr	r3, [sp, #20]
    17ce:	6eb1      	ldr	r1, [r6, #104]	; 0x68
    17d0:	3304      	adds	r3, #4
    17d2:	195d      	adds	r5, r3, r5
    17d4:	6a0b      	ldr	r3, [r1, #32]
    17d6:	429a      	cmp	r2, r3
    17d8:	d229      	bcs.n	182e <lfs_dir_getslice.constprop.38+0x18e>
    17da:	69c9      	ldr	r1, [r1, #28]
    17dc:	197b      	adds	r3, r7, r5
    17de:	428b      	cmp	r3, r1
    17e0:	d825      	bhi.n	182e <lfs_dir_getslice.constprop.38+0x18e>
    17e2:	9b12      	ldr	r3, [sp, #72]	; 0x48
    17e4:	9200      	str	r2, [sp, #0]
    17e6:	9302      	str	r3, [sp, #8]
    17e8:	9703      	str	r7, [sp, #12]
    17ea:	9501      	str	r5, [sp, #4]
    17ec:	003b      	movs	r3, r7
    17ee:	0032      	movs	r2, r6
    17f0:	2100      	movs	r1, #0
    17f2:	9804      	ldr	r0, [sp, #16]
    17f4:	f7fe fcd4 	bl	1a0 <lfs_bd_read.isra.21.part.22>
    17f8:	2800      	cmp	r0, #0
    17fa:	d01d      	beq.n	1838 <lfs_dir_getslice.constprop.38+0x198>
    17fc:	b009      	add	sp, #36	; 0x24
    17fe:	bc3c      	pop	{r2, r3, r4, r5}
    1800:	4690      	mov	r8, r2
    1802:	4699      	mov	r9, r3
    1804:	46a2      	mov	sl, r4
    1806:	46ab      	mov	fp, r5
    1808:	bdf0      	pop	{r4, r5, r6, r7, pc}
    180a:	465a      	mov	r2, fp
    180c:	031b      	lsls	r3, r3, #12
    180e:	0312      	lsls	r2, r2, #12
    1810:	0d92      	lsrs	r2, r2, #22
    1812:	0d9b      	lsrs	r3, r3, #22
    1814:	429a      	cmp	r2, r3
    1816:	419b      	sbcs	r3, r3
    1818:	2280      	movs	r2, #128	; 0x80
    181a:	00d2      	lsls	r2, r2, #3
    181c:	4013      	ands	r3, r2
    181e:	4699      	mov	r9, r3
    1820:	4b0d      	ldr	r3, [pc, #52]	; (1858 <lfs_dir_getslice.constprop.38+0x1b8>)
    1822:	469c      	mov	ip, r3
    1824:	44e1      	add	r9, ip
    1826:	e763      	b.n	16f0 <lfs_dir_getslice.constprop.38+0x50>
    1828:	2002      	movs	r0, #2
    182a:	4240      	negs	r0, r0
    182c:	e7e6      	b.n	17fc <lfs_dir_getslice.constprop.38+0x15c>
    182e:	2054      	movs	r0, #84	; 0x54
    1830:	4240      	negs	r0, r0
    1832:	e7e3      	b.n	17fc <lfs_dir_getslice.constprop.38+0x15c>
    1834:	001f      	movs	r7, r3
    1836:	e7c7      	b.n	17c8 <lfs_dir_getslice.constprop.38+0x128>
    1838:	9b13      	ldr	r3, [sp, #76]	; 0x4c
    183a:	2100      	movs	r1, #0
    183c:	1bda      	subs	r2, r3, r7
    183e:	9b12      	ldr	r3, [sp, #72]	; 0x48
    1840:	19d8      	adds	r0, r3, r7
    1842:	f7ff fffe 	bl	0 <memset>
    1846:	0020      	movs	r0, r4
    1848:	4448      	add	r0, r9
    184a:	e7d7      	b.n	17fc <lfs_dir_getslice.constprop.38+0x15c>
    184c:	fff7fc00 	.word	0xfff7fc00
    1850:	000ffc00 	.word	0x000ffc00
    1854:	40100000 	.word	0x40100000
    1858:	fffffc00 	.word	0xfffffc00

0000185c <lfs_dir_getslice.constprop.39>:
    185c:	b5f0      	push	{r4, r5, r6, r7, lr}
    185e:	46de      	mov	lr, fp
    1860:	4657      	mov	r7, sl
    1862:	464e      	mov	r6, r9
    1864:	4645      	mov	r5, r8
    1866:	b5e0      	push	{r5, r6, r7, lr}
    1868:	b08b      	sub	sp, #44	; 0x2c
    186a:	9205      	str	r2, [sp, #20]
    186c:	22e0      	movs	r2, #224	; 0xe0
    186e:	0006      	movs	r6, r0
    1870:	9307      	str	r3, [sp, #28]
    1872:	6bc3      	ldr	r3, [r0, #60]	; 0x3c
    1874:	2000      	movs	r0, #0
    1876:	690c      	ldr	r4, [r1, #16]
    1878:	468b      	mov	fp, r1
    187a:	68cd      	ldr	r5, [r1, #12]
    187c:	00d2      	lsls	r2, r2, #3
    187e:	0d19      	lsrs	r1, r3, #20
    1880:	9409      	str	r4, [sp, #36]	; 0x24
    1882:	4682      	mov	sl, r0
    1884:	4211      	tst	r1, r2
    1886:	d011      	beq.n	18ac <lfs_dir_getslice.constprop.39+0x50>
    1888:	4659      	mov	r1, fp
    188a:	6c32      	ldr	r2, [r6, #64]	; 0x40
    188c:	6809      	ldr	r1, [r1, #0]
    188e:	428a      	cmp	r2, r1
    1890:	d100      	bne.n	1894 <lfs_dir_getslice.constprop.39+0x38>
    1892:	e098      	b.n	19c6 <lfs_dir_getslice.constprop.39+0x16a>
    1894:	4658      	mov	r0, fp
    1896:	6c77      	ldr	r7, [r6, #68]	; 0x44
    1898:	6840      	ldr	r0, [r0, #4]
    189a:	4287      	cmp	r7, r0
    189c:	d100      	bne.n	18a0 <lfs_dir_getslice.constprop.39+0x44>
    189e:	e092      	b.n	19c6 <lfs_dir_getslice.constprop.39+0x16a>
    18a0:	4282      	cmp	r2, r0
    18a2:	d100      	bne.n	18a6 <lfs_dir_getslice.constprop.39+0x4a>
    18a4:	e08f      	b.n	19c6 <lfs_dir_getslice.constprop.39+0x16a>
    18a6:	42b9      	cmp	r1, r7
    18a8:	d100      	bne.n	18ac <lfs_dir_getslice.constprop.39+0x50>
    18aa:	e08c      	b.n	19c6 <lfs_dir_getslice.constprop.39+0x16a>
    18ac:	2368      	movs	r3, #104	; 0x68
    18ae:	469c      	mov	ip, r3
    18b0:	44b4      	add	ip, r6
    18b2:	4663      	mov	r3, ip
    18b4:	46b0      	mov	r8, r6
    18b6:	9306      	str	r3, [sp, #24]
    18b8:	e004      	b.n	18c4 <lfs_dir_getslice.constprop.39+0x68>
    18ba:	4953      	ldr	r1, [pc, #332]	; (1a08 <lfs_dir_getslice.constprop.39+0x1ac>)
    18bc:	4062      	eors	r2, r4
    18be:	420a      	tst	r2, r1
    18c0:	d056      	beq.n	1970 <lfs_dir_getslice.constprop.39+0x114>
    18c2:	001c      	movs	r4, r3
    18c4:	05a6      	lsls	r6, r4, #22
    18c6:	15b7      	asrs	r7, r6, #22
    18c8:	1c7b      	adds	r3, r7, #1
    18ca:	425a      	negs	r2, r3
    18cc:	4153      	adcs	r3, r2
    18ce:	2204      	movs	r2, #4
    18d0:	191b      	adds	r3, r3, r4
    18d2:	059b      	lsls	r3, r3, #22
    18d4:	0d9b      	lsrs	r3, r3, #22
    18d6:	4252      	negs	r2, r2
    18d8:	1ad2      	subs	r2, r2, r3
    18da:	3308      	adds	r3, #8
    18dc:	429d      	cmp	r5, r3
    18de:	d200      	bcs.n	18e2 <lfs_dir_getslice.constprop.39+0x86>
    18e0:	e080      	b.n	19e4 <lfs_dir_getslice.constprop.39+0x188>
    18e2:	465b      	mov	r3, fp
    18e4:	18ad      	adds	r5, r5, r2
    18e6:	681a      	ldr	r2, [r3, #0]
    18e8:	4643      	mov	r3, r8
    18ea:	6e9b      	ldr	r3, [r3, #104]	; 0x68
    18ec:	6a19      	ldr	r1, [r3, #32]
    18ee:	428a      	cmp	r2, r1
    18f0:	d300      	bcc.n	18f4 <lfs_dir_getslice.constprop.39+0x98>
    18f2:	e07a      	b.n	19ea <lfs_dir_getslice.constprop.39+0x18e>
    18f4:	69db      	ldr	r3, [r3, #28]
    18f6:	1d29      	adds	r1, r5, #4
    18f8:	4689      	mov	r9, r1
    18fa:	4299      	cmp	r1, r3
    18fc:	d900      	bls.n	1900 <lfs_dir_getslice.constprop.39+0xa4>
    18fe:	e074      	b.n	19ea <lfs_dir_getslice.constprop.39+0x18e>
    1900:	2304      	movs	r3, #4
    1902:	9303      	str	r3, [sp, #12]
    1904:	ab09      	add	r3, sp, #36	; 0x24
    1906:	9302      	str	r3, [sp, #8]
    1908:	9200      	str	r2, [sp, #0]
    190a:	9501      	str	r5, [sp, #4]
    190c:	2304      	movs	r3, #4
    190e:	4642      	mov	r2, r8
    1910:	2100      	movs	r1, #0
    1912:	9806      	ldr	r0, [sp, #24]
    1914:	f7fe fc44 	bl	1a0 <lfs_bd_read.isra.21.part.22>
    1918:	2800      	cmp	r0, #0
    191a:	d14d      	bne.n	19b8 <lfs_dir_getslice.constprop.39+0x15c>
    191c:	0d22      	lsrs	r2, r4, #20
    191e:	4651      	mov	r1, sl
    1920:	4694      	mov	ip, r2
    1922:	9a05      	ldr	r2, [sp, #20]
    1924:	4660      	mov	r0, ip
    1926:	1a52      	subs	r2, r2, r1
    1928:	21e0      	movs	r1, #224	; 0xe0
    192a:	00c9      	lsls	r1, r1, #3
    192c:	4001      	ands	r1, r0
    192e:	2080      	movs	r0, #128	; 0x80
    1930:	9b09      	ldr	r3, [sp, #36]	; 0x24
    1932:	00c0      	lsls	r0, r0, #3
    1934:	ba1b      	rev	r3, r3
    1936:	4063      	eors	r3, r4
    1938:	005b      	lsls	r3, r3, #1
    193a:	085b      	lsrs	r3, r3, #1
    193c:	9309      	str	r3, [sp, #36]	; 0x24
    193e:	4281      	cmp	r1, r0
    1940:	d1bb      	bne.n	18ba <lfs_dir_getslice.constprop.39+0x5e>
    1942:	0320      	lsls	r0, r4, #12
    1944:	0311      	lsls	r1, r2, #12
    1946:	0d80      	lsrs	r0, r0, #22
    1948:	0d89      	lsrs	r1, r1, #22
    194a:	4288      	cmp	r0, r1
    194c:	d8b5      	bhi.n	18ba <lfs_dir_getslice.constprop.39+0x5e>
    194e:	492f      	ldr	r1, [pc, #188]	; (1a0c <lfs_dir_getslice.constprop.39+0x1b0>)
    1950:	4011      	ands	r1, r2
    1952:	4a2f      	ldr	r2, [pc, #188]	; (1a10 <lfs_dir_getslice.constprop.39+0x1b4>)
    1954:	430a      	orrs	r2, r1
    1956:	42a2      	cmp	r2, r4
    1958:	d044      	beq.n	19e4 <lfs_dir_getslice.constprop.39+0x188>
    195a:	4662      	mov	r2, ip
    195c:	b252      	sxtb	r2, r2
    195e:	0292      	lsls	r2, r2, #10
    1960:	4492      	add	sl, r2
    1962:	4651      	mov	r1, sl
    1964:	9a05      	ldr	r2, [sp, #20]
    1966:	1a52      	subs	r2, r2, r1
    1968:	4927      	ldr	r1, [pc, #156]	; (1a08 <lfs_dir_getslice.constprop.39+0x1ac>)
    196a:	4062      	eors	r2, r4
    196c:	420a      	tst	r2, r1
    196e:	d1a8      	bne.n	18c2 <lfs_dir_getslice.constprop.39+0x66>
    1970:	0033      	movs	r3, r6
    1972:	4646      	mov	r6, r8
    1974:	46b8      	mov	r8, r7
    1976:	001f      	movs	r7, r3
    1978:	4643      	mov	r3, r8
    197a:	3301      	adds	r3, #1
    197c:	d032      	beq.n	19e4 <lfs_dir_getslice.constprop.39+0x188>
    197e:	9b14      	ldr	r3, [sp, #80]	; 0x50
    1980:	0dbf      	lsrs	r7, r7, #22
    1982:	429f      	cmp	r7, r3
    1984:	d834      	bhi.n	19f0 <lfs_dir_getslice.constprop.39+0x194>
    1986:	465b      	mov	r3, fp
    1988:	6eb1      	ldr	r1, [r6, #104]	; 0x68
    198a:	681a      	ldr	r2, [r3, #0]
    198c:	6a0b      	ldr	r3, [r1, #32]
    198e:	429a      	cmp	r2, r3
    1990:	d22b      	bcs.n	19ea <lfs_dir_getslice.constprop.39+0x18e>
    1992:	464b      	mov	r3, r9
    1994:	69c9      	ldr	r1, [r1, #28]
    1996:	18fb      	adds	r3, r7, r3
    1998:	428b      	cmp	r3, r1
    199a:	d826      	bhi.n	19ea <lfs_dir_getslice.constprop.39+0x18e>
    199c:	9b07      	ldr	r3, [sp, #28]
    199e:	9200      	str	r2, [sp, #0]
    19a0:	9302      	str	r3, [sp, #8]
    19a2:	464b      	mov	r3, r9
    19a4:	9703      	str	r7, [sp, #12]
    19a6:	9301      	str	r3, [sp, #4]
    19a8:	0032      	movs	r2, r6
    19aa:	003b      	movs	r3, r7
    19ac:	2100      	movs	r1, #0
    19ae:	9806      	ldr	r0, [sp, #24]
    19b0:	f7fe fbf6 	bl	1a0 <lfs_bd_read.isra.21.part.22>
    19b4:	2800      	cmp	r0, #0
    19b6:	d01d      	beq.n	19f4 <lfs_dir_getslice.constprop.39+0x198>
    19b8:	b00b      	add	sp, #44	; 0x2c
    19ba:	bc3c      	pop	{r2, r3, r4, r5}
    19bc:	4690      	mov	r8, r2
    19be:	4699      	mov	r9, r3
    19c0:	46a2      	mov	sl, r4
    19c2:	46ab      	mov	fp, r5
    19c4:	bdf0      	pop	{r4, r5, r6, r7, pc}
    19c6:	9a05      	ldr	r2, [sp, #20]
    19c8:	031b      	lsls	r3, r3, #12
    19ca:	0312      	lsls	r2, r2, #12
    19cc:	0d92      	lsrs	r2, r2, #22
    19ce:	0d9b      	lsrs	r3, r3, #22
    19d0:	429a      	cmp	r2, r3
    19d2:	419b      	sbcs	r3, r3
    19d4:	2280      	movs	r2, #128	; 0x80
    19d6:	00d2      	lsls	r2, r2, #3
    19d8:	4013      	ands	r3, r2
    19da:	469a      	mov	sl, r3
    19dc:	4b0d      	ldr	r3, [pc, #52]	; (1a14 <lfs_dir_getslice.constprop.39+0x1b8>)
    19de:	469c      	mov	ip, r3
    19e0:	44e2      	add	sl, ip
    19e2:	e763      	b.n	18ac <lfs_dir_getslice.constprop.39+0x50>
    19e4:	2002      	movs	r0, #2
    19e6:	4240      	negs	r0, r0
    19e8:	e7e6      	b.n	19b8 <lfs_dir_getslice.constprop.39+0x15c>
    19ea:	2054      	movs	r0, #84	; 0x54
    19ec:	4240      	negs	r0, r0
    19ee:	e7e3      	b.n	19b8 <lfs_dir_getslice.constprop.39+0x15c>
    19f0:	001f      	movs	r7, r3
    19f2:	e7c8      	b.n	1986 <lfs_dir_getslice.constprop.39+0x12a>
    19f4:	9b14      	ldr	r3, [sp, #80]	; 0x50
    19f6:	2100      	movs	r1, #0
    19f8:	1bda      	subs	r2, r3, r7
    19fa:	9b07      	ldr	r3, [sp, #28]
    19fc:	19d8      	adds	r0, r3, r7
    19fe:	f7ff fffe 	bl	0 <memset>
    1a02:	0020      	movs	r0, r4
    1a04:	4450      	add	r0, sl
    1a06:	e7d7      	b.n	19b8 <lfs_dir_getslice.constprop.39+0x15c>
    1a08:	700ffc00 	.word	0x700ffc00
    1a0c:	000ffc00 	.word	0x000ffc00
    1a10:	40100000 	.word	0x40100000
    1a14:	fffffc00 	.word	0xfffffc00

00001a18 <lfs_fs_rawtraverse.constprop.37>:
    1a18:	b5f0      	push	{r4, r5, r6, r7, lr}
    1a1a:	464e      	mov	r6, r9
    1a1c:	4645      	mov	r5, r8
    1a1e:	46de      	mov	lr, fp
    1a20:	4657      	mov	r7, sl
    1a22:	b5e0      	push	{r5, r6, r7, lr}
    1a24:	b091      	sub	sp, #68	; 0x44
    1a26:	ad08      	add	r5, sp, #32
    1a28:	0006      	movs	r6, r0
    1a2a:	4689      	mov	r9, r1
    1a2c:	221c      	movs	r2, #28
    1a2e:	2100      	movs	r1, #0
    1a30:	0028      	movs	r0, r5
    1a32:	f7ff fffe 	bl	0 <memset>
    1a36:	2301      	movs	r3, #1
    1a38:	61eb      	str	r3, [r5, #28]
    1a3a:	6eb3      	ldr	r3, [r6, #104]	; 0x68
    1a3c:	6a1b      	ldr	r3, [r3, #32]
    1a3e:	085b      	lsrs	r3, r3, #1
    1a40:	d042      	beq.n	1ac8 <lfs_fs_rawtraverse.constprop.37+0xb0>
    1a42:	2300      	movs	r3, #0
    1a44:	9304      	str	r3, [sp, #16]
    1a46:	3b01      	subs	r3, #1
    1a48:	469b      	mov	fp, r3
    1a4a:	4b4d      	ldr	r3, [pc, #308]	; (1b80 <lfs_fs_rawtraverse.constprop.37+0x168>)
    1a4c:	469a      	mov	sl, r3
    1a4e:	464b      	mov	r3, r9
    1a50:	464a      	mov	r2, r9
    1a52:	681b      	ldr	r3, [r3, #0]
    1a54:	0029      	movs	r1, r5
    1a56:	3302      	adds	r3, #2
    1a58:	6013      	str	r3, [r2, #0]
    1a5a:	2300      	movs	r3, #0
    1a5c:	9303      	str	r3, [sp, #12]
    1a5e:	9302      	str	r3, [sp, #8]
    1a60:	9301      	str	r3, [sp, #4]
    1a62:	465b      	mov	r3, fp
    1a64:	9300      	str	r3, [sp, #0]
    1a66:	2301      	movs	r3, #1
    1a68:	aa0e      	add	r2, sp, #56	; 0x38
    1a6a:	425b      	negs	r3, r3
    1a6c:	0030      	movs	r0, r6
    1a6e:	f7ff f9fb 	bl	e68 <lfs_dir_fetchmatch>
    1a72:	2800      	cmp	r0, #0
    1a74:	d12d      	bne.n	1ad2 <lfs_fs_rawtraverse.constprop.37+0xba>
    1a76:	8aab      	ldrh	r3, [r5, #20]
    1a78:	2400      	movs	r4, #0
    1a7a:	2b00      	cmp	r3, #0
    1a7c:	d015      	beq.n	1aaa <lfs_fs_rawtraverse.constprop.37+0x92>
    1a7e:	4b41      	ldr	r3, [pc, #260]	; (1b84 <lfs_fs_rawtraverse.constprop.37+0x16c>)
    1a80:	2708      	movs	r7, #8
    1a82:	4698      	mov	r8, r3
    1a84:	4643      	mov	r3, r8
    1a86:	02a2      	lsls	r2, r4, #10
    1a88:	431a      	orrs	r2, r3
    1a8a:	9700      	str	r7, [sp, #0]
    1a8c:	ab06      	add	r3, sp, #24
    1a8e:	0029      	movs	r1, r5
    1a90:	0030      	movs	r0, r6
    1a92:	f7ff fee3 	bl	185c <lfs_dir_getslice.constprop.39>
    1a96:	2800      	cmp	r0, #0
    1a98:	db19      	blt.n	1ace <lfs_fs_rawtraverse.constprop.37+0xb6>
    1a9a:	0d00      	lsrs	r0, r0, #20
    1a9c:	4550      	cmp	r0, sl
    1a9e:	d01f      	beq.n	1ae0 <lfs_fs_rawtraverse.constprop.37+0xc8>
    1aa0:	3401      	adds	r4, #1
    1aa2:	8aab      	ldrh	r3, [r5, #20]
    1aa4:	b2a4      	uxth	r4, r4
    1aa6:	42a3      	cmp	r3, r4
    1aa8:	d8ec      	bhi.n	1a84 <lfs_fs_rawtraverse.constprop.37+0x6c>
    1aaa:	9b04      	ldr	r3, [sp, #16]
    1aac:	3301      	adds	r3, #1
    1aae:	9304      	str	r3, [sp, #16]
    1ab0:	9b0e      	ldr	r3, [sp, #56]	; 0x38
    1ab2:	3301      	adds	r3, #1
    1ab4:	d025      	beq.n	1b02 <lfs_fs_rawtraverse.constprop.37+0xea>
    1ab6:	9b0f      	ldr	r3, [sp, #60]	; 0x3c
    1ab8:	3301      	adds	r3, #1
    1aba:	d022      	beq.n	1b02 <lfs_fs_rawtraverse.constprop.37+0xea>
    1abc:	6eb3      	ldr	r3, [r6, #104]	; 0x68
    1abe:	9a04      	ldr	r2, [sp, #16]
    1ac0:	6a1b      	ldr	r3, [r3, #32]
    1ac2:	085b      	lsrs	r3, r3, #1
    1ac4:	4293      	cmp	r3, r2
    1ac6:	d8c2      	bhi.n	1a4e <lfs_fs_rawtraverse.constprop.37+0x36>
    1ac8:	2054      	movs	r0, #84	; 0x54
    1aca:	4240      	negs	r0, r0
    1acc:	e001      	b.n	1ad2 <lfs_fs_rawtraverse.constprop.37+0xba>
    1ace:	1c83      	adds	r3, r0, #2
    1ad0:	d0e6      	beq.n	1aa0 <lfs_fs_rawtraverse.constprop.37+0x88>
    1ad2:	b011      	add	sp, #68	; 0x44
    1ad4:	bc3c      	pop	{r2, r3, r4, r5}
    1ad6:	4690      	mov	r8, r2
    1ad8:	4699      	mov	r9, r3
    1ada:	46a2      	mov	sl, r4
    1adc:	46ab      	mov	fp, r5
    1ade:	bdf0      	pop	{r4, r5, r6, r7, pc}
    1ae0:	9b07      	ldr	r3, [sp, #28]
    1ae2:	2b00      	cmp	r3, #0
    1ae4:	d0dc      	beq.n	1aa0 <lfs_fs_rawtraverse.constprop.37+0x88>
    1ae6:	9a06      	ldr	r2, [sp, #24]
    1ae8:	9300      	str	r3, [sp, #0]
    1aea:	9205      	str	r2, [sp, #20]
    1aec:	464a      	mov	r2, r9
    1aee:	9b05      	ldr	r3, [sp, #20]
    1af0:	9201      	str	r2, [sp, #4]
    1af2:	2100      	movs	r1, #0
    1af4:	0032      	movs	r2, r6
    1af6:	0030      	movs	r0, r6
    1af8:	f7fe fc78 	bl	3ec <lfs_ctz_traverse.part.23.constprop.40>
    1afc:	2800      	cmp	r0, #0
    1afe:	d0cf      	beq.n	1aa0 <lfs_fs_rawtraverse.constprop.37+0x88>
    1b00:	e7e7      	b.n	1ad2 <lfs_fs_rawtraverse.constprop.37+0xba>
    1b02:	6ab4      	ldr	r4, [r6, #40]	; 0x28
    1b04:	2c00      	cmp	r4, #0
    1b06:	d039      	beq.n	1b7c <lfs_fs_rawtraverse.constprop.37+0x164>
    1b08:	2390      	movs	r3, #144	; 0x90
    1b0a:	2788      	movs	r7, #136	; 0x88
    1b0c:	2580      	movs	r5, #128	; 0x80
    1b0e:	035b      	lsls	r3, r3, #13
    1b10:	037f      	lsls	r7, r7, #13
    1b12:	026d      	lsls	r5, r5, #9
    1b14:	4698      	mov	r8, r3
    1b16:	e008      	b.n	1b2a <lfs_fs_rawtraverse.constprop.37+0x112>
    1b18:	4642      	mov	r2, r8
    1b1a:	4013      	ands	r3, r2
    1b1c:	2280      	movs	r2, #128	; 0x80
    1b1e:	0292      	lsls	r2, r2, #10
    1b20:	4293      	cmp	r3, r2
    1b22:	d01b      	beq.n	1b5c <lfs_fs_rawtraverse.constprop.37+0x144>
    1b24:	6824      	ldr	r4, [r4, #0]
    1b26:	2c00      	cmp	r4, #0
    1b28:	d028      	beq.n	1b7c <lfs_fs_rawtraverse.constprop.37+0x164>
    1b2a:	79a3      	ldrb	r3, [r4, #6]
    1b2c:	2b01      	cmp	r3, #1
    1b2e:	d1f9      	bne.n	1b24 <lfs_fs_rawtraverse.constprop.37+0x10c>
    1b30:	6b23      	ldr	r3, [r4, #48]	; 0x30
    1b32:	001a      	movs	r2, r3
    1b34:	403a      	ands	r2, r7
    1b36:	42aa      	cmp	r2, r5
    1b38:	d1ee      	bne.n	1b18 <lfs_fs_rawtraverse.constprop.37+0x100>
    1b3a:	6ae2      	ldr	r2, [r4, #44]	; 0x2c
    1b3c:	2a00      	cmp	r2, #0
    1b3e:	d0eb      	beq.n	1b18 <lfs_fs_rawtraverse.constprop.37+0x100>
    1b40:	4649      	mov	r1, r9
    1b42:	6aa3      	ldr	r3, [r4, #40]	; 0x28
    1b44:	9101      	str	r1, [sp, #4]
    1b46:	0021      	movs	r1, r4
    1b48:	9200      	str	r2, [sp, #0]
    1b4a:	3140      	adds	r1, #64	; 0x40
    1b4c:	0032      	movs	r2, r6
    1b4e:	0030      	movs	r0, r6
    1b50:	f7fe fc4c 	bl	3ec <lfs_ctz_traverse.part.23.constprop.40>
    1b54:	2800      	cmp	r0, #0
    1b56:	d1bc      	bne.n	1ad2 <lfs_fs_rawtraverse.constprop.37+0xba>
    1b58:	6b23      	ldr	r3, [r4, #48]	; 0x30
    1b5a:	e7dd      	b.n	1b18 <lfs_fs_rawtraverse.constprop.37+0x100>
    1b5c:	6b62      	ldr	r2, [r4, #52]	; 0x34
    1b5e:	2a00      	cmp	r2, #0
    1b60:	d0e0      	beq.n	1b24 <lfs_fs_rawtraverse.constprop.37+0x10c>
    1b62:	4649      	mov	r1, r9
    1b64:	6ba3      	ldr	r3, [r4, #56]	; 0x38
    1b66:	9101      	str	r1, [sp, #4]
    1b68:	0021      	movs	r1, r4
    1b6a:	9200      	str	r2, [sp, #0]
    1b6c:	3140      	adds	r1, #64	; 0x40
    1b6e:	0032      	movs	r2, r6
    1b70:	0030      	movs	r0, r6
    1b72:	f7fe fc3b 	bl	3ec <lfs_ctz_traverse.part.23.constprop.40>
    1b76:	2800      	cmp	r0, #0
    1b78:	d0d4      	beq.n	1b24 <lfs_fs_rawtraverse.constprop.37+0x10c>
    1b7a:	e7aa      	b.n	1ad2 <lfs_fs_rawtraverse.constprop.37+0xba>
    1b7c:	2000      	movs	r0, #0
    1b7e:	e7a8      	b.n	1ad2 <lfs_fs_rawtraverse.constprop.37+0xba>
    1b80:	00000202 	.word	0x00000202
    1b84:	20000008 	.word	0x20000008

00001b88 <lfs_dir_find>:
    1b88:	b5f0      	push	{r4, r5, r6, r7, lr}
    1b8a:	4657      	mov	r7, sl
    1b8c:	464e      	mov	r6, r9
    1b8e:	46de      	mov	lr, fp
    1b90:	4645      	mov	r5, r8
    1b92:	b5e0      	push	{r5, r6, r7, lr}
    1b94:	4689      	mov	r9, r1
    1b96:	6811      	ldr	r1, [r2, #0]
    1b98:	b08d      	sub	sp, #52	; 0x34
    1b9a:	9207      	str	r2, [sp, #28]
    1b9c:	4682      	mov	sl, r0
    1b9e:	9306      	str	r3, [sp, #24]
    1ba0:	9105      	str	r1, [sp, #20]
    1ba2:	1e1a      	subs	r2, r3, #0
    1ba4:	d001      	beq.n	1baa <lfs_dir_find+0x22>
    1ba6:	4b51      	ldr	r3, [pc, #324]	; (1cec <lfs_dir_find+0x164>)
    1ba8:	8013      	strh	r3, [r2, #0]
    1baa:	4653      	mov	r3, sl
    1bac:	4651      	mov	r1, sl
    1bae:	464a      	mov	r2, r9
    1bb0:	6a5b      	ldr	r3, [r3, #36]	; 0x24
    1bb2:	6a09      	ldr	r1, [r1, #32]
    1bb4:	4e4e      	ldr	r6, [pc, #312]	; (1cf0 <lfs_dir_find+0x168>)
    1bb6:	4d4f      	ldr	r5, [pc, #316]	; (1cf4 <lfs_dir_find+0x16c>)
    1bb8:	6191      	str	r1, [r2, #24]
    1bba:	61d3      	str	r3, [r2, #28]
    1bbc:	9c05      	ldr	r4, [sp, #20]
    1bbe:	0029      	movs	r1, r5
    1bc0:	0020      	movs	r0, r4
    1bc2:	f7ff fffe 	bl	0 <strspn>
    1bc6:	1827      	adds	r7, r4, r0
    1bc8:	0029      	movs	r1, r5
    1bca:	0038      	movs	r0, r7
    1bcc:	f7ff fffe 	bl	0 <strcspn>
    1bd0:	4680      	mov	r8, r0
    1bd2:	2801      	cmp	r0, #1
    1bd4:	d100      	bne.n	1bd8 <lfs_dir_find+0x50>
    1bd6:	e074      	b.n	1cc2 <lfs_dir_find+0x13a>
    1bd8:	2802      	cmp	r0, #2
    1bda:	d103      	bne.n	1be4 <lfs_dir_find+0x5c>
    1bdc:	783b      	ldrb	r3, [r7, #0]
    1bde:	2b2e      	cmp	r3, #46	; 0x2e
    1be0:	d100      	bne.n	1be4 <lfs_dir_find+0x5c>
    1be2:	e076      	b.n	1cd2 <lfs_dir_find+0x14a>
    1be4:	003b      	movs	r3, r7
    1be6:	4443      	add	r3, r8
    1be8:	9305      	str	r3, [sp, #20]
    1bea:	001c      	movs	r4, r3
    1bec:	2301      	movs	r3, #1
    1bee:	469b      	mov	fp, r3
    1bf0:	003b      	movs	r3, r7
    1bf2:	465f      	mov	r7, fp
    1bf4:	469b      	mov	fp, r3
    1bf6:	0029      	movs	r1, r5
    1bf8:	0020      	movs	r0, r4
    1bfa:	f7ff fffe 	bl	0 <strspn>
    1bfe:	1824      	adds	r4, r4, r0
    1c00:	0029      	movs	r1, r5
    1c02:	0020      	movs	r0, r4
    1c04:	f7ff fffe 	bl	0 <strcspn>
    1c08:	2800      	cmp	r0, #0
    1c0a:	d010      	beq.n	1c2e <lfs_dir_find+0xa6>
    1c0c:	2802      	cmp	r0, #2
    1c0e:	d002      	beq.n	1c16 <lfs_dir_find+0x8e>
    1c10:	3701      	adds	r7, #1
    1c12:	1824      	adds	r4, r4, r0
    1c14:	e7ef      	b.n	1bf6 <lfs_dir_find+0x6e>
    1c16:	7823      	ldrb	r3, [r4, #0]
    1c18:	2b2e      	cmp	r3, #46	; 0x2e
    1c1a:	d1f9      	bne.n	1c10 <lfs_dir_find+0x88>
    1c1c:	7863      	ldrb	r3, [r4, #1]
    1c1e:	2b2e      	cmp	r3, #46	; 0x2e
    1c20:	d1f6      	bne.n	1c10 <lfs_dir_find+0x88>
    1c22:	3f01      	subs	r7, #1
    1c24:	2f00      	cmp	r7, #0
    1c26:	d1f4      	bne.n	1c12 <lfs_dir_find+0x8a>
    1c28:	1ca3      	adds	r3, r4, #2
    1c2a:	9305      	str	r3, [sp, #20]
    1c2c:	e7c6      	b.n	1bbc <lfs_dir_find+0x34>
    1c2e:	465f      	mov	r7, fp
    1c30:	783b      	ldrb	r3, [r7, #0]
    1c32:	2b00      	cmp	r3, #0
    1c34:	d03d      	beq.n	1cb2 <lfs_dir_find+0x12a>
    1c36:	9b07      	ldr	r3, [sp, #28]
    1c38:	601f      	str	r7, [r3, #0]
    1c3a:	0d33      	lsrs	r3, r6, #20
    1c3c:	2b02      	cmp	r3, #2
    1c3e:	d151      	bne.n	1ce4 <lfs_dir_find+0x15c>
    1c40:	3316      	adds	r3, #22
    1c42:	444b      	add	r3, r9
    1c44:	469b      	mov	fp, r3
    1c46:	4b29      	ldr	r3, [pc, #164]	; (1cec <lfs_dir_find+0x164>)
    1c48:	0336      	lsls	r6, r6, #12
    1c4a:	0db6      	lsrs	r6, r6, #22
    1c4c:	429e      	cmp	r6, r3
    1c4e:	d00b      	beq.n	1c68 <lfs_dir_find+0xe0>
    1c50:	2308      	movs	r3, #8
    1c52:	4a29      	ldr	r2, [pc, #164]	; (1cf8 <lfs_dir_find+0x170>)
    1c54:	02b6      	lsls	r6, r6, #10
    1c56:	4332      	orrs	r2, r6
    1c58:	9300      	str	r3, [sp, #0]
    1c5a:	4649      	mov	r1, r9
    1c5c:	465b      	mov	r3, fp
    1c5e:	4650      	mov	r0, sl
    1c60:	f7ff fdfc 	bl	185c <lfs_dir_getslice.constprop.39>
    1c64:	1e06      	subs	r6, r0, #0
    1c66:	db24      	blt.n	1cb2 <lfs_dir_find+0x12a>
    1c68:	ac09      	add	r4, sp, #36	; 0x24
    1c6a:	4646      	mov	r6, r8
    1c6c:	e017      	b.n	1c9e <lfs_dir_find+0x116>
    1c6e:	2300      	movs	r3, #0
    1c70:	4652      	mov	r2, sl
    1c72:	6067      	str	r7, [r4, #4]
    1c74:	6022      	str	r2, [r4, #0]
    1c76:	60a6      	str	r6, [r4, #8]
    1c78:	9301      	str	r3, [sp, #4]
    1c7a:	23f0      	movs	r3, #240	; 0xf0
    1c7c:	4a1f      	ldr	r2, [pc, #124]	; (1cfc <lfs_dir_find+0x174>)
    1c7e:	9403      	str	r4, [sp, #12]
    1c80:	9202      	str	r2, [sp, #8]
    1c82:	9600      	str	r6, [sp, #0]
    1c84:	05db      	lsls	r3, r3, #23
    1c86:	465a      	mov	r2, fp
    1c88:	4649      	mov	r1, r9
    1c8a:	4650      	mov	r0, sl
    1c8c:	f7ff f8ec 	bl	e68 <lfs_dir_fetchmatch>
    1c90:	2800      	cmp	r0, #0
    1c92:	db23      	blt.n	1cdc <lfs_dir_find+0x154>
    1c94:	d124      	bne.n	1ce0 <lfs_dir_find+0x158>
    1c96:	464b      	mov	r3, r9
    1c98:	7ddb      	ldrb	r3, [r3, #23]
    1c9a:	2b00      	cmp	r3, #0
    1c9c:	d007      	beq.n	1cae <lfs_dir_find+0x126>
    1c9e:	212f      	movs	r1, #47	; 0x2f
    1ca0:	0038      	movs	r0, r7
    1ca2:	f7ff fffe 	bl	0 <strchr>
    1ca6:	2800      	cmp	r0, #0
    1ca8:	d1e1      	bne.n	1c6e <lfs_dir_find+0xe6>
    1caa:	9b06      	ldr	r3, [sp, #24]
    1cac:	e7e0      	b.n	1c70 <lfs_dir_find+0xe8>
    1cae:	2602      	movs	r6, #2
    1cb0:	4276      	negs	r6, r6
    1cb2:	0030      	movs	r0, r6
    1cb4:	b00d      	add	sp, #52	; 0x34
    1cb6:	bc3c      	pop	{r2, r3, r4, r5}
    1cb8:	4690      	mov	r8, r2
    1cba:	4699      	mov	r9, r3
    1cbc:	46a2      	mov	sl, r4
    1cbe:	46ab      	mov	fp, r5
    1cc0:	bdf0      	pop	{r4, r5, r6, r7, pc}
    1cc2:	783b      	ldrb	r3, [r7, #0]
    1cc4:	2b2e      	cmp	r3, #46	; 0x2e
    1cc6:	d000      	beq.n	1cca <lfs_dir_find+0x142>
    1cc8:	e78c      	b.n	1be4 <lfs_dir_find+0x5c>
    1cca:	003b      	movs	r3, r7
    1ccc:	4443      	add	r3, r8
    1cce:	9305      	str	r3, [sp, #20]
    1cd0:	e774      	b.n	1bbc <lfs_dir_find+0x34>
    1cd2:	787b      	ldrb	r3, [r7, #1]
    1cd4:	2b2e      	cmp	r3, #46	; 0x2e
    1cd6:	d000      	beq.n	1cda <lfs_dir_find+0x152>
    1cd8:	e784      	b.n	1be4 <lfs_dir_find+0x5c>
    1cda:	e7f6      	b.n	1cca <lfs_dir_find+0x142>
    1cdc:	0006      	movs	r6, r0
    1cde:	e7e8      	b.n	1cb2 <lfs_dir_find+0x12a>
    1ce0:	0006      	movs	r6, r0
    1ce2:	e76b      	b.n	1bbc <lfs_dir_find+0x34>
    1ce4:	2614      	movs	r6, #20
    1ce6:	4276      	negs	r6, r6
    1ce8:	e7e3      	b.n	1cb2 <lfs_dir_find+0x12a>
    1cea:	46c0      	nop			; (mov r8, r8)
    1cec:	000003ff 	.word	0x000003ff
    1cf0:	002ffc00 	.word	0x002ffc00
    1cf4:	00000078 	.word	0x00000078
    1cf8:	20000008 	.word	0x20000008
    1cfc:	00000000 	.word	0x00000000

00001d00 <lfs_dir_commitcrc>:
    1d00:	b5f0      	push	{r4, r5, r6, r7, lr}
    1d02:	6e83      	ldr	r3, [r0, #104]	; 0x68
    1d04:	46de      	mov	lr, fp
    1d06:	4657      	mov	r7, sl
    1d08:	464e      	mov	r6, r9
    1d0a:	4645      	mov	r5, r8
    1d0c:	469a      	mov	sl, r3
    1d0e:	b5e0      	push	{r5, r6, r7, lr}
    1d10:	699b      	ldr	r3, [r3, #24]
    1d12:	684e      	ldr	r6, [r1, #4]
    1d14:	b093      	sub	sp, #76	; 0x4c
    1d16:	18f4      	adds	r4, r6, r3
    1d18:	4653      	mov	r3, sl
    1d1a:	3407      	adds	r4, #7
    1d1c:	0007      	movs	r7, r0
    1d1e:	4689      	mov	r9, r1
    1d20:	0020      	movs	r0, r4
    1d22:	6999      	ldr	r1, [r3, #24]
    1d24:	f7ff fffe 	bl	0 <__aeabi_uidivmod>
    1d28:	1a63      	subs	r3, r4, r1
    1d2a:	469b      	mov	fp, r3
    1d2c:	429e      	cmp	r6, r3
    1d2e:	d300      	bcc.n	1d32 <lfs_dir_commitcrc+0x32>
    1d30:	e17d      	b.n	202e <lfs_dir_commitcrc+0x32e>
    1d32:	2368      	movs	r3, #104	; 0x68
    1d34:	469c      	mov	ip, r3
    1d36:	44bc      	add	ip, r7
    1d38:	4663      	mov	r3, ip
    1d3a:	9307      	str	r3, [sp, #28]
    1d3c:	2300      	movs	r3, #0
    1d3e:	0035      	movs	r5, r6
    1d40:	464c      	mov	r4, r9
    1d42:	4656      	mov	r6, sl
    1d44:	9309      	str	r3, [sp, #36]	; 0x24
    1d46:	9306      	str	r3, [sp, #24]
    1d48:	3b08      	subs	r3, #8
    1d4a:	445b      	add	r3, fp
    1d4c:	930a      	str	r3, [sp, #40]	; 0x28
    1d4e:	1d2b      	adds	r3, r5, #4
    1d50:	4698      	mov	r8, r3
    1d52:	465b      	mov	r3, fp
    1d54:	4642      	mov	r2, r8
    1d56:	1a9d      	subs	r5, r3, r2
    1d58:	4bb7      	ldr	r3, [pc, #732]	; (2038 <lfs_dir_commitcrc+0x338>)
    1d5a:	429d      	cmp	r5, r3
    1d5c:	d900      	bls.n	1d60 <lfs_dir_commitcrc+0x60>
    1d5e:	001d      	movs	r5, r3
    1d60:	4445      	add	r5, r8
    1d62:	455d      	cmp	r5, fp
    1d64:	d203      	bcs.n	1d6e <lfs_dir_commitcrc+0x6e>
    1d66:	9b0a      	ldr	r3, [sp, #40]	; 0x28
    1d68:	429d      	cmp	r5, r3
    1d6a:	d900      	bls.n	1d6e <lfs_dir_commitcrc+0x6e>
    1d6c:	001d      	movs	r5, r3
    1d6e:	2301      	movs	r3, #1
    1d70:	425b      	negs	r3, r3
    1d72:	930f      	str	r3, [sp, #60]	; 0x3c
    1d74:	6822      	ldr	r2, [r4, #0]
    1d76:	6a33      	ldr	r3, [r6, #32]
    1d78:	429a      	cmp	r2, r3
    1d7a:	d300      	bcc.n	1d7e <lfs_dir_commitcrc+0x7e>
    1d7c:	e144      	b.n	2008 <lfs_dir_commitcrc+0x308>
    1d7e:	69f1      	ldr	r1, [r6, #28]
    1d80:	1d2b      	adds	r3, r5, #4
    1d82:	428b      	cmp	r3, r1
    1d84:	d900      	bls.n	1d88 <lfs_dir_commitcrc+0x88>
    1d86:	e13f      	b.n	2008 <lfs_dir_commitcrc+0x308>
    1d88:	2304      	movs	r3, #4
    1d8a:	9303      	str	r3, [sp, #12]
    1d8c:	ab0f      	add	r3, sp, #60	; 0x3c
    1d8e:	9302      	str	r3, [sp, #8]
    1d90:	9200      	str	r2, [sp, #0]
    1d92:	9501      	str	r5, [sp, #4]
    1d94:	2304      	movs	r3, #4
    1d96:	003a      	movs	r2, r7
    1d98:	2100      	movs	r1, #0
    1d9a:	9807      	ldr	r0, [sp, #28]
    1d9c:	f7fe fa00 	bl	1a0 <lfs_bd_read.isra.21.part.22>
    1da0:	2800      	cmp	r0, #0
    1da2:	d003      	beq.n	1dac <lfs_dir_commitcrc+0xac>
    1da4:	0003      	movs	r3, r0
    1da6:	3354      	adds	r3, #84	; 0x54
    1da8:	d000      	beq.n	1dac <lfs_dir_commitcrc+0xac>
    1daa:	e124      	b.n	1ff6 <lfs_dir_commitcrc+0x2f6>
    1dac:	22a0      	movs	r2, #160	; 0xa0
    1dae:	9b0f      	ldr	r3, [sp, #60]	; 0x3c
    1db0:	00d2      	lsls	r2, r2, #3
    1db2:	ba1b      	rev	r3, r3
    1db4:	43db      	mvns	r3, r3
    1db6:	4694      	mov	ip, r2
    1db8:	9305      	str	r3, [sp, #20]
    1dba:	0fdb      	lsrs	r3, r3, #31
    1dbc:	4463      	add	r3, ip
    1dbe:	051b      	lsls	r3, r3, #20
    1dc0:	4642      	mov	r2, r8
    1dc2:	1aad      	subs	r5, r5, r2
    1dc4:	431d      	orrs	r5, r3
    1dc6:	4b9d      	ldr	r3, [pc, #628]	; (203c <lfs_dir_commitcrc+0x33c>)
    1dc8:	68e0      	ldr	r0, [r4, #12]
    1dca:	431d      	orrs	r5, r3
    1dcc:	68a3      	ldr	r3, [r4, #8]
    1dce:	950f      	str	r5, [sp, #60]	; 0x3c
    1dd0:	405d      	eors	r5, r3
    1dd2:	ba2d      	rev	r5, r5
    1dd4:	2204      	movs	r2, #4
    1dd6:	a910      	add	r1, sp, #64	; 0x40
    1dd8:	9510      	str	r5, [sp, #64]	; 0x40
    1dda:	f7ff fffe 	bl	0 <lfs_crc>
    1dde:	6823      	ldr	r3, [r4, #0]
    1de0:	60e0      	str	r0, [r4, #12]
    1de2:	469a      	mov	sl, r3
    1de4:	ab10      	add	r3, sp, #64	; 0x40
    1de6:	4699      	mov	r9, r3
    1de8:	2308      	movs	r3, #8
    1dea:	4698      	mov	r8, r3
    1dec:	0023      	movs	r3, r4
    1dee:	6865      	ldr	r5, [r4, #4]
    1df0:	9011      	str	r0, [sp, #68]	; 0x44
    1df2:	4644      	mov	r4, r8
    1df4:	6ebe      	ldr	r6, [r7, #104]	; 0x68
    1df6:	46c8      	mov	r8, r9
    1df8:	4699      	mov	r9, r3
    1dfa:	e00b      	b.n	1e14 <lfs_dir_commitcrc+0x114>
    1dfc:	4653      	mov	r3, sl
    1dfe:	69b1      	ldr	r1, [r6, #24]
    1e00:	613b      	str	r3, [r7, #16]
    1e02:	0028      	movs	r0, r5
    1e04:	f7ff fffe 	bl	0 <__aeabi_uidivmod>
    1e08:	2300      	movs	r3, #0
    1e0a:	1a69      	subs	r1, r5, r1
    1e0c:	6179      	str	r1, [r7, #20]
    1e0e:	61bb      	str	r3, [r7, #24]
    1e10:	2c00      	cmp	r4, #0
    1e12:	d04d      	beq.n	1eb0 <lfs_dir_commitcrc+0x1b0>
    1e14:	693b      	ldr	r3, [r7, #16]
    1e16:	459a      	cmp	sl, r3
    1e18:	d1f0      	bne.n	1dfc <lfs_dir_commitcrc+0xfc>
    1e1a:	6978      	ldr	r0, [r7, #20]
    1e1c:	42a8      	cmp	r0, r5
    1e1e:	d8ed      	bhi.n	1dfc <lfs_dir_commitcrc+0xfc>
    1e20:	6ab3      	ldr	r3, [r6, #40]	; 0x28
    1e22:	18c3      	adds	r3, r0, r3
    1e24:	42ab      	cmp	r3, r5
    1e26:	d9e9      	bls.n	1dfc <lfs_dir_commitcrc+0xfc>
    1e28:	1b5e      	subs	r6, r3, r5
    1e2a:	42a6      	cmp	r6, r4
    1e2c:	d900      	bls.n	1e30 <lfs_dir_commitcrc+0x130>
    1e2e:	0026      	movs	r6, r4
    1e30:	69fb      	ldr	r3, [r7, #28]
    1e32:	1a28      	subs	r0, r5, r0
    1e34:	469c      	mov	ip, r3
    1e36:	4641      	mov	r1, r8
    1e38:	4460      	add	r0, ip
    1e3a:	0032      	movs	r2, r6
    1e3c:	f7ff fffe 	bl	0 <memcpy>
    1e40:	697b      	ldr	r3, [r7, #20]
    1e42:	69b9      	ldr	r1, [r7, #24]
    1e44:	19ad      	adds	r5, r5, r6
    1e46:	9308      	str	r3, [sp, #32]
    1e48:	44b0      	add	r8, r6
    1e4a:	1ba4      	subs	r4, r4, r6
    1e4c:	1aeb      	subs	r3, r5, r3
    1e4e:	4299      	cmp	r1, r3
    1e50:	d200      	bcs.n	1e54 <lfs_dir_commitcrc+0x154>
    1e52:	0019      	movs	r1, r3
    1e54:	6ebe      	ldr	r6, [r7, #104]	; 0x68
    1e56:	61b9      	str	r1, [r7, #24]
    1e58:	6ab3      	ldr	r3, [r6, #40]	; 0x28
    1e5a:	4299      	cmp	r1, r3
    1e5c:	d1d8      	bne.n	1e10 <lfs_dir_commitcrc+0x110>
    1e5e:	693b      	ldr	r3, [r7, #16]
    1e60:	930b      	str	r3, [sp, #44]	; 0x2c
    1e62:	3302      	adds	r3, #2
    1e64:	2b01      	cmp	r3, #1
    1e66:	d9d3      	bls.n	1e10 <lfs_dir_commitcrc+0x110>
    1e68:	69b2      	ldr	r2, [r6, #24]
    1e6a:	69f8      	ldr	r0, [r7, #28]
    1e6c:	1e53      	subs	r3, r2, #1
    1e6e:	185a      	adds	r2, r3, r1
    1e70:	900d      	str	r0, [sp, #52]	; 0x34
    1e72:	69b1      	ldr	r1, [r6, #24]
    1e74:	0010      	movs	r0, r2
    1e76:	920c      	str	r2, [sp, #48]	; 0x30
    1e78:	f7ff fffe 	bl	0 <__aeabi_uidivmod>
    1e7c:	9a0c      	ldr	r2, [sp, #48]	; 0x30
    1e7e:	0030      	movs	r0, r6
    1e80:	1a51      	subs	r1, r2, r1
    1e82:	9100      	str	r1, [sp, #0]
    1e84:	68b2      	ldr	r2, [r6, #8]
    1e86:	9b0d      	ldr	r3, [sp, #52]	; 0x34
    1e88:	920c      	str	r2, [sp, #48]	; 0x30
    1e8a:	990b      	ldr	r1, [sp, #44]	; 0x2c
    1e8c:	9a08      	ldr	r2, [sp, #32]
    1e8e:	9e0c      	ldr	r6, [sp, #48]	; 0x30
    1e90:	47b0      	blx	r6
    1e92:	2800      	cmp	r0, #0
    1e94:	d000      	beq.n	1e98 <lfs_dir_commitcrc+0x198>
    1e96:	e0ae      	b.n	1ff6 <lfs_dir_commitcrc+0x2f6>
    1e98:	6ebb      	ldr	r3, [r7, #104]	; 0x68
    1e9a:	21ff      	movs	r1, #255	; 0xff
    1e9c:	6a9a      	ldr	r2, [r3, #40]	; 0x28
    1e9e:	69f8      	ldr	r0, [r7, #28]
    1ea0:	f7ff fffe 	bl	0 <memset>
    1ea4:	2301      	movs	r3, #1
    1ea6:	425b      	negs	r3, r3
    1ea8:	613b      	str	r3, [r7, #16]
    1eaa:	6ebe      	ldr	r6, [r7, #104]	; 0x68
    1eac:	2c00      	cmp	r4, #0
    1eae:	d1b1      	bne.n	1e14 <lfs_dir_commitcrc+0x114>
    1eb0:	464c      	mov	r4, r9
    1eb2:	9b06      	ldr	r3, [sp, #24]
    1eb4:	6865      	ldr	r5, [r4, #4]
    1eb6:	2b00      	cmp	r3, #0
    1eb8:	d103      	bne.n	1ec2 <lfs_dir_commitcrc+0x1c2>
    1eba:	1d2b      	adds	r3, r5, #4
    1ebc:	9306      	str	r3, [sp, #24]
    1ebe:	68e3      	ldr	r3, [r4, #12]
    1ec0:	9309      	str	r3, [sp, #36]	; 0x24
    1ec2:	9a0f      	ldr	r2, [sp, #60]	; 0x3c
    1ec4:	0593      	lsls	r3, r2, #22
    1ec6:	0d9b      	lsrs	r3, r3, #22
    1ec8:	3304      	adds	r3, #4
    1eca:	195d      	adds	r5, r3, r5
    1ecc:	9b05      	ldr	r3, [sp, #20]
    1ece:	6065      	str	r5, [r4, #4]
    1ed0:	0fdb      	lsrs	r3, r3, #31
    1ed2:	07db      	lsls	r3, r3, #31
    1ed4:	4053      	eors	r3, r2
    1ed6:	60a3      	str	r3, [r4, #8]
    1ed8:	2301      	movs	r3, #1
    1eda:	425b      	negs	r3, r3
    1edc:	60e3      	str	r3, [r4, #12]
    1ede:	455d      	cmp	r5, fp
    1ee0:	d200      	bcs.n	1ee4 <lfs_dir_commitcrc+0x1e4>
    1ee2:	e734      	b.n	1d4e <lfs_dir_commitcrc+0x4e>
    1ee4:	46b2      	mov	sl, r6
    1ee6:	46a1      	mov	r9, r4
    1ee8:	2601      	movs	r6, #1
    1eea:	693d      	ldr	r5, [r7, #16]
    1eec:	4276      	negs	r6, r6
    1eee:	1cab      	adds	r3, r5, #2
    1ef0:	603e      	str	r6, [r7, #0]
    1ef2:	2b01      	cmp	r3, #1
    1ef4:	d922      	bls.n	1f3c <lfs_dir_commitcrc+0x23c>
    1ef6:	69bb      	ldr	r3, [r7, #24]
    1ef8:	697a      	ldr	r2, [r7, #20]
    1efa:	199c      	adds	r4, r3, r6
    1efc:	4653      	mov	r3, sl
    1efe:	699b      	ldr	r3, [r3, #24]
    1f00:	4690      	mov	r8, r2
    1f02:	469c      	mov	ip, r3
    1f04:	69fb      	ldr	r3, [r7, #28]
    1f06:	4464      	add	r4, ip
    1f08:	4661      	mov	r1, ip
    1f0a:	0020      	movs	r0, r4
    1f0c:	9305      	str	r3, [sp, #20]
    1f0e:	f7ff fffe 	bl	0 <__aeabi_uidivmod>
    1f12:	4652      	mov	r2, sl
    1f14:	1a64      	subs	r4, r4, r1
    1f16:	9400      	str	r4, [sp, #0]
    1f18:	6894      	ldr	r4, [r2, #8]
    1f1a:	4650      	mov	r0, sl
    1f1c:	9b05      	ldr	r3, [sp, #20]
    1f1e:	4642      	mov	r2, r8
    1f20:	0029      	movs	r1, r5
    1f22:	47a0      	blx	r4
    1f24:	4682      	mov	sl, r0
    1f26:	2800      	cmp	r0, #0
    1f28:	d166      	bne.n	1ff8 <lfs_dir_commitcrc+0x2f8>
    1f2a:	6ebb      	ldr	r3, [r7, #104]	; 0x68
    1f2c:	21ff      	movs	r1, #255	; 0xff
    1f2e:	6a9a      	ldr	r2, [r3, #40]	; 0x28
    1f30:	69f8      	ldr	r0, [r7, #28]
    1f32:	f7ff fffe 	bl	0 <memset>
    1f36:	6ebb      	ldr	r3, [r7, #104]	; 0x68
    1f38:	613e      	str	r6, [r7, #16]
    1f3a:	469a      	mov	sl, r3
    1f3c:	4653      	mov	r3, sl
    1f3e:	4650      	mov	r0, sl
    1f40:	691b      	ldr	r3, [r3, #16]
    1f42:	4798      	blx	r3
    1f44:	4682      	mov	sl, r0
    1f46:	2800      	cmp	r0, #0
    1f48:	d156      	bne.n	1ff8 <lfs_dir_commitcrc+0x2f8>
    1f4a:	464b      	mov	r3, r9
    1f4c:	691a      	ldr	r2, [r3, #16]
    1f4e:	9b06      	ldr	r3, [sp, #24]
    1f50:	9307      	str	r3, [sp, #28]
    1f52:	2368      	movs	r3, #104	; 0x68
    1f54:	469c      	mov	ip, r3
    1f56:	44bc      	add	ip, r7
    1f58:	4663      	mov	r3, ip
    1f5a:	9305      	str	r3, [sp, #20]
    1f5c:	4593      	cmp	fp, r2
    1f5e:	d94b      	bls.n	1ff8 <lfs_dir_commitcrc+0x2f8>
    1f60:	465b      	mov	r3, fp
    1f62:	9308      	str	r3, [sp, #32]
    1f64:	9b06      	ldr	r3, [sp, #24]
    1f66:	46b8      	mov	r8, r7
    1f68:	469b      	mov	fp, r3
    1f6a:	9006      	str	r0, [sp, #24]
    1f6c:	9b07      	ldr	r3, [sp, #28]
    1f6e:	1d1e      	adds	r6, r3, #4
    1f70:	42b2      	cmp	r2, r6
    1f72:	d24e      	bcs.n	2012 <lfs_dir_commitcrc+0x312>
    1f74:	2301      	movs	r3, #1
    1f76:	469a      	mov	sl, r3
    1f78:	4643      	mov	r3, r8
    1f7a:	2501      	movs	r5, #1
    1f7c:	46b0      	mov	r8, r6
    1f7e:	001e      	movs	r6, r3
    1f80:	426d      	negs	r5, r5
    1f82:	af10      	add	r7, sp, #64	; 0x40
    1f84:	455a      	cmp	r2, fp
    1f86:	d102      	bne.n	1f8e <lfs_dir_commitcrc+0x28e>
    1f88:	9b09      	ldr	r3, [sp, #36]	; 0x24
    1f8a:	429d      	cmp	r5, r3
    1f8c:	d141      	bne.n	2012 <lfs_dir_commitcrc+0x312>
    1f8e:	4649      	mov	r1, r9
    1f90:	4643      	mov	r3, r8
    1f92:	6808      	ldr	r0, [r1, #0]
    1f94:	6eb1      	ldr	r1, [r6, #104]	; 0x68
    1f96:	1a9b      	subs	r3, r3, r2
    1f98:	6a0c      	ldr	r4, [r1, #32]
    1f9a:	42a0      	cmp	r0, r4
    1f9c:	d239      	bcs.n	2012 <lfs_dir_commitcrc+0x312>
    1f9e:	69c9      	ldr	r1, [r1, #28]
    1fa0:	1c54      	adds	r4, r2, #1
    1fa2:	428c      	cmp	r4, r1
    1fa4:	d835      	bhi.n	2012 <lfs_dir_commitcrc+0x312>
    1fa6:	4651      	mov	r1, sl
    1fa8:	9201      	str	r2, [sp, #4]
    1faa:	9103      	str	r1, [sp, #12]
    1fac:	9000      	str	r0, [sp, #0]
    1fae:	9702      	str	r7, [sp, #8]
    1fb0:	0032      	movs	r2, r6
    1fb2:	2100      	movs	r1, #0
    1fb4:	9805      	ldr	r0, [sp, #20]
    1fb6:	f7fe f8f3 	bl	1a0 <lfs_bd_read.isra.21.part.22>
    1fba:	2800      	cmp	r0, #0
    1fbc:	d11b      	bne.n	1ff6 <lfs_dir_commitcrc+0x2f6>
    1fbe:	2201      	movs	r2, #1
    1fc0:	0028      	movs	r0, r5
    1fc2:	0039      	movs	r1, r7
    1fc4:	f7ff fffe 	bl	0 <lfs_crc>
    1fc8:	0022      	movs	r2, r4
    1fca:	0005      	movs	r5, r0
    1fcc:	4544      	cmp	r4, r8
    1fce:	d3d9      	bcc.n	1f84 <lfs_dir_commitcrc+0x284>
    1fd0:	46b0      	mov	r8, r6
    1fd2:	2800      	cmp	r0, #0
    1fd4:	d11d      	bne.n	2012 <lfs_dir_commitcrc+0x312>
    1fd6:	9a07      	ldr	r2, [sp, #28]
    1fd8:	9b08      	ldr	r3, [sp, #32]
    1fda:	1a9b      	subs	r3, r3, r2
    1fdc:	4a16      	ldr	r2, [pc, #88]	; (2038 <lfs_dir_commitcrc+0x338>)
    1fde:	4293      	cmp	r3, r2
    1fe0:	d900      	bls.n	1fe4 <lfs_dir_commitcrc+0x2e4>
    1fe2:	0013      	movs	r3, r2
    1fe4:	9a07      	ldr	r2, [sp, #28]
    1fe6:	4694      	mov	ip, r2
    1fe8:	9a08      	ldr	r2, [sp, #32]
    1fea:	4463      	add	r3, ip
    1fec:	429a      	cmp	r2, r3
    1fee:	d814      	bhi.n	201a <lfs_dir_commitcrc+0x31a>
    1ff0:	9b06      	ldr	r3, [sp, #24]
    1ff2:	469a      	mov	sl, r3
    1ff4:	e000      	b.n	1ff8 <lfs_dir_commitcrc+0x2f8>
    1ff6:	4682      	mov	sl, r0
    1ff8:	4650      	mov	r0, sl
    1ffa:	b013      	add	sp, #76	; 0x4c
    1ffc:	bc3c      	pop	{r2, r3, r4, r5}
    1ffe:	4690      	mov	r8, r2
    2000:	4699      	mov	r9, r3
    2002:	46a2      	mov	sl, r4
    2004:	46ab      	mov	fp, r5
    2006:	bdf0      	pop	{r4, r5, r6, r7, pc}
    2008:	23a0      	movs	r3, #160	; 0xa0
    200a:	2200      	movs	r2, #0
    200c:	05db      	lsls	r3, r3, #23
    200e:	9205      	str	r2, [sp, #20]
    2010:	e6d6      	b.n	1dc0 <lfs_dir_commitcrc+0xc0>
    2012:	2354      	movs	r3, #84	; 0x54
    2014:	425b      	negs	r3, r3
    2016:	469a      	mov	sl, r3
    2018:	e7ee      	b.n	1ff8 <lfs_dir_commitcrc+0x2f8>
    201a:	3a08      	subs	r2, #8
    201c:	429a      	cmp	r2, r3
    201e:	d900      	bls.n	2022 <lfs_dir_commitcrc+0x322>
    2020:	001a      	movs	r2, r3
    2022:	1d13      	adds	r3, r2, #4
    2024:	9307      	str	r3, [sp, #28]
    2026:	9b08      	ldr	r3, [sp, #32]
    2028:	4293      	cmp	r3, r2
    202a:	d89f      	bhi.n	1f6c <lfs_dir_commitcrc+0x26c>
    202c:	e7e0      	b.n	1ff0 <lfs_dir_commitcrc+0x2f0>
    202e:	2300      	movs	r3, #0
    2030:	9309      	str	r3, [sp, #36]	; 0x24
    2032:	9306      	str	r3, [sp, #24]
    2034:	e758      	b.n	1ee8 <lfs_dir_commitcrc+0x1e8>
    2036:	46c0      	nop			; (mov r8, r8)
    2038:	000003fe 	.word	0x000003fe
    203c:	000ffc00 	.word	0x000ffc00

00002040 <lfs_alloc>:
    2040:	b5f0      	push	{r4, r5, r6, r7, lr}
    2042:	231f      	movs	r3, #31
    2044:	46de      	mov	lr, fp
    2046:	4657      	mov	r7, sl
    2048:	464e      	mov	r6, r9
    204a:	4645      	mov	r5, r8
    204c:	469b      	mov	fp, r3
    204e:	b5e0      	push	{r5, r6, r7, lr}
    2050:	0007      	movs	r7, r0
    2052:	b097      	sub	sp, #92	; 0x5c
    2054:	9105      	str	r1, [sp, #20]
    2056:	6dbe      	ldr	r6, [r7, #88]	; 0x58
    2058:	6dfb      	ldr	r3, [r7, #92]	; 0x5c
    205a:	6e3d      	ldr	r5, [r7, #96]	; 0x60
    205c:	429e      	cmp	r6, r3
    205e:	d02a      	beq.n	20b6 <lfs_alloc+0x76>
    2060:	0959      	lsrs	r1, r3, #5
    2062:	008a      	lsls	r2, r1, #2
    2064:	4690      	mov	r8, r2
    2066:	465a      	mov	r2, fp
    2068:	401a      	ands	r2, r3
    206a:	4694      	mov	ip, r2
    206c:	2201      	movs	r2, #1
    206e:	4661      	mov	r1, ip
    2070:	408a      	lsls	r2, r1
    2072:	4641      	mov	r1, r8
    2074:	1c58      	adds	r0, r3, #1
    2076:	3d01      	subs	r5, #1
    2078:	6e7c      	ldr	r4, [r7, #100]	; 0x64
    207a:	65f8      	str	r0, [r7, #92]	; 0x5c
    207c:	663d      	str	r5, [r7, #96]	; 0x60
    207e:	5909      	ldr	r1, [r1, r4]
    2080:	4211      	tst	r1, r2
    2082:	d100      	bne.n	2086 <lfs_alloc+0x46>
    2084:	e0be      	b.n	2204 <lfs_alloc+0x1c4>
    2086:	2301      	movs	r3, #1
    2088:	46a0      	mov	r8, r4
    208a:	469c      	mov	ip, r3
    208c:	e010      	b.n	20b0 <lfs_alloc+0x70>
    208e:	4659      	mov	r1, fp
    2090:	4664      	mov	r4, ip
    2092:	4001      	ands	r1, r0
    2094:	408c      	lsls	r4, r1
    2096:	0021      	movs	r1, r4
    2098:	4644      	mov	r4, r8
    209a:	1c42      	adds	r2, r0, #1
    209c:	3d01      	subs	r5, #1
    209e:	0943      	lsrs	r3, r0, #5
    20a0:	65fa      	str	r2, [r7, #92]	; 0x5c
    20a2:	663d      	str	r5, [r7, #96]	; 0x60
    20a4:	009b      	lsls	r3, r3, #2
    20a6:	591b      	ldr	r3, [r3, r4]
    20a8:	420b      	tst	r3, r1
    20aa:	d100      	bne.n	20ae <lfs_alloc+0x6e>
    20ac:	e0ab      	b.n	2206 <lfs_alloc+0x1c6>
    20ae:	0010      	movs	r0, r2
    20b0:	4286      	cmp	r6, r0
    20b2:	d1ec      	bne.n	208e <lfs_alloc+0x4e>
    20b4:	0033      	movs	r3, r6
    20b6:	6d78      	ldr	r0, [r7, #84]	; 0x54
    20b8:	2d00      	cmp	r5, #0
    20ba:	d100      	bne.n	20be <lfs_alloc+0x7e>
    20bc:	e2e4      	b.n	2688 <lfs_alloc+0x648>
    20be:	6ebc      	ldr	r4, [r7, #104]	; 0x68
    20c0:	1830      	adds	r0, r6, r0
    20c2:	6a21      	ldr	r1, [r4, #32]
    20c4:	f7ff fffe 	bl	0 <__aeabi_uidivmod>
    20c8:	6ae2      	ldr	r2, [r4, #44]	; 0x2c
    20ca:	6579      	str	r1, [r7, #84]	; 0x54
    20cc:	00d3      	lsls	r3, r2, #3
    20ce:	42ab      	cmp	r3, r5
    20d0:	d900      	bls.n	20d4 <lfs_alloc+0x94>
    20d2:	e158      	b.n	2386 <lfs_alloc+0x346>
    20d4:	65bb      	str	r3, [r7, #88]	; 0x58
    20d6:	2300      	movs	r3, #0
    20d8:	2100      	movs	r1, #0
    20da:	65fb      	str	r3, [r7, #92]	; 0x5c
    20dc:	6e78      	ldr	r0, [r7, #100]	; 0x64
    20de:	f7ff fffe 	bl	0 <memset>
    20e2:	221c      	movs	r2, #28
    20e4:	2100      	movs	r1, #0
    20e6:	a80e      	add	r0, sp, #56	; 0x38
    20e8:	f7ff fffe 	bl	0 <memset>
    20ec:	2301      	movs	r3, #1
    20ee:	9315      	str	r3, [sp, #84]	; 0x54
    20f0:	6ebb      	ldr	r3, [r7, #104]	; 0x68
    20f2:	6a1e      	ldr	r6, [r3, #32]
    20f4:	4698      	mov	r8, r3
    20f6:	0873      	lsrs	r3, r6, #1
    20f8:	d071      	beq.n	21de <lfs_alloc+0x19e>
    20fa:	2300      	movs	r3, #0
    20fc:	9307      	str	r3, [sp, #28]
    20fe:	003b      	movs	r3, r7
    2100:	2000      	movs	r0, #0
    2102:	0037      	movs	r7, r6
    2104:	2501      	movs	r5, #1
    2106:	001e      	movs	r6, r3
    2108:	6d73      	ldr	r3, [r6, #84]	; 0x54
    210a:	0039      	movs	r1, r7
    210c:	1afc      	subs	r4, r7, r3
    210e:	1820      	adds	r0, r4, r0
    2110:	f7ff fffe 	bl	0 <__aeabi_uidivmod>
    2114:	6db3      	ldr	r3, [r6, #88]	; 0x58
    2116:	4699      	mov	r9, r3
    2118:	428b      	cmp	r3, r1
    211a:	d912      	bls.n	2142 <lfs_alloc+0x102>
    211c:	6e72      	ldr	r2, [r6, #100]	; 0x64
    211e:	094b      	lsrs	r3, r1, #5
    2120:	4694      	mov	ip, r2
    2122:	465a      	mov	r2, fp
    2124:	4011      	ands	r1, r2
    2126:	2201      	movs	r2, #1
    2128:	408a      	lsls	r2, r1
    212a:	009b      	lsls	r3, r3, #2
    212c:	4463      	add	r3, ip
    212e:	6819      	ldr	r1, [r3, #0]
    2130:	430a      	orrs	r2, r1
    2132:	601a      	str	r2, [r3, #0]
    2134:	4643      	mov	r3, r8
    2136:	6a1f      	ldr	r7, [r3, #32]
    2138:	6db3      	ldr	r3, [r6, #88]	; 0x58
    213a:	9d15      	ldr	r5, [sp, #84]	; 0x54
    213c:	4699      	mov	r9, r3
    213e:	6d73      	ldr	r3, [r6, #84]	; 0x54
    2140:	1afc      	subs	r4, r7, r3
    2142:	1928      	adds	r0, r5, r4
    2144:	0039      	movs	r1, r7
    2146:	f7ff fffe 	bl	0 <__aeabi_uidivmod>
    214a:	4549      	cmp	r1, r9
    214c:	d200      	bcs.n	2150 <lfs_alloc+0x110>
    214e:	e10d      	b.n	236c <lfs_alloc+0x32c>
    2150:	2301      	movs	r3, #1
    2152:	2200      	movs	r2, #0
    2154:	425b      	negs	r3, r3
    2156:	9203      	str	r2, [sp, #12]
    2158:	9202      	str	r2, [sp, #8]
    215a:	9201      	str	r2, [sp, #4]
    215c:	9300      	str	r3, [sp, #0]
    215e:	aa14      	add	r2, sp, #80	; 0x50
    2160:	a90e      	add	r1, sp, #56	; 0x38
    2162:	0030      	movs	r0, r6
    2164:	f7fe fe80 	bl	e68 <lfs_dir_fetchmatch>
    2168:	2800      	cmp	r0, #0
    216a:	d13d      	bne.n	21e8 <lfs_alloc+0x1a8>
    216c:	2200      	movs	r2, #0
    216e:	ab06      	add	r3, sp, #24
    2170:	8e9b      	ldrh	r3, [r3, #52]	; 0x34
    2172:	4692      	mov	sl, r2
    2174:	2b00      	cmp	r3, #0
    2176:	d01d      	beq.n	21b4 <lfs_alloc+0x174>
    2178:	4653      	mov	r3, sl
    217a:	4aa8      	ldr	r2, [pc, #672]	; (241c <lfs_alloc+0x3dc>)
    217c:	029b      	lsls	r3, r3, #10
    217e:	431a      	orrs	r2, r3
    2180:	2308      	movs	r3, #8
    2182:	a90e      	add	r1, sp, #56	; 0x38
    2184:	9300      	str	r3, [sp, #0]
    2186:	0030      	movs	r0, r6
    2188:	ab0a      	add	r3, sp, #40	; 0x28
    218a:	f7ff fb67 	bl	185c <lfs_dir_getslice.constprop.39>
    218e:	2800      	cmp	r0, #0
    2190:	db28      	blt.n	21e4 <lfs_alloc+0x1a4>
    2192:	4ba3      	ldr	r3, [pc, #652]	; (2420 <lfs_alloc+0x3e0>)
    2194:	0d00      	lsrs	r0, r0, #20
    2196:	4298      	cmp	r0, r3
    2198:	d067      	beq.n	226a <lfs_alloc+0x22a>
    219a:	2380      	movs	r3, #128	; 0x80
    219c:	009b      	lsls	r3, r3, #2
    219e:	4298      	cmp	r0, r3
    21a0:	d100      	bne.n	21a4 <lfs_alloc+0x164>
    21a2:	e100      	b.n	23a6 <lfs_alloc+0x366>
    21a4:	4653      	mov	r3, sl
    21a6:	3301      	adds	r3, #1
    21a8:	b29b      	uxth	r3, r3
    21aa:	469a      	mov	sl, r3
    21ac:	ab06      	add	r3, sp, #24
    21ae:	8e9b      	ldrh	r3, [r3, #52]	; 0x34
    21b0:	4553      	cmp	r3, sl
    21b2:	d8e1      	bhi.n	2178 <lfs_alloc+0x138>
    21b4:	9b07      	ldr	r3, [sp, #28]
    21b6:	9814      	ldr	r0, [sp, #80]	; 0x50
    21b8:	3301      	adds	r3, #1
    21ba:	9307      	str	r3, [sp, #28]
    21bc:	1c43      	adds	r3, r0, #1
    21be:	d100      	bne.n	21c2 <lfs_alloc+0x182>
    21c0:	e127      	b.n	2412 <lfs_alloc+0x3d2>
    21c2:	9d15      	ldr	r5, [sp, #84]	; 0x54
    21c4:	1c6b      	adds	r3, r5, #1
    21c6:	d100      	bne.n	21ca <lfs_alloc+0x18a>
    21c8:	e123      	b.n	2412 <lfs_alloc+0x3d2>
    21ca:	6eb3      	ldr	r3, [r6, #104]	; 0x68
    21cc:	9a07      	ldr	r2, [sp, #28]
    21ce:	6a1f      	ldr	r7, [r3, #32]
    21d0:	4698      	mov	r8, r3
    21d2:	087b      	lsrs	r3, r7, #1
    21d4:	4293      	cmp	r3, r2
    21d6:	d897      	bhi.n	2108 <lfs_alloc+0xc8>
    21d8:	0033      	movs	r3, r6
    21da:	003e      	movs	r6, r7
    21dc:	001f      	movs	r7, r3
    21de:	2054      	movs	r0, #84	; 0x54
    21e0:	4240      	negs	r0, r0
    21e2:	e004      	b.n	21ee <lfs_alloc+0x1ae>
    21e4:	1c83      	adds	r3, r0, #2
    21e6:	d0dd      	beq.n	21a4 <lfs_alloc+0x164>
    21e8:	6eb3      	ldr	r3, [r6, #104]	; 0x68
    21ea:	0037      	movs	r7, r6
    21ec:	6a1e      	ldr	r6, [r3, #32]
    21ee:	2300      	movs	r3, #0
    21f0:	663e      	str	r6, [r7, #96]	; 0x60
    21f2:	65bb      	str	r3, [r7, #88]	; 0x58
    21f4:	65fb      	str	r3, [r7, #92]	; 0x5c
    21f6:	b017      	add	sp, #92	; 0x5c
    21f8:	bc3c      	pop	{r2, r3, r4, r5}
    21fa:	4690      	mov	r8, r2
    21fc:	4699      	mov	r9, r3
    21fe:	46a2      	mov	sl, r4
    2200:	46ab      	mov	fp, r5
    2202:	bdf0      	pop	{r4, r5, r6, r7, pc}
    2204:	0018      	movs	r0, r3
    2206:	6d7b      	ldr	r3, [r7, #84]	; 0x54
    2208:	469c      	mov	ip, r3
    220a:	6ebb      	ldr	r3, [r7, #104]	; 0x68
    220c:	4460      	add	r0, ip
    220e:	6a19      	ldr	r1, [r3, #32]
    2210:	f7ff fffe 	bl	0 <__aeabi_uidivmod>
    2214:	9b05      	ldr	r3, [sp, #20]
    2216:	6019      	str	r1, [r3, #0]
    2218:	6df8      	ldr	r0, [r7, #92]	; 0x5c
    221a:	6dbd      	ldr	r5, [r7, #88]	; 0x58
    221c:	4285      	cmp	r5, r0
    221e:	d022      	beq.n	2266 <lfs_alloc+0x226>
    2220:	211f      	movs	r1, #31
    2222:	2301      	movs	r3, #1
    2224:	4001      	ands	r1, r0
    2226:	408b      	lsls	r3, r1
    2228:	0942      	lsrs	r2, r0, #5
    222a:	0092      	lsls	r2, r2, #2
    222c:	5912      	ldr	r2, [r2, r4]
    222e:	421a      	tst	r2, r3
    2230:	d019      	beq.n	2266 <lfs_alloc+0x226>
    2232:	6e3a      	ldr	r2, [r7, #96]	; 0x60
    2234:	1c43      	adds	r3, r0, #1
    2236:	4694      	mov	ip, r2
    2238:	221f      	movs	r2, #31
    223a:	4460      	add	r0, ip
    223c:	2601      	movs	r6, #1
    223e:	4694      	mov	ip, r2
    2240:	46a0      	mov	r8, r4
    2242:	e00b      	b.n	225c <lfs_alloc+0x21c>
    2244:	4661      	mov	r1, ip
    2246:	0034      	movs	r4, r6
    2248:	4019      	ands	r1, r3
    224a:	408c      	lsls	r4, r1
    224c:	0021      	movs	r1, r4
    224e:	4644      	mov	r4, r8
    2250:	095a      	lsrs	r2, r3, #5
    2252:	0092      	lsls	r2, r2, #2
    2254:	5912      	ldr	r2, [r2, r4]
    2256:	3301      	adds	r3, #1
    2258:	420a      	tst	r2, r1
    225a:	d004      	beq.n	2266 <lfs_alloc+0x226>
    225c:	1ac2      	subs	r2, r0, r3
    225e:	65fb      	str	r3, [r7, #92]	; 0x5c
    2260:	663a      	str	r2, [r7, #96]	; 0x60
    2262:	429d      	cmp	r5, r3
    2264:	d1ee      	bne.n	2244 <lfs_alloc+0x204>
    2266:	2000      	movs	r0, #0
    2268:	e7c5      	b.n	21f6 <lfs_alloc+0x1b6>
    226a:	9c0b      	ldr	r4, [sp, #44]	; 0x2c
    226c:	2c00      	cmp	r4, #0
    226e:	d099      	beq.n	21a4 <lfs_alloc+0x164>
    2270:	6eb3      	ldr	r3, [r6, #104]	; 0x68
    2272:	3c01      	subs	r4, #1
    2274:	69dd      	ldr	r5, [r3, #28]
    2276:	4698      	mov	r8, r3
    2278:	3d08      	subs	r5, #8
    227a:	42ac      	cmp	r4, r5
    227c:	d200      	bcs.n	2280 <lfs_alloc+0x240>
    227e:	e0c5      	b.n	240c <lfs_alloc+0x3cc>
    2280:	0029      	movs	r1, r5
    2282:	0020      	movs	r0, r4
    2284:	f7ff fffe 	bl	0 <__aeabi_uidiv>
    2288:	3801      	subs	r0, #1
    228a:	f7ff fffe 	bl	0 <__popcountsi2>
    228e:	3002      	adds	r0, #2
    2290:	0080      	lsls	r0, r0, #2
    2292:	1a20      	subs	r0, r4, r0
    2294:	0029      	movs	r1, r5
    2296:	f7ff fffe 	bl	0 <__aeabi_uidiv>
    229a:	9006      	str	r0, [sp, #24]
    229c:	4643      	mov	r3, r8
    229e:	4652      	mov	r2, sl
    22a0:	6a1c      	ldr	r4, [r3, #32]
    22a2:	9f0a      	ldr	r7, [sp, #40]	; 0x28
    22a4:	6d75      	ldr	r5, [r6, #84]	; 0x54
    22a6:	6db3      	ldr	r3, [r6, #88]	; 0x58
    22a8:	1938      	adds	r0, r7, r4
    22aa:	1b40      	subs	r0, r0, r5
    22ac:	0021      	movs	r1, r4
    22ae:	4699      	mov	r9, r3
    22b0:	9209      	str	r2, [sp, #36]	; 0x24
    22b2:	f7ff fffe 	bl	0 <__aeabi_uidivmod>
    22b6:	4549      	cmp	r1, r9
    22b8:	d20b      	bcs.n	22d2 <lfs_alloc+0x292>
    22ba:	6e72      	ldr	r2, [r6, #100]	; 0x64
    22bc:	094b      	lsrs	r3, r1, #5
    22be:	4694      	mov	ip, r2
    22c0:	465a      	mov	r2, fp
    22c2:	4011      	ands	r1, r2
    22c4:	2201      	movs	r2, #1
    22c6:	408a      	lsls	r2, r1
    22c8:	009b      	lsls	r3, r3, #2
    22ca:	4463      	add	r3, ip
    22cc:	6819      	ldr	r1, [r3, #0]
    22ce:	430a      	orrs	r2, r1
    22d0:	601a      	str	r2, [r3, #0]
    22d2:	9a06      	ldr	r2, [sp, #24]
    22d4:	2a00      	cmp	r2, #0
    22d6:	d100      	bne.n	22da <lfs_alloc+0x29a>
    22d8:	e1e1      	b.n	269e <lfs_alloc+0x65e>
    22da:	2301      	movs	r3, #1
    22dc:	4013      	ands	r3, r2
    22de:	4642      	mov	r2, r8
    22e0:	2402      	movs	r4, #2
    22e2:	0030      	movs	r0, r6
    22e4:	6a12      	ldr	r2, [r2, #32]
    22e6:	1ae4      	subs	r4, r4, r3
    22e8:	9308      	str	r3, [sp, #32]
    22ea:	3068      	adds	r0, #104	; 0x68
    22ec:	00a3      	lsls	r3, r4, #2
    22ee:	4297      	cmp	r7, r2
    22f0:	d300      	bcc.n	22f4 <lfs_alloc+0x2b4>
    22f2:	e1dd      	b.n	26b0 <lfs_alloc+0x670>
    22f4:	4641      	mov	r1, r8
    22f6:	69c9      	ldr	r1, [r1, #28]
    22f8:	428b      	cmp	r3, r1
    22fa:	d900      	bls.n	22fe <lfs_alloc+0x2be>
    22fc:	e1d8      	b.n	26b0 <lfs_alloc+0x670>
    22fe:	aa0c      	add	r2, sp, #48	; 0x30
    2300:	4692      	mov	sl, r2
    2302:	9202      	str	r2, [sp, #8]
    2304:	2200      	movs	r2, #0
    2306:	9303      	str	r3, [sp, #12]
    2308:	9201      	str	r2, [sp, #4]
    230a:	9700      	str	r7, [sp, #0]
    230c:	0032      	movs	r2, r6
    230e:	2100      	movs	r1, #0
    2310:	f7fd ff46 	bl	1a0 <lfs_bd_read.isra.21.part.22>
    2314:	2800      	cmp	r0, #0
    2316:	d000      	beq.n	231a <lfs_alloc+0x2da>
    2318:	e766      	b.n	21e8 <lfs_alloc+0x1a8>
    231a:	6eb3      	ldr	r3, [r6, #104]	; 0x68
    231c:	1e67      	subs	r7, r4, #1
    231e:	4698      	mov	r8, r3
    2320:	46b9      	mov	r9, r7
    2322:	0002      	movs	r2, r0
    2324:	4641      	mov	r1, r8
    2326:	4653      	mov	r3, sl
    2328:	6d75      	ldr	r5, [r6, #84]	; 0x54
    232a:	6a0c      	ldr	r4, [r1, #32]
    232c:	681b      	ldr	r3, [r3, #0]
    232e:	6db7      	ldr	r7, [r6, #88]	; 0x58
    2330:	1b60      	subs	r0, r4, r5
    2332:	454a      	cmp	r2, r9
    2334:	da05      	bge.n	2342 <lfs_alloc+0x302>
    2336:	1818      	adds	r0, r3, r0
    2338:	0021      	movs	r1, r4
    233a:	f7ff fffe 	bl	0 <__aeabi_uidivmod>
    233e:	42b9      	cmp	r1, r7
    2340:	d323      	bcc.n	238a <lfs_alloc+0x34a>
    2342:	003b      	movs	r3, r7
    2344:	464f      	mov	r7, r9
    2346:	4699      	mov	r9, r3
    2348:	4653      	mov	r3, sl
    234a:	9a06      	ldr	r2, [sp, #24]
    234c:	00bf      	lsls	r7, r7, #2
    234e:	4694      	mov	ip, r2
    2350:	59df      	ldr	r7, [r3, r7]
    2352:	9b08      	ldr	r3, [sp, #32]
    2354:	1938      	adds	r0, r7, r4
    2356:	3b02      	subs	r3, #2
    2358:	449c      	add	ip, r3
    235a:	4663      	mov	r3, ip
    235c:	1b40      	subs	r0, r0, r5
    235e:	0021      	movs	r1, r4
    2360:	9306      	str	r3, [sp, #24]
    2362:	f7ff fffe 	bl	0 <__aeabi_uidivmod>
    2366:	4549      	cmp	r1, r9
    2368:	d2b3      	bcs.n	22d2 <lfs_alloc+0x292>
    236a:	e7a6      	b.n	22ba <lfs_alloc+0x27a>
    236c:	6e72      	ldr	r2, [r6, #100]	; 0x64
    236e:	094b      	lsrs	r3, r1, #5
    2370:	4694      	mov	ip, r2
    2372:	465a      	mov	r2, fp
    2374:	4011      	ands	r1, r2
    2376:	2201      	movs	r2, #1
    2378:	408a      	lsls	r2, r1
    237a:	009b      	lsls	r3, r3, #2
    237c:	4463      	add	r3, ip
    237e:	6819      	ldr	r1, [r3, #0]
    2380:	430a      	orrs	r2, r1
    2382:	601a      	str	r2, [r3, #0]
    2384:	e6e4      	b.n	2150 <lfs_alloc+0x110>
    2386:	002b      	movs	r3, r5
    2388:	e6a4      	b.n	20d4 <lfs_alloc+0x94>
    238a:	6e72      	ldr	r2, [r6, #100]	; 0x64
    238c:	094b      	lsrs	r3, r1, #5
    238e:	4694      	mov	ip, r2
    2390:	465a      	mov	r2, fp
    2392:	4011      	ands	r1, r2
    2394:	2201      	movs	r2, #1
    2396:	408a      	lsls	r2, r1
    2398:	009b      	lsls	r3, r3, #2
    239a:	4463      	add	r3, ip
    239c:	6819      	ldr	r1, [r3, #0]
    239e:	430a      	orrs	r2, r1
    23a0:	601a      	str	r2, [r3, #0]
    23a2:	2201      	movs	r2, #1
    23a4:	e7be      	b.n	2324 <lfs_alloc+0x2e4>
    23a6:	6eb3      	ldr	r3, [r6, #104]	; 0x68
    23a8:	6a1d      	ldr	r5, [r3, #32]
    23aa:	4698      	mov	r8, r3
    23ac:	6d73      	ldr	r3, [r6, #84]	; 0x54
    23ae:	0029      	movs	r1, r5
    23b0:	1aec      	subs	r4, r5, r3
    23b2:	9b0a      	ldr	r3, [sp, #40]	; 0x28
    23b4:	18e0      	adds	r0, r4, r3
    23b6:	f7ff fffe 	bl	0 <__aeabi_uidivmod>
    23ba:	6db7      	ldr	r7, [r6, #88]	; 0x58
    23bc:	42b9      	cmp	r1, r7
    23be:	d210      	bcs.n	23e2 <lfs_alloc+0x3a2>
    23c0:	6e72      	ldr	r2, [r6, #100]	; 0x64
    23c2:	094b      	lsrs	r3, r1, #5
    23c4:	4694      	mov	ip, r2
    23c6:	465a      	mov	r2, fp
    23c8:	4011      	ands	r1, r2
    23ca:	2201      	movs	r2, #1
    23cc:	408a      	lsls	r2, r1
    23ce:	009b      	lsls	r3, r3, #2
    23d0:	4463      	add	r3, ip
    23d2:	6819      	ldr	r1, [r3, #0]
    23d4:	430a      	orrs	r2, r1
    23d6:	601a      	str	r2, [r3, #0]
    23d8:	4643      	mov	r3, r8
    23da:	6a1d      	ldr	r5, [r3, #32]
    23dc:	6d73      	ldr	r3, [r6, #84]	; 0x54
    23de:	6db7      	ldr	r7, [r6, #88]	; 0x58
    23e0:	1aec      	subs	r4, r5, r3
    23e2:	9b0b      	ldr	r3, [sp, #44]	; 0x2c
    23e4:	0029      	movs	r1, r5
    23e6:	18e0      	adds	r0, r4, r3
    23e8:	f7ff fffe 	bl	0 <__aeabi_uidivmod>
    23ec:	42b9      	cmp	r1, r7
    23ee:	d300      	bcc.n	23f2 <lfs_alloc+0x3b2>
    23f0:	e6d8      	b.n	21a4 <lfs_alloc+0x164>
    23f2:	6e72      	ldr	r2, [r6, #100]	; 0x64
    23f4:	094b      	lsrs	r3, r1, #5
    23f6:	4694      	mov	ip, r2
    23f8:	465a      	mov	r2, fp
    23fa:	4011      	ands	r1, r2
    23fc:	2201      	movs	r2, #1
    23fe:	408a      	lsls	r2, r1
    2400:	009b      	lsls	r3, r3, #2
    2402:	4463      	add	r3, ip
    2404:	6819      	ldr	r1, [r3, #0]
    2406:	430a      	orrs	r2, r1
    2408:	601a      	str	r2, [r3, #0]
    240a:	e6cb      	b.n	21a4 <lfs_alloc+0x164>
    240c:	2300      	movs	r3, #0
    240e:	9306      	str	r3, [sp, #24]
    2410:	e744      	b.n	229c <lfs_alloc+0x25c>
    2412:	6ab3      	ldr	r3, [r6, #40]	; 0x28
    2414:	0037      	movs	r7, r6
    2416:	1e1c      	subs	r4, r3, #0
    2418:	d110      	bne.n	243c <lfs_alloc+0x3fc>
    241a:	e61c      	b.n	2056 <lfs_alloc+0x16>
    241c:	20000008 	.word	0x20000008
    2420:	00000202 	.word	0x00000202
    2424:	2290      	movs	r2, #144	; 0x90
    2426:	0352      	lsls	r2, r2, #13
    2428:	4013      	ands	r3, r2
    242a:	2280      	movs	r2, #128	; 0x80
    242c:	0292      	lsls	r2, r2, #10
    242e:	4293      	cmp	r3, r2
    2430:	d100      	bne.n	2434 <lfs_alloc+0x3f4>
    2432:	e09d      	b.n	2570 <lfs_alloc+0x530>
    2434:	6824      	ldr	r4, [r4, #0]
    2436:	2c00      	cmp	r4, #0
    2438:	d100      	bne.n	243c <lfs_alloc+0x3fc>
    243a:	e60c      	b.n	2056 <lfs_alloc+0x16>
    243c:	79a3      	ldrb	r3, [r4, #6]
    243e:	2b01      	cmp	r3, #1
    2440:	d1f8      	bne.n	2434 <lfs_alloc+0x3f4>
    2442:	2288      	movs	r2, #136	; 0x88
    2444:	2180      	movs	r1, #128	; 0x80
    2446:	6b23      	ldr	r3, [r4, #48]	; 0x30
    2448:	0352      	lsls	r2, r2, #13
    244a:	401a      	ands	r2, r3
    244c:	0249      	lsls	r1, r1, #9
    244e:	428a      	cmp	r2, r1
    2450:	d1e8      	bne.n	2424 <lfs_alloc+0x3e4>
    2452:	6ae5      	ldr	r5, [r4, #44]	; 0x2c
    2454:	2d00      	cmp	r5, #0
    2456:	d0e5      	beq.n	2424 <lfs_alloc+0x3e4>
    2458:	6ebb      	ldr	r3, [r7, #104]	; 0x68
    245a:	3d01      	subs	r5, #1
    245c:	69de      	ldr	r6, [r3, #28]
    245e:	4698      	mov	r8, r3
    2460:	3e08      	subs	r6, #8
    2462:	42b5      	cmp	r5, r6
    2464:	d200      	bcs.n	2468 <lfs_alloc+0x428>
    2466:	e120      	b.n	26aa <lfs_alloc+0x66a>
    2468:	0031      	movs	r1, r6
    246a:	0028      	movs	r0, r5
    246c:	f7ff fffe 	bl	0 <__aeabi_uidiv>
    2470:	3801      	subs	r0, #1
    2472:	f7ff fffe 	bl	0 <__popcountsi2>
    2476:	3002      	adds	r0, #2
    2478:	0080      	lsls	r0, r0, #2
    247a:	1a28      	subs	r0, r5, r0
    247c:	0031      	movs	r1, r6
    247e:	f7ff fffe 	bl	0 <__aeabi_uidiv>
    2482:	9006      	str	r0, [sp, #24]
    2484:	4642      	mov	r2, r8
    2486:	6aa3      	ldr	r3, [r4, #40]	; 0x28
    2488:	9407      	str	r4, [sp, #28]
    248a:	001c      	movs	r4, r3
    248c:	6a15      	ldr	r5, [r2, #32]
    248e:	6d7e      	ldr	r6, [r7, #84]	; 0x54
    2490:	6dba      	ldr	r2, [r7, #88]	; 0x58
    2492:	1960      	adds	r0, r4, r5
    2494:	1b80      	subs	r0, r0, r6
    2496:	0029      	movs	r1, r5
    2498:	4692      	mov	sl, r2
    249a:	f7ff fffe 	bl	0 <__aeabi_uidivmod>
    249e:	4551      	cmp	r1, sl
    24a0:	d20b      	bcs.n	24ba <lfs_alloc+0x47a>
    24a2:	6e7a      	ldr	r2, [r7, #100]	; 0x64
    24a4:	094b      	lsrs	r3, r1, #5
    24a6:	4694      	mov	ip, r2
    24a8:	465a      	mov	r2, fp
    24aa:	4011      	ands	r1, r2
    24ac:	2201      	movs	r2, #1
    24ae:	408a      	lsls	r2, r1
    24b0:	009b      	lsls	r3, r3, #2
    24b2:	4463      	add	r3, ip
    24b4:	6819      	ldr	r1, [r3, #0]
    24b6:	430a      	orrs	r2, r1
    24b8:	601a      	str	r2, [r3, #0]
    24ba:	9a06      	ldr	r2, [sp, #24]
    24bc:	2a00      	cmp	r2, #0
    24be:	d100      	bne.n	24c2 <lfs_alloc+0x482>
    24c0:	e100      	b.n	26c4 <lfs_alloc+0x684>
    24c2:	2301      	movs	r3, #1
    24c4:	4013      	ands	r3, r2
    24c6:	4642      	mov	r2, r8
    24c8:	2502      	movs	r5, #2
    24ca:	0038      	movs	r0, r7
    24cc:	6a12      	ldr	r2, [r2, #32]
    24ce:	1aed      	subs	r5, r5, r3
    24d0:	9308      	str	r3, [sp, #32]
    24d2:	3068      	adds	r0, #104	; 0x68
    24d4:	00ab      	lsls	r3, r5, #2
    24d6:	4294      	cmp	r4, r2
    24d8:	d300      	bcc.n	24dc <lfs_alloc+0x49c>
    24da:	e0ee      	b.n	26ba <lfs_alloc+0x67a>
    24dc:	4642      	mov	r2, r8
    24de:	69d2      	ldr	r2, [r2, #28]
    24e0:	4293      	cmp	r3, r2
    24e2:	d900      	bls.n	24e6 <lfs_alloc+0x4a6>
    24e4:	e0e9      	b.n	26ba <lfs_alloc+0x67a>
    24e6:	aa0c      	add	r2, sp, #48	; 0x30
    24e8:	9202      	str	r2, [sp, #8]
    24ea:	4691      	mov	r9, r2
    24ec:	2200      	movs	r2, #0
    24ee:	9907      	ldr	r1, [sp, #28]
    24f0:	9303      	str	r3, [sp, #12]
    24f2:	9201      	str	r2, [sp, #4]
    24f4:	9400      	str	r4, [sp, #0]
    24f6:	003a      	movs	r2, r7
    24f8:	3140      	adds	r1, #64	; 0x40
    24fa:	f7fd fe51 	bl	1a0 <lfs_bd_read.isra.21.part.22>
    24fe:	1e03      	subs	r3, r0, #0
    2500:	d000      	beq.n	2504 <lfs_alloc+0x4c4>
    2502:	e0e2      	b.n	26ca <lfs_alloc+0x68a>
    2504:	6eba      	ldr	r2, [r7, #104]	; 0x68
    2506:	1e6c      	subs	r4, r5, #1
    2508:	4690      	mov	r8, r2
    250a:	46a2      	mov	sl, r4
    250c:	464a      	mov	r2, r9
    250e:	6810      	ldr	r0, [r2, #0]
    2510:	4642      	mov	r2, r8
    2512:	6d7e      	ldr	r6, [r7, #84]	; 0x54
    2514:	6a15      	ldr	r5, [r2, #32]
    2516:	6dbc      	ldr	r4, [r7, #88]	; 0x58
    2518:	1baa      	subs	r2, r5, r6
    251a:	4553      	cmp	r3, sl
    251c:	da05      	bge.n	252a <lfs_alloc+0x4ea>
    251e:	1880      	adds	r0, r0, r2
    2520:	0029      	movs	r1, r5
    2522:	f7ff fffe 	bl	0 <__aeabi_uidivmod>
    2526:	428c      	cmp	r4, r1
    2528:	d814      	bhi.n	2554 <lfs_alloc+0x514>
    252a:	0023      	movs	r3, r4
    252c:	4654      	mov	r4, sl
    252e:	469a      	mov	sl, r3
    2530:	464b      	mov	r3, r9
    2532:	9a06      	ldr	r2, [sp, #24]
    2534:	00a4      	lsls	r4, r4, #2
    2536:	4694      	mov	ip, r2
    2538:	591c      	ldr	r4, [r3, r4]
    253a:	9b08      	ldr	r3, [sp, #32]
    253c:	1960      	adds	r0, r4, r5
    253e:	3b02      	subs	r3, #2
    2540:	449c      	add	ip, r3
    2542:	4663      	mov	r3, ip
    2544:	1b80      	subs	r0, r0, r6
    2546:	0029      	movs	r1, r5
    2548:	9306      	str	r3, [sp, #24]
    254a:	f7ff fffe 	bl	0 <__aeabi_uidivmod>
    254e:	4551      	cmp	r1, sl
    2550:	d2b3      	bcs.n	24ba <lfs_alloc+0x47a>
    2552:	e7a6      	b.n	24a2 <lfs_alloc+0x462>
    2554:	6e7a      	ldr	r2, [r7, #100]	; 0x64
    2556:	094b      	lsrs	r3, r1, #5
    2558:	4694      	mov	ip, r2
    255a:	465a      	mov	r2, fp
    255c:	4011      	ands	r1, r2
    255e:	2201      	movs	r2, #1
    2560:	408a      	lsls	r2, r1
    2562:	009b      	lsls	r3, r3, #2
    2564:	4463      	add	r3, ip
    2566:	6819      	ldr	r1, [r3, #0]
    2568:	430a      	orrs	r2, r1
    256a:	601a      	str	r2, [r3, #0]
    256c:	2301      	movs	r3, #1
    256e:	e7cd      	b.n	250c <lfs_alloc+0x4cc>
    2570:	6b65      	ldr	r5, [r4, #52]	; 0x34
    2572:	2d00      	cmp	r5, #0
    2574:	d100      	bne.n	2578 <lfs_alloc+0x538>
    2576:	e75d      	b.n	2434 <lfs_alloc+0x3f4>
    2578:	6ebb      	ldr	r3, [r7, #104]	; 0x68
    257a:	3d01      	subs	r5, #1
    257c:	69de      	ldr	r6, [r3, #28]
    257e:	4698      	mov	r8, r3
    2580:	3e08      	subs	r6, #8
    2582:	42b5      	cmp	r5, r6
    2584:	d200      	bcs.n	2588 <lfs_alloc+0x548>
    2586:	e08d      	b.n	26a4 <lfs_alloc+0x664>
    2588:	0031      	movs	r1, r6
    258a:	0028      	movs	r0, r5
    258c:	f7ff fffe 	bl	0 <__aeabi_uidiv>
    2590:	3801      	subs	r0, #1
    2592:	f7ff fffe 	bl	0 <__popcountsi2>
    2596:	3002      	adds	r0, #2
    2598:	0080      	lsls	r0, r0, #2
    259a:	1a28      	subs	r0, r5, r0
    259c:	0031      	movs	r1, r6
    259e:	f7ff fffe 	bl	0 <__aeabi_uidiv>
    25a2:	9006      	str	r0, [sp, #24]
    25a4:	4642      	mov	r2, r8
    25a6:	6ba3      	ldr	r3, [r4, #56]	; 0x38
    25a8:	9408      	str	r4, [sp, #32]
    25aa:	001c      	movs	r4, r3
    25ac:	6a15      	ldr	r5, [r2, #32]
    25ae:	6d7e      	ldr	r6, [r7, #84]	; 0x54
    25b0:	6dba      	ldr	r2, [r7, #88]	; 0x58
    25b2:	1960      	adds	r0, r4, r5
    25b4:	1b80      	subs	r0, r0, r6
    25b6:	0029      	movs	r1, r5
    25b8:	4692      	mov	sl, r2
    25ba:	f7ff fffe 	bl	0 <__aeabi_uidivmod>
    25be:	4551      	cmp	r1, sl
    25c0:	d20b      	bcs.n	25da <lfs_alloc+0x59a>
    25c2:	6e7a      	ldr	r2, [r7, #100]	; 0x64
    25c4:	094b      	lsrs	r3, r1, #5
    25c6:	4694      	mov	ip, r2
    25c8:	465a      	mov	r2, fp
    25ca:	4011      	ands	r1, r2
    25cc:	2201      	movs	r2, #1
    25ce:	408a      	lsls	r2, r1
    25d0:	009b      	lsls	r3, r3, #2
    25d2:	4463      	add	r3, ip
    25d4:	6819      	ldr	r1, [r3, #0]
    25d6:	430a      	orrs	r2, r1
    25d8:	601a      	str	r2, [r3, #0]
    25da:	9a06      	ldr	r2, [sp, #24]
    25dc:	2a00      	cmp	r2, #0
    25de:	d076      	beq.n	26ce <lfs_alloc+0x68e>
    25e0:	2301      	movs	r3, #1
    25e2:	4013      	ands	r3, r2
    25e4:	4642      	mov	r2, r8
    25e6:	2502      	movs	r5, #2
    25e8:	0038      	movs	r0, r7
    25ea:	6a12      	ldr	r2, [r2, #32]
    25ec:	1aed      	subs	r5, r5, r3
    25ee:	9307      	str	r3, [sp, #28]
    25f0:	3068      	adds	r0, #104	; 0x68
    25f2:	00ab      	lsls	r3, r5, #2
    25f4:	4294      	cmp	r4, r2
    25f6:	d260      	bcs.n	26ba <lfs_alloc+0x67a>
    25f8:	4642      	mov	r2, r8
    25fa:	69d2      	ldr	r2, [r2, #28]
    25fc:	4293      	cmp	r3, r2
    25fe:	d85c      	bhi.n	26ba <lfs_alloc+0x67a>
    2600:	aa0c      	add	r2, sp, #48	; 0x30
    2602:	9202      	str	r2, [sp, #8]
    2604:	4691      	mov	r9, r2
    2606:	2200      	movs	r2, #0
    2608:	9908      	ldr	r1, [sp, #32]
    260a:	9303      	str	r3, [sp, #12]
    260c:	9201      	str	r2, [sp, #4]
    260e:	9400      	str	r4, [sp, #0]
    2610:	003a      	movs	r2, r7
    2612:	3140      	adds	r1, #64	; 0x40
    2614:	f7fd fdc4 	bl	1a0 <lfs_bd_read.isra.21.part.22>
    2618:	1e03      	subs	r3, r0, #0
    261a:	d156      	bne.n	26ca <lfs_alloc+0x68a>
    261c:	6eba      	ldr	r2, [r7, #104]	; 0x68
    261e:	1e6c      	subs	r4, r5, #1
    2620:	4690      	mov	r8, r2
    2622:	46a2      	mov	sl, r4
    2624:	464a      	mov	r2, r9
    2626:	6810      	ldr	r0, [r2, #0]
    2628:	4642      	mov	r2, r8
    262a:	6d7e      	ldr	r6, [r7, #84]	; 0x54
    262c:	6a15      	ldr	r5, [r2, #32]
    262e:	6dbc      	ldr	r4, [r7, #88]	; 0x58
    2630:	1baa      	subs	r2, r5, r6
    2632:	4553      	cmp	r3, sl
    2634:	da05      	bge.n	2642 <lfs_alloc+0x602>
    2636:	1880      	adds	r0, r0, r2
    2638:	0029      	movs	r1, r5
    263a:	f7ff fffe 	bl	0 <__aeabi_uidivmod>
    263e:	428c      	cmp	r4, r1
    2640:	d814      	bhi.n	266c <lfs_alloc+0x62c>
    2642:	0023      	movs	r3, r4
    2644:	4654      	mov	r4, sl
    2646:	469a      	mov	sl, r3
    2648:	464b      	mov	r3, r9
    264a:	9a06      	ldr	r2, [sp, #24]
    264c:	00a4      	lsls	r4, r4, #2
    264e:	4694      	mov	ip, r2
    2650:	591c      	ldr	r4, [r3, r4]
    2652:	9b07      	ldr	r3, [sp, #28]
    2654:	1960      	adds	r0, r4, r5
    2656:	3b02      	subs	r3, #2
    2658:	449c      	add	ip, r3
    265a:	4663      	mov	r3, ip
    265c:	1b80      	subs	r0, r0, r6
    265e:	0029      	movs	r1, r5
    2660:	9306      	str	r3, [sp, #24]
    2662:	f7ff fffe 	bl	0 <__aeabi_uidivmod>
    2666:	4551      	cmp	r1, sl
    2668:	d2b7      	bcs.n	25da <lfs_alloc+0x59a>
    266a:	e7aa      	b.n	25c2 <lfs_alloc+0x582>
    266c:	6e7a      	ldr	r2, [r7, #100]	; 0x64
    266e:	094b      	lsrs	r3, r1, #5
    2670:	4694      	mov	ip, r2
    2672:	465a      	mov	r2, fp
    2674:	4011      	ands	r1, r2
    2676:	2201      	movs	r2, #1
    2678:	408a      	lsls	r2, r1
    267a:	009b      	lsls	r3, r3, #2
    267c:	4463      	add	r3, ip
    267e:	6819      	ldr	r1, [r3, #0]
    2680:	430a      	orrs	r2, r1
    2682:	601a      	str	r2, [r3, #0]
    2684:	2301      	movs	r3, #1
    2686:	e7cd      	b.n	2624 <lfs_alloc+0x5e4>
    2688:	4a12      	ldr	r2, [pc, #72]	; (26d4 <lfs_alloc+0x694>)
    268a:	181b      	adds	r3, r3, r0
    268c:	9200      	str	r2, [sp, #0]
    268e:	4912      	ldr	r1, [pc, #72]	; (26d8 <lfs_alloc+0x698>)
    2690:	4a12      	ldr	r2, [pc, #72]	; (26dc <lfs_alloc+0x69c>)
    2692:	4813      	ldr	r0, [pc, #76]	; (26e0 <lfs_alloc+0x6a0>)
    2694:	f7ff fffe 	bl	0 <printf>
    2698:	201c      	movs	r0, #28
    269a:	4240      	negs	r0, r0
    269c:	e5ab      	b.n	21f6 <lfs_alloc+0x1b6>
    269e:	9b09      	ldr	r3, [sp, #36]	; 0x24
    26a0:	469a      	mov	sl, r3
    26a2:	e57f      	b.n	21a4 <lfs_alloc+0x164>
    26a4:	2300      	movs	r3, #0
    26a6:	9306      	str	r3, [sp, #24]
    26a8:	e77c      	b.n	25a4 <lfs_alloc+0x564>
    26aa:	2300      	movs	r3, #0
    26ac:	9306      	str	r3, [sp, #24]
    26ae:	e6e9      	b.n	2484 <lfs_alloc+0x444>
    26b0:	2054      	movs	r0, #84	; 0x54
    26b2:	0037      	movs	r7, r6
    26b4:	4240      	negs	r0, r0
    26b6:	0016      	movs	r6, r2
    26b8:	e599      	b.n	21ee <lfs_alloc+0x1ae>
    26ba:	2054      	movs	r0, #84	; 0x54
    26bc:	4240      	negs	r0, r0
    26be:	6ebb      	ldr	r3, [r7, #104]	; 0x68
    26c0:	6a1e      	ldr	r6, [r3, #32]
    26c2:	e594      	b.n	21ee <lfs_alloc+0x1ae>
    26c4:	9c07      	ldr	r4, [sp, #28]
    26c6:	6b23      	ldr	r3, [r4, #48]	; 0x30
    26c8:	e6ac      	b.n	2424 <lfs_alloc+0x3e4>
    26ca:	0018      	movs	r0, r3
    26cc:	e7f7      	b.n	26be <lfs_alloc+0x67e>
    26ce:	9c08      	ldr	r4, [sp, #32]
    26d0:	e6b0      	b.n	2434 <lfs_alloc+0x3f4>
    26d2:	46c0      	nop			; (mov r8, r8)
    26d4:	00000074 	.word	0x00000074
    26d8:	00000000 	.word	0x00000000
    26dc:	00000231 	.word	0x00000231
    26e0:	00000080 	.word	0x00000080

000026e4 <lfs_dir_alloc.part.26>:
    26e4:	b5f0      	push	{r4, r5, r6, r7, lr}
    26e6:	000c      	movs	r4, r1
    26e8:	b085      	sub	sp, #20
    26ea:	3104      	adds	r1, #4
    26ec:	0006      	movs	r6, r0
    26ee:	f7ff fca7 	bl	2040 <lfs_alloc>
    26f2:	1e05      	subs	r5, r0, #0
    26f4:	d135      	bne.n	2762 <lfs_dir_alloc.part.26+0x7e>
    26f6:	0021      	movs	r1, r4
    26f8:	0030      	movs	r0, r6
    26fa:	f7ff fca1 	bl	2040 <lfs_alloc>
    26fe:	1e05      	subs	r5, r0, #0
    2700:	d12f      	bne.n	2762 <lfs_dir_alloc.part.26+0x7e>
    2702:	60a0      	str	r0, [r4, #8]
    2704:	0021      	movs	r1, r4
    2706:	0030      	movs	r0, r6
    2708:	6eb2      	ldr	r2, [r6, #104]	; 0x68
    270a:	6823      	ldr	r3, [r4, #0]
    270c:	6a17      	ldr	r7, [r2, #32]
    270e:	3108      	adds	r1, #8
    2710:	3068      	adds	r0, #104	; 0x68
    2712:	42bb      	cmp	r3, r7
    2714:	d22d      	bcs.n	2772 <lfs_dir_alloc.part.26+0x8e>
    2716:	69d7      	ldr	r7, [r2, #28]
    2718:	2f03      	cmp	r7, #3
    271a:	d92a      	bls.n	2772 <lfs_dir_alloc.part.26+0x8e>
    271c:	2204      	movs	r2, #4
    271e:	9102      	str	r1, [sp, #8]
    2720:	9203      	str	r2, [sp, #12]
    2722:	9300      	str	r3, [sp, #0]
    2724:	9501      	str	r5, [sp, #4]
    2726:	2304      	movs	r3, #4
    2728:	0032      	movs	r2, r6
    272a:	2100      	movs	r1, #0
    272c:	f7fd fd38 	bl	1a0 <lfs_bd_read.isra.21.part.22>
    2730:	68a3      	ldr	r3, [r4, #8]
    2732:	2800      	cmp	r0, #0
    2734:	d118      	bne.n	2768 <lfs_dir_alloc.part.26+0x84>
    2736:	6eb2      	ldr	r2, [r6, #104]	; 0x68
    2738:	6a51      	ldr	r1, [r2, #36]	; 0x24
    273a:	2900      	cmp	r1, #0
    273c:	dd09      	ble.n	2752 <lfs_dir_alloc.part.26+0x6e>
    273e:	2201      	movs	r2, #1
    2740:	3101      	adds	r1, #1
    2742:	4311      	orrs	r1, r2
    2744:	3b01      	subs	r3, #1
    2746:	185e      	adds	r6, r3, r1
    2748:	0030      	movs	r0, r6
    274a:	f7ff fffe 	bl	0 <__aeabi_uidivmod>
    274e:	1a76      	subs	r6, r6, r1
    2750:	60a6      	str	r6, [r4, #8]
    2752:	2304      	movs	r3, #4
    2754:	2200      	movs	r2, #0
    2756:	60e3      	str	r3, [r4, #12]
    2758:	3b05      	subs	r3, #5
    275a:	6123      	str	r3, [r4, #16]
    275c:	6162      	str	r2, [r4, #20]
    275e:	61a3      	str	r3, [r4, #24]
    2760:	61e3      	str	r3, [r4, #28]
    2762:	0028      	movs	r0, r5
    2764:	b005      	add	sp, #20
    2766:	bdf0      	pop	{r4, r5, r6, r7, pc}
    2768:	0002      	movs	r2, r0
    276a:	3254      	adds	r2, #84	; 0x54
    276c:	d0e3      	beq.n	2736 <lfs_dir_alloc.part.26+0x52>
    276e:	0005      	movs	r5, r0
    2770:	e7f7      	b.n	2762 <lfs_dir_alloc.part.26+0x7e>
    2772:	2300      	movs	r3, #0
    2774:	e7e0      	b.n	2738 <lfs_dir_alloc.part.26+0x54>
    2776:	46c0      	nop			; (mov r8, r8)

00002778 <lfs_file_relocate>:
    2778:	b5f0      	push	{r4, r5, r6, r7, lr}
    277a:	46de      	mov	lr, fp
    277c:	4657      	mov	r7, sl
    277e:	464e      	mov	r6, r9
    2780:	4645      	mov	r5, r8
    2782:	b5e0      	push	{r5, r6, r7, lr}
    2784:	0007      	movs	r7, r0
    2786:	b08d      	sub	sp, #52	; 0x34
    2788:	000e      	movs	r6, r1
    278a:	0038      	movs	r0, r7
    278c:	a90b      	add	r1, sp, #44	; 0x2c
    278e:	f7ff fc57 	bl	2040 <lfs_alloc>
    2792:	9009      	str	r0, [sp, #36]	; 0x24
    2794:	2800      	cmp	r0, #0
    2796:	d11a      	bne.n	27ce <lfs_file_relocate+0x56>
    2798:	6eb8      	ldr	r0, [r7, #104]	; 0x68
    279a:	990b      	ldr	r1, [sp, #44]	; 0x2c
    279c:	68c3      	ldr	r3, [r0, #12]
    279e:	4798      	blx	r3
    27a0:	1e03      	subs	r3, r0, #0
    27a2:	9009      	str	r0, [sp, #36]	; 0x24
    27a4:	d01b      	beq.n	27de <lfs_file_relocate+0x66>
    27a6:	3354      	adds	r3, #84	; 0x54
    27a8:	d111      	bne.n	27ce <lfs_file_relocate+0x56>
    27aa:	4b69      	ldr	r3, [pc, #420]	; (2950 <lfs_file_relocate+0x1d8>)
    27ac:	4a69      	ldr	r2, [pc, #420]	; (2954 <lfs_file_relocate+0x1dc>)
    27ae:	9300      	str	r3, [sp, #0]
    27b0:	4969      	ldr	r1, [pc, #420]	; (2958 <lfs_file_relocate+0x1e0>)
    27b2:	9b0b      	ldr	r3, [sp, #44]	; 0x2c
    27b4:	4869      	ldr	r0, [pc, #420]	; (295c <lfs_file_relocate+0x1e4>)
    27b6:	f7ff fffe 	bl	0 <printf>
    27ba:	2301      	movs	r3, #1
    27bc:	425b      	negs	r3, r3
    27be:	613b      	str	r3, [r7, #16]
    27c0:	a90b      	add	r1, sp, #44	; 0x2c
    27c2:	0038      	movs	r0, r7
    27c4:	f7ff fc3c 	bl	2040 <lfs_alloc>
    27c8:	9009      	str	r0, [sp, #36]	; 0x24
    27ca:	2800      	cmp	r0, #0
    27cc:	d0e4      	beq.n	2798 <lfs_file_relocate+0x20>
    27ce:	9809      	ldr	r0, [sp, #36]	; 0x24
    27d0:	b00d      	add	sp, #52	; 0x34
    27d2:	bc3c      	pop	{r2, r3, r4, r5}
    27d4:	4690      	mov	r8, r2
    27d6:	4699      	mov	r9, r3
    27d8:	46a2      	mov	sl, r4
    27da:	46ab      	mov	fp, r5
    27dc:	bdf0      	pop	{r4, r5, r6, r7, pc}
    27de:	6bf2      	ldr	r2, [r6, #60]	; 0x3c
    27e0:	2a00      	cmp	r2, #0
    27e2:	d07d      	beq.n	28e0 <lfs_file_relocate+0x168>
    27e4:	2301      	movs	r3, #1
    27e6:	2180      	movs	r1, #128	; 0x80
    27e8:	1e5d      	subs	r5, r3, #1
    27ea:	469b      	mov	fp, r3
    27ec:	1b53      	subs	r3, r2, r5
    27ee:	9305      	str	r3, [sp, #20]
    27f0:	6b33      	ldr	r3, [r6, #48]	; 0x30
    27f2:	0349      	lsls	r1, r1, #13
    27f4:	6eba      	ldr	r2, [r7, #104]	; 0x68
    27f6:	420b      	tst	r3, r1
    27f8:	d046      	beq.n	2888 <lfs_file_relocate+0x110>
    27fa:	2308      	movs	r3, #8
    27fc:	469c      	mov	ip, r3
    27fe:	44b4      	add	ip, r6
    2800:	4663      	mov	r3, ip
    2802:	9307      	str	r3, [sp, #28]
    2804:	88b3      	ldrh	r3, [r6, #4]
    2806:	4956      	ldr	r1, [pc, #344]	; (2960 <lfs_file_relocate+0x1e8>)
    2808:	029b      	lsls	r3, r3, #10
    280a:	4319      	orrs	r1, r3
    280c:	69d3      	ldr	r3, [r2, #28]
    280e:	9108      	str	r1, [sp, #32]
    2810:	459b      	cmp	fp, r3
    2812:	d900      	bls.n	2816 <lfs_file_relocate+0x9e>
    2814:	e097      	b.n	2946 <lfs_file_relocate+0x1ce>
    2816:	46ba      	mov	sl, r7
    2818:	6cf3      	ldr	r3, [r6, #76]	; 0x4c
    281a:	9306      	str	r3, [sp, #24]
    281c:	6c33      	ldr	r3, [r6, #64]	; 0x40
    281e:	3302      	adds	r3, #2
    2820:	d106      	bne.n	2830 <lfs_file_relocate+0xb8>
    2822:	6c71      	ldr	r1, [r6, #68]	; 0x44
    2824:	6cb3      	ldr	r3, [r6, #72]	; 0x48
    2826:	18ca      	adds	r2, r1, r3
    2828:	4295      	cmp	r5, r2
    282a:	d201      	bcs.n	2830 <lfs_file_relocate+0xb8>
    282c:	428d      	cmp	r5, r1
    282e:	d274      	bcs.n	291a <lfs_file_relocate+0x1a2>
    2830:	2302      	movs	r3, #2
    2832:	425b      	negs	r3, r3
    2834:	6433      	str	r3, [r6, #64]	; 0x40
    2836:	4653      	mov	r3, sl
    2838:	6e9b      	ldr	r3, [r3, #104]	; 0x68
    283a:	0028      	movs	r0, r5
    283c:	4699      	mov	r9, r3
    283e:	695b      	ldr	r3, [r3, #20]
    2840:	4698      	mov	r8, r3
    2842:	0019      	movs	r1, r3
    2844:	f7ff fffe 	bl	0 <__aeabi_uidivmod>
    2848:	4643      	mov	r3, r8
    284a:	1e5c      	subs	r4, r3, #1
    284c:	9b05      	ldr	r3, [sp, #20]
    284e:	1a6f      	subs	r7, r5, r1
    2850:	469c      	mov	ip, r3
    2852:	4464      	add	r4, ip
    2854:	1964      	adds	r4, r4, r5
    2856:	0020      	movs	r0, r4
    2858:	6477      	str	r7, [r6, #68]	; 0x44
    285a:	4641      	mov	r1, r8
    285c:	f7ff fffe 	bl	0 <__aeabi_uidivmod>
    2860:	464b      	mov	r3, r9
    2862:	6a9b      	ldr	r3, [r3, #40]	; 0x28
    2864:	1a64      	subs	r4, r4, r1
    2866:	429c      	cmp	r4, r3
    2868:	d900      	bls.n	286c <lfs_file_relocate+0xf4>
    286a:	001c      	movs	r4, r3
    286c:	9b06      	ldr	r3, [sp, #24]
    286e:	64b4      	str	r4, [r6, #72]	; 0x48
    2870:	9300      	str	r3, [sp, #0]
    2872:	9401      	str	r4, [sp, #4]
    2874:	003b      	movs	r3, r7
    2876:	9a08      	ldr	r2, [sp, #32]
    2878:	9907      	ldr	r1, [sp, #28]
    287a:	4650      	mov	r0, sl
    287c:	f7fe ff10 	bl	16a0 <lfs_dir_getslice.constprop.38>
    2880:	2800      	cmp	r0, #0
    2882:	dac9      	bge.n	2818 <lfs_file_relocate+0xa0>
    2884:	9009      	str	r0, [sp, #36]	; 0x24
    2886:	e7a2      	b.n	27ce <lfs_file_relocate+0x56>
    2888:	0031      	movs	r1, r6
    288a:	0038      	movs	r0, r7
    288c:	6bb3      	ldr	r3, [r6, #56]	; 0x38
    288e:	6a14      	ldr	r4, [r2, #32]
    2890:	3140      	adds	r1, #64	; 0x40
    2892:	3068      	adds	r0, #104	; 0x68
    2894:	42a3      	cmp	r3, r4
    2896:	d256      	bcs.n	2946 <lfs_file_relocate+0x1ce>
    2898:	69d2      	ldr	r2, [r2, #28]
    289a:	4593      	cmp	fp, r2
    289c:	d853      	bhi.n	2946 <lfs_file_relocate+0x1ce>
    289e:	2201      	movs	r2, #1
    28a0:	9203      	str	r2, [sp, #12]
    28a2:	aa06      	add	r2, sp, #24
    28a4:	4694      	mov	ip, r2
    28a6:	2413      	movs	r4, #19
    28a8:	4464      	add	r4, ip
    28aa:	9300      	str	r3, [sp, #0]
    28ac:	9402      	str	r4, [sp, #8]
    28ae:	9501      	str	r5, [sp, #4]
    28b0:	9b05      	ldr	r3, [sp, #20]
    28b2:	003a      	movs	r2, r7
    28b4:	f7fd fc74 	bl	1a0 <lfs_bd_read.isra.21.part.22>
    28b8:	2800      	cmp	r0, #0
    28ba:	d1e3      	bne.n	2884 <lfs_file_relocate+0x10c>
    28bc:	2301      	movs	r3, #1
    28be:	0039      	movs	r1, r7
    28c0:	9302      	str	r3, [sp, #8]
    28c2:	9401      	str	r4, [sp, #4]
    28c4:	9500      	str	r5, [sp, #0]
    28c6:	9b0b      	ldr	r3, [sp, #44]	; 0x2c
    28c8:	003a      	movs	r2, r7
    28ca:	3110      	adds	r1, #16
    28cc:	0038      	movs	r0, r7
    28ce:	f7fe f8e5 	bl	a9c <lfs_bd_prog.constprop.34>
    28d2:	2800      	cmp	r0, #0
    28d4:	d131      	bne.n	293a <lfs_file_relocate+0x1c2>
    28d6:	465b      	mov	r3, fp
    28d8:	6bf2      	ldr	r2, [r6, #60]	; 0x3c
    28da:	3301      	adds	r3, #1
    28dc:	455a      	cmp	r2, fp
    28de:	d882      	bhi.n	27e6 <lfs_file_relocate+0x6e>
    28e0:	6ebb      	ldr	r3, [r7, #104]	; 0x68
    28e2:	69f9      	ldr	r1, [r7, #28]
    28e4:	6a9a      	ldr	r2, [r3, #40]	; 0x28
    28e6:	6cf0      	ldr	r0, [r6, #76]	; 0x4c
    28e8:	f7ff fffe 	bl	0 <memcpy>
    28ec:	69bb      	ldr	r3, [r7, #24]
    28ee:	697a      	ldr	r2, [r7, #20]
    28f0:	6939      	ldr	r1, [r7, #16]
    28f2:	64b3      	str	r3, [r6, #72]	; 0x48
    28f4:	6ebb      	ldr	r3, [r7, #104]	; 0x68
    28f6:	6431      	str	r1, [r6, #64]	; 0x40
    28f8:	6472      	str	r2, [r6, #68]	; 0x44
    28fa:	6a9a      	ldr	r2, [r3, #40]	; 0x28
    28fc:	21ff      	movs	r1, #255	; 0xff
    28fe:	69f8      	ldr	r0, [r7, #28]
    2900:	f7ff fffe 	bl	0 <memset>
    2904:	2301      	movs	r3, #1
    2906:	425b      	negs	r3, r3
    2908:	613b      	str	r3, [r7, #16]
    290a:	9b0b      	ldr	r3, [sp, #44]	; 0x2c
    290c:	6b32      	ldr	r2, [r6, #48]	; 0x30
    290e:	63b3      	str	r3, [r6, #56]	; 0x38
    2910:	2380      	movs	r3, #128	; 0x80
    2912:	029b      	lsls	r3, r3, #10
    2914:	4313      	orrs	r3, r2
    2916:	6333      	str	r3, [r6, #48]	; 0x30
    2918:	e759      	b.n	27ce <lfs_file_relocate+0x56>
    291a:	ab06      	add	r3, sp, #24
    291c:	2413      	movs	r4, #19
    291e:	469c      	mov	ip, r3
    2920:	4657      	mov	r7, sl
    2922:	4464      	add	r4, ip
    2924:	1b52      	subs	r2, r2, r5
    2926:	d000      	beq.n	292a <lfs_file_relocate+0x1b2>
    2928:	2201      	movs	r2, #1
    292a:	9b06      	ldr	r3, [sp, #24]
    292c:	1a69      	subs	r1, r5, r1
    292e:	469c      	mov	ip, r3
    2930:	0020      	movs	r0, r4
    2932:	4461      	add	r1, ip
    2934:	f7ff fffe 	bl	0 <memcpy>
    2938:	e7c0      	b.n	28bc <lfs_file_relocate+0x144>
    293a:	0003      	movs	r3, r0
    293c:	3354      	adds	r3, #84	; 0x54
    293e:	d100      	bne.n	2942 <lfs_file_relocate+0x1ca>
    2940:	e733      	b.n	27aa <lfs_file_relocate+0x32>
    2942:	9009      	str	r0, [sp, #36]	; 0x24
    2944:	e743      	b.n	27ce <lfs_file_relocate+0x56>
    2946:	2054      	movs	r0, #84	; 0x54
    2948:	4240      	negs	r0, r0
    294a:	9009      	str	r0, [sp, #36]	; 0x24
    294c:	e73f      	b.n	27ce <lfs_file_relocate+0x56>
    294e:	46c0      	nop			; (mov r8, r8)
    2950:	00000074 	.word	0x00000074
    2954:	00000a97 	.word	0x00000a97
    2958:	00000000 	.word	0x00000000
    295c:	000000a8 	.word	0x000000a8
    2960:	20100000 	.word	0x20100000

00002964 <lfs_file_rawwrite>:
    2964:	b5f0      	push	{r4, r5, r6, r7, lr}
    2966:	46de      	mov	lr, fp
    2968:	4657      	mov	r7, sl
    296a:	464e      	mov	r6, r9
    296c:	4645      	mov	r5, r8
    296e:	b5e0      	push	{r5, r6, r7, lr}
    2970:	b091      	sub	sp, #68	; 0x44
    2972:	9308      	str	r3, [sp, #32]
    2974:	6b0b      	ldr	r3, [r1, #48]	; 0x30
    2976:	4683      	mov	fp, r0
    2978:	000f      	movs	r7, r1
    297a:	9206      	str	r2, [sp, #24]
    297c:	035a      	lsls	r2, r3, #13
    297e:	d500      	bpl.n	2982 <lfs_file_rawwrite+0x1e>
    2980:	e196      	b.n	2cb0 <lfs_file_rawwrite+0x34c>
    2982:	6b7d      	ldr	r5, [r7, #52]	; 0x34
    2984:	051a      	lsls	r2, r3, #20
    2986:	d504      	bpl.n	2992 <lfs_file_rawwrite+0x2e>
    2988:	6afa      	ldr	r2, [r7, #44]	; 0x2c
    298a:	42aa      	cmp	r2, r5
    298c:	d901      	bls.n	2992 <lfs_file_rawwrite+0x2e>
    298e:	0015      	movs	r5, r2
    2990:	637a      	str	r2, [r7, #52]	; 0x34
    2992:	4659      	mov	r1, fp
    2994:	9a08      	ldr	r2, [sp, #32]
    2996:	6f09      	ldr	r1, [r1, #112]	; 0x70
    2998:	1952      	adds	r2, r2, r5
    299a:	428a      	cmp	r2, r1
    299c:	d900      	bls.n	29a0 <lfs_file_rawwrite+0x3c>
    299e:	e233      	b.n	2e08 <lfs_file_rawwrite+0x4a4>
    29a0:	039a      	lsls	r2, r3, #14
    29a2:	d41a      	bmi.n	29da <lfs_file_rawwrite+0x76>
    29a4:	6afa      	ldr	r2, [r7, #44]	; 0x2c
    29a6:	42aa      	cmp	r2, r5
    29a8:	d217      	bcs.n	29da <lfs_file_rawwrite+0x76>
    29aa:	ab08      	add	r3, sp, #32
    29ac:	2417      	movs	r4, #23
    29ae:	469c      	mov	ip, r3
    29b0:	46a8      	mov	r8, r5
    29b2:	2600      	movs	r6, #0
    29b4:	465d      	mov	r5, fp
    29b6:	637a      	str	r2, [r7, #52]	; 0x34
    29b8:	4464      	add	r4, ip
    29ba:	2301      	movs	r3, #1
    29bc:	0022      	movs	r2, r4
    29be:	0039      	movs	r1, r7
    29c0:	0028      	movs	r0, r5
    29c2:	7026      	strb	r6, [r4, #0]
    29c4:	f7ff ffce 	bl	2964 <lfs_file_rawwrite>
    29c8:	2800      	cmp	r0, #0
    29ca:	da00      	bge.n	29ce <lfs_file_rawwrite+0x6a>
    29cc:	e13e      	b.n	2c4c <lfs_file_rawwrite+0x2e8>
    29ce:	6b7a      	ldr	r2, [r7, #52]	; 0x34
    29d0:	4542      	cmp	r2, r8
    29d2:	d3f2      	bcc.n	29ba <lfs_file_rawwrite+0x56>
    29d4:	46ab      	mov	fp, r5
    29d6:	0015      	movs	r5, r2
    29d8:	6b3b      	ldr	r3, [r7, #48]	; 0x30
    29da:	02da      	lsls	r2, r3, #11
    29dc:	d500      	bpl.n	29e0 <lfs_file_rawwrite+0x7c>
    29de:	e081      	b.n	2ae4 <lfs_file_rawwrite+0x180>
    29e0:	2240      	movs	r2, #64	; 0x40
    29e2:	4694      	mov	ip, r2
    29e4:	44bc      	add	ip, r7
    29e6:	4662      	mov	r2, ip
    29e8:	2168      	movs	r1, #104	; 0x68
    29ea:	9207      	str	r2, [sp, #28]
    29ec:	9a08      	ldr	r2, [sp, #32]
    29ee:	4459      	add	r1, fp
    29f0:	9209      	str	r2, [sp, #36]	; 0x24
    29f2:	910a      	str	r1, [sp, #40]	; 0x28
    29f4:	465e      	mov	r6, fp
    29f6:	2a00      	cmp	r2, #0
    29f8:	d100      	bne.n	29fc <lfs_file_rawwrite+0x98>
    29fa:	e1f5      	b.n	2de8 <lfs_file_rawwrite+0x484>
    29fc:	039a      	lsls	r2, r3, #14
    29fe:	d561      	bpl.n	2ac4 <lfs_file_rawwrite+0x160>
    2a00:	6eb5      	ldr	r5, [r6, #104]	; 0x68
    2a02:	6bfc      	ldr	r4, [r7, #60]	; 0x3c
    2a04:	69ea      	ldr	r2, [r5, #28]
    2a06:	4294      	cmp	r4, r2
    2a08:	d100      	bne.n	2a0c <lfs_file_rawwrite+0xa8>
    2a0a:	e170      	b.n	2cee <lfs_file_rawwrite+0x38a>
    2a0c:	6bbb      	ldr	r3, [r7, #56]	; 0x38
    2a0e:	1b12      	subs	r2, r2, r4
    2a10:	469a      	mov	sl, r3
    2a12:	9b09      	ldr	r3, [sp, #36]	; 0x24
    2a14:	9305      	str	r3, [sp, #20]
    2a16:	4293      	cmp	r3, r2
    2a18:	d900      	bls.n	2a1c <lfs_file_rawwrite+0xb8>
    2a1a:	9205      	str	r2, [sp, #20]
    2a1c:	9b05      	ldr	r3, [sp, #20]
    2a1e:	2b00      	cmp	r3, #0
    2a20:	d03a      	beq.n	2a98 <lfs_file_rawwrite+0x134>
    2a22:	46b1      	mov	r9, r6
    2a24:	9b06      	ldr	r3, [sp, #24]
    2a26:	9e05      	ldr	r6, [sp, #20]
    2a28:	4698      	mov	r8, r3
    2a2a:	6aab      	ldr	r3, [r5, #40]	; 0x28
    2a2c:	469b      	mov	fp, r3
    2a2e:	e009      	b.n	2a44 <lfs_file_rawwrite+0xe0>
    2a30:	4653      	mov	r3, sl
    2a32:	69a9      	ldr	r1, [r5, #24]
    2a34:	643b      	str	r3, [r7, #64]	; 0x40
    2a36:	0020      	movs	r0, r4
    2a38:	f7ff fffe 	bl	0 <__aeabi_uidivmod>
    2a3c:	2300      	movs	r3, #0
    2a3e:	1a61      	subs	r1, r4, r1
    2a40:	6479      	str	r1, [r7, #68]	; 0x44
    2a42:	64bb      	str	r3, [r7, #72]	; 0x48
    2a44:	6c3b      	ldr	r3, [r7, #64]	; 0x40
    2a46:	4553      	cmp	r3, sl
    2a48:	d1f2      	bne.n	2a30 <lfs_file_rawwrite+0xcc>
    2a4a:	6c78      	ldr	r0, [r7, #68]	; 0x44
    2a4c:	42a0      	cmp	r0, r4
    2a4e:	d8ef      	bhi.n	2a30 <lfs_file_rawwrite+0xcc>
    2a50:	465b      	mov	r3, fp
    2a52:	18c3      	adds	r3, r0, r3
    2a54:	42a3      	cmp	r3, r4
    2a56:	d9eb      	bls.n	2a30 <lfs_file_rawwrite+0xcc>
    2a58:	1b1d      	subs	r5, r3, r4
    2a5a:	42b5      	cmp	r5, r6
    2a5c:	d900      	bls.n	2a60 <lfs_file_rawwrite+0xfc>
    2a5e:	0035      	movs	r5, r6
    2a60:	6cfb      	ldr	r3, [r7, #76]	; 0x4c
    2a62:	1a20      	subs	r0, r4, r0
    2a64:	469c      	mov	ip, r3
    2a66:	002a      	movs	r2, r5
    2a68:	4641      	mov	r1, r8
    2a6a:	4460      	add	r0, ip
    2a6c:	f7ff fffe 	bl	0 <memcpy>
    2a70:	6c7b      	ldr	r3, [r7, #68]	; 0x44
    2a72:	6cba      	ldr	r2, [r7, #72]	; 0x48
    2a74:	1964      	adds	r4, r4, r5
    2a76:	44a8      	add	r8, r5
    2a78:	1b76      	subs	r6, r6, r5
    2a7a:	1ae3      	subs	r3, r4, r3
    2a7c:	4293      	cmp	r3, r2
    2a7e:	d200      	bcs.n	2a82 <lfs_file_rawwrite+0x11e>
    2a80:	0013      	movs	r3, r2
    2a82:	464a      	mov	r2, r9
    2a84:	6e95      	ldr	r5, [r2, #104]	; 0x68
    2a86:	64bb      	str	r3, [r7, #72]	; 0x48
    2a88:	6aaa      	ldr	r2, [r5, #40]	; 0x28
    2a8a:	4293      	cmp	r3, r2
    2a8c:	d100      	bne.n	2a90 <lfs_file_rawwrite+0x12c>
    2a8e:	e0e4      	b.n	2c5a <lfs_file_rawwrite+0x2f6>
    2a90:	2e00      	cmp	r6, #0
    2a92:	d1ca      	bne.n	2a2a <lfs_file_rawwrite+0xc6>
    2a94:	464e      	mov	r6, r9
    2a96:	6bfc      	ldr	r4, [r7, #60]	; 0x3c
    2a98:	9a05      	ldr	r2, [sp, #20]
    2a9a:	6b7b      	ldr	r3, [r7, #52]	; 0x34
    2a9c:	4694      	mov	ip, r2
    2a9e:	4463      	add	r3, ip
    2aa0:	637b      	str	r3, [r7, #52]	; 0x34
    2aa2:	0013      	movs	r3, r2
    2aa4:	9a06      	ldr	r2, [sp, #24]
    2aa6:	4464      	add	r4, ip
    2aa8:	0011      	movs	r1, r2
    2aaa:	9a09      	ldr	r2, [sp, #36]	; 0x24
    2aac:	4461      	add	r1, ip
    2aae:	1ad3      	subs	r3, r2, r3
    2ab0:	6a2a      	ldr	r2, [r5, #32]
    2ab2:	63fc      	str	r4, [r7, #60]	; 0x3c
    2ab4:	9106      	str	r1, [sp, #24]
    2ab6:	9309      	str	r3, [sp, #36]	; 0x24
    2ab8:	6632      	str	r2, [r6, #96]	; 0x60
    2aba:	d100      	bne.n	2abe <lfs_file_rawwrite+0x15a>
    2abc:	e193      	b.n	2de6 <lfs_file_rawwrite+0x482>
    2abe:	6b3b      	ldr	r3, [r7, #48]	; 0x30
    2ac0:	039a      	lsls	r2, r3, #14
    2ac2:	d49d      	bmi.n	2a00 <lfs_file_rawwrite+0x9c>
    2ac4:	6b7c      	ldr	r4, [r7, #52]	; 0x34
    2ac6:	02da      	lsls	r2, r3, #11
    2ac8:	d534      	bpl.n	2b34 <lfs_file_rawwrite+0x1d0>
    2aca:	6eb5      	ldr	r5, [r6, #104]	; 0x68
    2acc:	69ea      	ldr	r2, [r5, #28]
    2ace:	2102      	movs	r1, #2
    2ad0:	4249      	negs	r1, r1
    2ad2:	468a      	mov	sl, r1
    2ad4:	63b9      	str	r1, [r7, #56]	; 0x38
    2ad6:	63fc      	str	r4, [r7, #60]	; 0x3c
    2ad8:	1b12      	subs	r2, r2, r4
    2ada:	2180      	movs	r1, #128	; 0x80
    2adc:	0289      	lsls	r1, r1, #10
    2ade:	430b      	orrs	r3, r1
    2ae0:	633b      	str	r3, [r7, #48]	; 0x30
    2ae2:	e796      	b.n	2a12 <lfs_file_rawwrite+0xae>
    2ae4:	9908      	ldr	r1, [sp, #32]
    2ae6:	6afa      	ldr	r2, [r7, #44]	; 0x2c
    2ae8:	194c      	adds	r4, r1, r5
    2aea:	4294      	cmp	r4, r2
    2aec:	d200      	bcs.n	2af0 <lfs_file_rawwrite+0x18c>
    2aee:	e0f6      	b.n	2cde <lfs_file_rawwrite+0x37a>
    2af0:	465a      	mov	r2, fp
    2af2:	6e90      	ldr	r0, [r2, #104]	; 0x68
    2af4:	6c81      	ldr	r1, [r0, #72]	; 0x48
    2af6:	6a82      	ldr	r2, [r0, #40]	; 0x28
    2af8:	2900      	cmp	r1, #0
    2afa:	d100      	bne.n	2afe <lfs_file_rawwrite+0x19a>
    2afc:	e0e8      	b.n	2cd0 <lfs_file_rawwrite+0x36c>
    2afe:	4ec4      	ldr	r6, [pc, #784]	; (2e10 <lfs_file_rawwrite+0x4ac>)
    2b00:	08c9      	lsrs	r1, r1, #3
    2b02:	42b2      	cmp	r2, r6
    2b04:	d900      	bls.n	2b08 <lfs_file_rawwrite+0x1a4>
    2b06:	e0de      	b.n	2cc6 <lfs_file_rawwrite+0x362>
    2b08:	428a      	cmp	r2, r1
    2b0a:	d900      	bls.n	2b0e <lfs_file_rawwrite+0x1aa>
    2b0c:	e0d6      	b.n	2cbc <lfs_file_rawwrite+0x358>
    2b0e:	42a2      	cmp	r2, r4
    2b10:	d300      	bcc.n	2b14 <lfs_file_rawwrite+0x1b0>
    2b12:	e765      	b.n	29e0 <lfs_file_rawwrite+0x7c>
    2b14:	465b      	mov	r3, fp
    2b16:	6a02      	ldr	r2, [r0, #32]
    2b18:	63fd      	str	r5, [r7, #60]	; 0x3c
    2b1a:	0039      	movs	r1, r7
    2b1c:	661a      	str	r2, [r3, #96]	; 0x60
    2b1e:	4658      	mov	r0, fp
    2b20:	f7ff fe2a 	bl	2778 <lfs_file_relocate>
    2b24:	2800      	cmp	r0, #0
    2b26:	d000      	beq.n	2b2a <lfs_file_rawwrite+0x1c6>
    2b28:	e08b      	b.n	2c42 <lfs_file_rawwrite+0x2de>
    2b2a:	6b3a      	ldr	r2, [r7, #48]	; 0x30
    2b2c:	4bb9      	ldr	r3, [pc, #740]	; (2e14 <lfs_file_rawwrite+0x4b0>)
    2b2e:	4013      	ands	r3, r2
    2b30:	633b      	str	r3, [r7, #48]	; 0x30
    2b32:	e755      	b.n	29e0 <lfs_file_rawwrite+0x7c>
    2b34:	2c00      	cmp	r4, #0
    2b36:	d000      	beq.n	2b3a <lfs_file_rawwrite+0x1d6>
    2b38:	e0de      	b.n	2cf8 <lfs_file_rawwrite+0x394>
    2b3a:	6eb5      	ldr	r5, [r6, #104]	; 0x68
    2b3c:	6a2b      	ldr	r3, [r5, #32]
    2b3e:	6633      	str	r3, [r6, #96]	; 0x60
    2b40:	6bbb      	ldr	r3, [r7, #56]	; 0x38
    2b42:	469b      	mov	fp, r3
    2b44:	6b7b      	ldr	r3, [r7, #52]	; 0x34
    2b46:	9305      	str	r3, [sp, #20]
    2b48:	003b      	movs	r3, r7
    2b4a:	465f      	mov	r7, fp
    2b4c:	469b      	mov	fp, r3
    2b4e:	a90e      	add	r1, sp, #56	; 0x38
    2b50:	0030      	movs	r0, r6
    2b52:	f7ff fa75 	bl	2040 <lfs_alloc>
    2b56:	2800      	cmp	r0, #0
    2b58:	d172      	bne.n	2c40 <lfs_file_rawwrite+0x2dc>
    2b5a:	6eb0      	ldr	r0, [r6, #104]	; 0x68
    2b5c:	990e      	ldr	r1, [sp, #56]	; 0x38
    2b5e:	68c3      	ldr	r3, [r0, #12]
    2b60:	4798      	blx	r3
    2b62:	2800      	cmp	r0, #0
    2b64:	d000      	beq.n	2b68 <lfs_file_rawwrite+0x204>
    2b66:	e093      	b.n	2c90 <lfs_file_rawwrite+0x32c>
    2b68:	6eb3      	ldr	r3, [r6, #104]	; 0x68
    2b6a:	4698      	mov	r8, r3
    2b6c:	9b05      	ldr	r3, [sp, #20]
    2b6e:	2b00      	cmp	r3, #0
    2b70:	d100      	bne.n	2b74 <lfs_file_rawwrite+0x210>
    2b72:	e13e      	b.n	2df2 <lfs_file_rawwrite+0x48e>
    2b74:	4642      	mov	r2, r8
    2b76:	69d4      	ldr	r4, [r2, #28]
    2b78:	2208      	movs	r2, #8
    2b7a:	4252      	negs	r2, r2
    2b7c:	4691      	mov	r9, r2
    2b7e:	1e5d      	subs	r5, r3, #1
    2b80:	44a1      	add	r9, r4
    2b82:	454d      	cmp	r5, r9
    2b84:	d200      	bcs.n	2b88 <lfs_file_rawwrite+0x224>
    2b86:	e0d0      	b.n	2d2a <lfs_file_rawwrite+0x3c6>
    2b88:	4649      	mov	r1, r9
    2b8a:	0028      	movs	r0, r5
    2b8c:	f7ff fffe 	bl	0 <__aeabi_uidiv>
    2b90:	3801      	subs	r0, #1
    2b92:	f7ff fffe 	bl	0 <__popcountsi2>
    2b96:	3002      	adds	r0, #2
    2b98:	0080      	lsls	r0, r0, #2
    2b9a:	4649      	mov	r1, r9
    2b9c:	1a28      	subs	r0, r5, r0
    2b9e:	f7ff fffe 	bl	0 <__aeabi_uidiv>
    2ba2:	0005      	movs	r5, r0
    2ba4:	f7ff fffe 	bl	0 <__popcountsi2>
    2ba8:	9b05      	ldr	r3, [sp, #20]
    2baa:	0080      	lsls	r0, r0, #2
    2bac:	1a18      	subs	r0, r3, r0
    2bae:	464b      	mov	r3, r9
    2bb0:	436b      	muls	r3, r5
    2bb2:	1ac3      	subs	r3, r0, r3
    2bb4:	4699      	mov	r9, r3
    2bb6:	429c      	cmp	r4, r3
    2bb8:	d100      	bne.n	2bbc <lfs_file_rawwrite+0x258>
    2bba:	e0f9      	b.n	2db0 <lfs_file_rawwrite+0x44c>
    2bbc:	2b00      	cmp	r3, #0
    2bbe:	d100      	bne.n	2bc2 <lfs_file_rawwrite+0x25e>
    2bc0:	e10d      	b.n	2dde <lfs_file_rawwrite+0x47a>
    2bc2:	4643      	mov	r3, r8
    2bc4:	6a1b      	ldr	r3, [r3, #32]
    2bc6:	429f      	cmp	r7, r3
    2bc8:	d300      	bcc.n	2bcc <lfs_file_rawwrite+0x268>
    2bca:	e104      	b.n	2dd6 <lfs_file_rawwrite+0x472>
    2bcc:	2c00      	cmp	r4, #0
    2bce:	d100      	bne.n	2bd2 <lfs_file_rawwrite+0x26e>
    2bd0:	e101      	b.n	2dd6 <lfs_file_rawwrite+0x472>
    2bd2:	2301      	movs	r3, #1
    2bd4:	469a      	mov	sl, r3
    2bd6:	464b      	mov	r3, r9
    2bd8:	9a0a      	ldr	r2, [sp, #40]	; 0x28
    2bda:	46b9      	mov	r9, r7
    2bdc:	2400      	movs	r4, #0
    2bde:	ad0f      	add	r5, sp, #60	; 0x3c
    2be0:	4690      	mov	r8, r2
    2be2:	001f      	movs	r7, r3
    2be4:	e00e      	b.n	2c04 <lfs_file_rawwrite+0x2a0>
    2be6:	1c63      	adds	r3, r4, #1
    2be8:	6eb2      	ldr	r2, [r6, #104]	; 0x68
    2bea:	42bb      	cmp	r3, r7
    2bec:	d300      	bcc.n	2bf0 <lfs_file_rawwrite+0x28c>
    2bee:	e0e7      	b.n	2dc0 <lfs_file_rawwrite+0x45c>
    2bf0:	6a11      	ldr	r1, [r2, #32]
    2bf2:	4589      	cmp	r9, r1
    2bf4:	d300      	bcc.n	2bf8 <lfs_file_rawwrite+0x294>
    2bf6:	e0ee      	b.n	2dd6 <lfs_file_rawwrite+0x472>
    2bf8:	69d2      	ldr	r2, [r2, #28]
    2bfa:	3402      	adds	r4, #2
    2bfc:	42a2      	cmp	r2, r4
    2bfe:	d200      	bcs.n	2c02 <lfs_file_rawwrite+0x29e>
    2c00:	e0e9      	b.n	2dd6 <lfs_file_rawwrite+0x472>
    2c02:	001c      	movs	r4, r3
    2c04:	4652      	mov	r2, sl
    2c06:	9203      	str	r2, [sp, #12]
    2c08:	464a      	mov	r2, r9
    2c0a:	1b3b      	subs	r3, r7, r4
    2c0c:	9200      	str	r2, [sp, #0]
    2c0e:	9502      	str	r5, [sp, #8]
    2c10:	9401      	str	r4, [sp, #4]
    2c12:	0032      	movs	r2, r6
    2c14:	2100      	movs	r1, #0
    2c16:	4640      	mov	r0, r8
    2c18:	f7fd fac2 	bl	1a0 <lfs_bd_read.isra.21.part.22>
    2c1c:	2800      	cmp	r0, #0
    2c1e:	d10f      	bne.n	2c40 <lfs_file_rawwrite+0x2dc>
    2c20:	4653      	mov	r3, sl
    2c22:	9501      	str	r5, [sp, #4]
    2c24:	9302      	str	r3, [sp, #8]
    2c26:	9400      	str	r4, [sp, #0]
    2c28:	9b0e      	ldr	r3, [sp, #56]	; 0x38
    2c2a:	0032      	movs	r2, r6
    2c2c:	9907      	ldr	r1, [sp, #28]
    2c2e:	0030      	movs	r0, r6
    2c30:	f7fd ff34 	bl	a9c <lfs_bd_prog.constprop.34>
    2c34:	2800      	cmp	r0, #0
    2c36:	d0d6      	beq.n	2be6 <lfs_file_rawwrite+0x282>
    2c38:	0003      	movs	r3, r0
    2c3a:	464f      	mov	r7, r9
    2c3c:	3354      	adds	r3, #84	; 0x54
    2c3e:	d02a      	beq.n	2c96 <lfs_file_rawwrite+0x332>
    2c40:	465f      	mov	r7, fp
    2c42:	2380      	movs	r3, #128	; 0x80
    2c44:	6b3a      	ldr	r2, [r7, #48]	; 0x30
    2c46:	031b      	lsls	r3, r3, #12
    2c48:	4313      	orrs	r3, r2
    2c4a:	633b      	str	r3, [r7, #48]	; 0x30
    2c4c:	b011      	add	sp, #68	; 0x44
    2c4e:	bc3c      	pop	{r2, r3, r4, r5}
    2c50:	4690      	mov	r8, r2
    2c52:	4699      	mov	r9, r3
    2c54:	46a2      	mov	sl, r4
    2c56:	46ab      	mov	fp, r5
    2c58:	bdf0      	pop	{r4, r5, r6, r7, pc}
    2c5a:	2301      	movs	r3, #1
    2c5c:	464a      	mov	r2, r9
    2c5e:	9907      	ldr	r1, [sp, #28]
    2c60:	4648      	mov	r0, r9
    2c62:	f7fd fe89 	bl	978 <lfs_bd_flush>
    2c66:	2800      	cmp	r0, #0
    2c68:	d102      	bne.n	2c70 <lfs_file_rawwrite+0x30c>
    2c6a:	464b      	mov	r3, r9
    2c6c:	6e9d      	ldr	r5, [r3, #104]	; 0x68
    2c6e:	e70f      	b.n	2a90 <lfs_file_rawwrite+0x12c>
    2c70:	0003      	movs	r3, r0
    2c72:	3354      	adds	r3, #84	; 0x54
    2c74:	d1e5      	bne.n	2c42 <lfs_file_rawwrite+0x2de>
    2c76:	0039      	movs	r1, r7
    2c78:	4648      	mov	r0, r9
    2c7a:	f7ff fd7d 	bl	2778 <lfs_file_relocate>
    2c7e:	2800      	cmp	r0, #0
    2c80:	d1df      	bne.n	2c42 <lfs_file_rawwrite+0x2de>
    2c82:	464b      	mov	r3, r9
    2c84:	6e9d      	ldr	r5, [r3, #104]	; 0x68
    2c86:	6bbb      	ldr	r3, [r7, #56]	; 0x38
    2c88:	6bfc      	ldr	r4, [r7, #60]	; 0x3c
    2c8a:	469a      	mov	sl, r3
    2c8c:	e6ca      	b.n	2a24 <lfs_file_rawwrite+0xc0>
    2c8e:	9f0b      	ldr	r7, [sp, #44]	; 0x2c
    2c90:	0003      	movs	r3, r0
    2c92:	3354      	adds	r3, #84	; 0x54
    2c94:	d1d4      	bne.n	2c40 <lfs_file_rawwrite+0x2dc>
    2c96:	4b60      	ldr	r3, [pc, #384]	; (2e18 <lfs_file_rawwrite+0x4b4>)
    2c98:	4a60      	ldr	r2, [pc, #384]	; (2e1c <lfs_file_rawwrite+0x4b8>)
    2c9a:	9300      	str	r3, [sp, #0]
    2c9c:	4960      	ldr	r1, [pc, #384]	; (2e20 <lfs_file_rawwrite+0x4bc>)
    2c9e:	9b0e      	ldr	r3, [sp, #56]	; 0x38
    2ca0:	4860      	ldr	r0, [pc, #384]	; (2e24 <lfs_file_rawwrite+0x4c0>)
    2ca2:	f7ff fffe 	bl	0 <printf>
    2ca6:	2301      	movs	r3, #1
    2ca8:	465a      	mov	r2, fp
    2caa:	425b      	negs	r3, r3
    2cac:	6413      	str	r3, [r2, #64]	; 0x40
    2cae:	e74e      	b.n	2b4e <lfs_file_rawwrite+0x1ea>
    2cb0:	f000 f8bc 	bl	2e2c <lfs_file_flush>
    2cb4:	2800      	cmp	r0, #0
    2cb6:	d1c9      	bne.n	2c4c <lfs_file_rawwrite+0x2e8>
    2cb8:	6b3b      	ldr	r3, [r7, #48]	; 0x30
    2cba:	e662      	b.n	2982 <lfs_file_rawwrite+0x1e>
    2cbc:	000a      	movs	r2, r1
    2cbe:	42a2      	cmp	r2, r4
    2cc0:	d300      	bcc.n	2cc4 <lfs_file_rawwrite+0x360>
    2cc2:	e68d      	b.n	29e0 <lfs_file_rawwrite+0x7c>
    2cc4:	e726      	b.n	2b14 <lfs_file_rawwrite+0x1b0>
    2cc6:	0032      	movs	r2, r6
    2cc8:	428a      	cmp	r2, r1
    2cca:	d800      	bhi.n	2cce <lfs_file_rawwrite+0x36a>
    2ccc:	e71f      	b.n	2b0e <lfs_file_rawwrite+0x1aa>
    2cce:	e7f5      	b.n	2cbc <lfs_file_rawwrite+0x358>
    2cd0:	69c1      	ldr	r1, [r0, #28]
    2cd2:	4e4f      	ldr	r6, [pc, #316]	; (2e10 <lfs_file_rawwrite+0x4ac>)
    2cd4:	08c9      	lsrs	r1, r1, #3
    2cd6:	42b2      	cmp	r2, r6
    2cd8:	d800      	bhi.n	2cdc <lfs_file_rawwrite+0x378>
    2cda:	e715      	b.n	2b08 <lfs_file_rawwrite+0x1a4>
    2cdc:	e7f3      	b.n	2cc6 <lfs_file_rawwrite+0x362>
    2cde:	0014      	movs	r4, r2
    2ce0:	465a      	mov	r2, fp
    2ce2:	6e90      	ldr	r0, [r2, #104]	; 0x68
    2ce4:	6c81      	ldr	r1, [r0, #72]	; 0x48
    2ce6:	6a82      	ldr	r2, [r0, #40]	; 0x28
    2ce8:	2900      	cmp	r1, #0
    2cea:	d0f1      	beq.n	2cd0 <lfs_file_rawwrite+0x36c>
    2cec:	e707      	b.n	2afe <lfs_file_rawwrite+0x19a>
    2cee:	02d9      	lsls	r1, r3, #11
    2cf0:	d400      	bmi.n	2cf4 <lfs_file_rawwrite+0x390>
    2cf2:	e723      	b.n	2b3c <lfs_file_rawwrite+0x1d8>
    2cf4:	6b7c      	ldr	r4, [r7, #52]	; 0x34
    2cf6:	e6ea      	b.n	2ace <lfs_file_rawwrite+0x16a>
    2cf8:	003b      	movs	r3, r7
    2cfa:	333c      	adds	r3, #60	; 0x3c
    2cfc:	9302      	str	r3, [sp, #8]
    2cfe:	3c01      	subs	r4, #1
    2d00:	3b04      	subs	r3, #4
    2d02:	9301      	str	r3, [sp, #4]
    2d04:	9400      	str	r4, [sp, #0]
    2d06:	6afb      	ldr	r3, [r7, #44]	; 0x2c
    2d08:	6aba      	ldr	r2, [r7, #40]	; 0x28
    2d0a:	9907      	ldr	r1, [sp, #28]
    2d0c:	0030      	movs	r0, r6
    2d0e:	f7fd fc87 	bl	620 <lfs_ctz_find.constprop.30>
    2d12:	2800      	cmp	r0, #0
    2d14:	d195      	bne.n	2c42 <lfs_file_rawwrite+0x2de>
    2d16:	6eb3      	ldr	r3, [r6, #104]	; 0x68
    2d18:	21ff      	movs	r1, #255	; 0xff
    2d1a:	6a9a      	ldr	r2, [r3, #40]	; 0x28
    2d1c:	6cf8      	ldr	r0, [r7, #76]	; 0x4c
    2d1e:	f7ff fffe 	bl	0 <memset>
    2d22:	2301      	movs	r3, #1
    2d24:	425b      	negs	r3, r3
    2d26:	643b      	str	r3, [r7, #64]	; 0x40
    2d28:	e707      	b.n	2b3a <lfs_file_rawwrite+0x1d6>
    2d2a:	4699      	mov	r9, r3
    2d2c:	42a3      	cmp	r3, r4
    2d2e:	d000      	beq.n	2d32 <lfs_file_rawwrite+0x3ce>
    2d30:	e747      	b.n	2bc2 <lfs_file_rawwrite+0x25e>
    2d32:	2301      	movs	r3, #1
    2d34:	001a      	movs	r2, r3
    2d36:	2300      	movs	r3, #0
    2d38:	469a      	mov	sl, r3
    2d3a:	2304      	movs	r3, #4
    2d3c:	2400      	movs	r4, #0
    2d3e:	4699      	mov	r9, r3
    2d40:	4690      	mov	r8, r2
    2d42:	970f      	str	r7, [sp, #60]	; 0x3c
    2d44:	ad0f      	add	r5, sp, #60	; 0x3c
    2d46:	970b      	str	r7, [sp, #44]	; 0x2c
    2d48:	464b      	mov	r3, r9
    2d4a:	00a7      	lsls	r7, r4, #2
    2d4c:	9302      	str	r3, [sp, #8]
    2d4e:	9501      	str	r5, [sp, #4]
    2d50:	9700      	str	r7, [sp, #0]
    2d52:	9b0e      	ldr	r3, [sp, #56]	; 0x38
    2d54:	0032      	movs	r2, r6
    2d56:	9907      	ldr	r1, [sp, #28]
    2d58:	0030      	movs	r0, r6
    2d5a:	f7fd fe9f 	bl	a9c <lfs_bd_prog.constprop.34>
    2d5e:	2800      	cmp	r0, #0
    2d60:	d195      	bne.n	2c8e <lfs_file_rawwrite+0x32a>
    2d62:	4554      	cmp	r4, sl
    2d64:	d016      	beq.n	2d94 <lfs_file_rawwrite+0x430>
    2d66:	6eb2      	ldr	r2, [r6, #104]	; 0x68
    2d68:	990f      	ldr	r1, [sp, #60]	; 0x3c
    2d6a:	6a13      	ldr	r3, [r2, #32]
    2d6c:	4299      	cmp	r1, r3
    2d6e:	d232      	bcs.n	2dd6 <lfs_file_rawwrite+0x472>
    2d70:	69d2      	ldr	r2, [r2, #28]
    2d72:	1d3b      	adds	r3, r7, #4
    2d74:	429a      	cmp	r2, r3
    2d76:	d32e      	bcc.n	2dd6 <lfs_file_rawwrite+0x472>
    2d78:	464b      	mov	r3, r9
    2d7a:	9100      	str	r1, [sp, #0]
    2d7c:	9303      	str	r3, [sp, #12]
    2d7e:	9502      	str	r5, [sp, #8]
    2d80:	9701      	str	r7, [sp, #4]
    2d82:	2304      	movs	r3, #4
    2d84:	0032      	movs	r2, r6
    2d86:	2100      	movs	r1, #0
    2d88:	980a      	ldr	r0, [sp, #40]	; 0x28
    2d8a:	f7fd fa09 	bl	1a0 <lfs_bd_read.isra.21.part.22>
    2d8e:	2800      	cmp	r0, #0
    2d90:	d000      	beq.n	2d94 <lfs_file_rawwrite+0x430>
    2d92:	e755      	b.n	2c40 <lfs_file_rawwrite+0x2dc>
    2d94:	3401      	adds	r4, #1
    2d96:	4544      	cmp	r4, r8
    2d98:	d1d6      	bne.n	2d48 <lfs_file_rawwrite+0x3e4>
    2d9a:	465f      	mov	r7, fp
    2d9c:	9b0e      	ldr	r3, [sp, #56]	; 0x38
    2d9e:	00a4      	lsls	r4, r4, #2
    2da0:	6eb5      	ldr	r5, [r6, #104]	; 0x68
    2da2:	63bb      	str	r3, [r7, #56]	; 0x38
    2da4:	63fc      	str	r4, [r7, #60]	; 0x3c
    2da6:	69ea      	ldr	r2, [r5, #28]
    2da8:	469a      	mov	sl, r3
    2daa:	1b12      	subs	r2, r2, r4
    2dac:	6b3b      	ldr	r3, [r7, #48]	; 0x30
    2dae:	e694      	b.n	2ada <lfs_file_rawwrite+0x176>
    2db0:	1c68      	adds	r0, r5, #1
    2db2:	f7ff fffe 	bl	0 <__ctzsi2>
    2db6:	0003      	movs	r3, r0
    2db8:	3301      	adds	r3, #1
    2dba:	4682      	mov	sl, r0
    2dbc:	001a      	movs	r2, r3
    2dbe:	e7bc      	b.n	2d3a <lfs_file_rawwrite+0x3d6>
    2dc0:	003c      	movs	r4, r7
    2dc2:	0015      	movs	r5, r2
    2dc4:	465f      	mov	r7, fp
    2dc6:	9b0e      	ldr	r3, [sp, #56]	; 0x38
    2dc8:	63fc      	str	r4, [r7, #60]	; 0x3c
    2dca:	63bb      	str	r3, [r7, #56]	; 0x38
    2dcc:	69ea      	ldr	r2, [r5, #28]
    2dce:	469a      	mov	sl, r3
    2dd0:	1b12      	subs	r2, r2, r4
    2dd2:	6b3b      	ldr	r3, [r7, #48]	; 0x30
    2dd4:	e681      	b.n	2ada <lfs_file_rawwrite+0x176>
    2dd6:	2054      	movs	r0, #84	; 0x54
    2dd8:	465f      	mov	r7, fp
    2dda:	4240      	negs	r0, r0
    2ddc:	e731      	b.n	2c42 <lfs_file_rawwrite+0x2de>
    2dde:	4645      	mov	r5, r8
    2de0:	001c      	movs	r4, r3
    2de2:	465f      	mov	r7, fp
    2de4:	e7ef      	b.n	2dc6 <lfs_file_rawwrite+0x462>
    2de6:	6b3b      	ldr	r3, [r7, #48]	; 0x30
    2de8:	4a0f      	ldr	r2, [pc, #60]	; (2e28 <lfs_file_rawwrite+0x4c4>)
    2dea:	9808      	ldr	r0, [sp, #32]
    2dec:	4013      	ands	r3, r2
    2dee:	633b      	str	r3, [r7, #48]	; 0x30
    2df0:	e72c      	b.n	2c4c <lfs_file_rawwrite+0x2e8>
    2df2:	465f      	mov	r7, fp
    2df4:	4645      	mov	r5, r8
    2df6:	9b0e      	ldr	r3, [sp, #56]	; 0x38
    2df8:	2400      	movs	r4, #0
    2dfa:	63bb      	str	r3, [r7, #56]	; 0x38
    2dfc:	469a      	mov	sl, r3
    2dfe:	9b05      	ldr	r3, [sp, #20]
    2e00:	63fb      	str	r3, [r7, #60]	; 0x3c
    2e02:	69ea      	ldr	r2, [r5, #28]
    2e04:	6b3b      	ldr	r3, [r7, #48]	; 0x30
    2e06:	e668      	b.n	2ada <lfs_file_rawwrite+0x176>
    2e08:	201b      	movs	r0, #27
    2e0a:	4240      	negs	r0, r0
    2e0c:	e71e      	b.n	2c4c <lfs_file_rawwrite+0x2e8>
    2e0e:	46c0      	nop			; (mov r8, r8)
    2e10:	000003fe 	.word	0x000003fe
    2e14:	ffefffff 	.word	0xffefffff
    2e18:	00000074 	.word	0x00000074
    2e1c:	00000966 	.word	0x00000966
    2e20:	00000000 	.word	0x00000000
    2e24:	000000a8 	.word	0x000000a8
    2e28:	fff7ffff 	.word	0xfff7ffff

00002e2c <lfs_file_flush>:
    2e2c:	b5f0      	push	{r4, r5, r6, r7, lr}
    2e2e:	46ce      	mov	lr, r9
    2e30:	4647      	mov	r7, r8
    2e32:	b580      	push	{r7, lr}
    2e34:	6b0b      	ldr	r3, [r1, #48]	; 0x30
    2e36:	b099      	sub	sp, #100	; 0x64
    2e38:	0005      	movs	r5, r0
    2e3a:	000c      	movs	r4, r1
    2e3c:	035a      	lsls	r2, r3, #13
    2e3e:	d505      	bpl.n	2e4c <lfs_file_flush+0x20>
    2e40:	02da      	lsls	r2, r3, #11
    2e42:	d400      	bmi.n	2e46 <lfs_file_flush+0x1a>
    2e44:	e073      	b.n	2f2e <lfs_file_flush+0x102>
    2e46:	4a3c      	ldr	r2, [pc, #240]	; (2f38 <lfs_file_flush+0x10c>)
    2e48:	4013      	ands	r3, r2
    2e4a:	6323      	str	r3, [r4, #48]	; 0x30
    2e4c:	2000      	movs	r0, #0
    2e4e:	039a      	lsls	r2, r3, #14
    2e50:	d563      	bpl.n	2f1a <lfs_file_flush+0xee>
    2e52:	6b67      	ldr	r7, [r4, #52]	; 0x34
    2e54:	6ae6      	ldr	r6, [r4, #44]	; 0x2c
    2e56:	02da      	lsls	r2, r3, #11
    2e58:	d464      	bmi.n	2f24 <lfs_file_flush+0xf8>
    2e5a:	2254      	movs	r2, #84	; 0x54
    2e5c:	2100      	movs	r1, #0
    2e5e:	a803      	add	r0, sp, #12
    2e60:	f7ff fffe 	bl	0 <memset>
    2e64:	6aa3      	ldr	r3, [r4, #40]	; 0x28
    2e66:	002a      	movs	r2, r5
    2e68:	930d      	str	r3, [sp, #52]	; 0x34
    2e6a:	2301      	movs	r3, #1
    2e6c:	960e      	str	r6, [sp, #56]	; 0x38
    2e6e:	930f      	str	r3, [sp, #60]	; 0x3c
    2e70:	9710      	str	r7, [sp, #64]	; 0x40
    2e72:	ab13      	add	r3, sp, #76	; 0x4c
    2e74:	ca43      	ldmia	r2!, {r0, r1, r6}
    2e76:	c343      	stmia	r3!, {r0, r1, r6}
    2e78:	2601      	movs	r6, #1
    2e7a:	6812      	ldr	r2, [r2, #0]
    2e7c:	4276      	negs	r6, r6
    2e7e:	601a      	str	r2, [r3, #0]
    2e80:	602e      	str	r6, [r5, #0]
    2e82:	6b63      	ldr	r3, [r4, #52]	; 0x34
    2e84:	6ae2      	ldr	r2, [r4, #44]	; 0x2c
    2e86:	4293      	cmp	r3, r2
    2e88:	d21a      	bcs.n	2ec0 <lfs_file_flush+0x94>
    2e8a:	220b      	movs	r2, #11
    2e8c:	2301      	movs	r3, #1
    2e8e:	446a      	add	r2, sp
    2e90:	a903      	add	r1, sp, #12
    2e92:	0028      	movs	r0, r5
    2e94:	f000 f85c 	bl	2f50 <lfs_file_rawread>
    2e98:	2800      	cmp	r0, #0
    2e9a:	db3e      	blt.n	2f1a <lfs_file_flush+0xee>
    2e9c:	220b      	movs	r2, #11
    2e9e:	2301      	movs	r3, #1
    2ea0:	446a      	add	r2, sp
    2ea2:	0021      	movs	r1, r4
    2ea4:	0028      	movs	r0, r5
    2ea6:	f7ff fd5d 	bl	2964 <lfs_file_rawwrite>
    2eaa:	2800      	cmp	r0, #0
    2eac:	db35      	blt.n	2f1a <lfs_file_flush+0xee>
    2eae:	682b      	ldr	r3, [r5, #0]
    2eb0:	3301      	adds	r3, #1
    2eb2:	d0e6      	beq.n	2e82 <lfs_file_flush+0x56>
    2eb4:	602e      	str	r6, [r5, #0]
    2eb6:	6ae3      	ldr	r3, [r4, #44]	; 0x2c
    2eb8:	6b62      	ldr	r2, [r4, #52]	; 0x34
    2eba:	9613      	str	r6, [sp, #76]	; 0x4c
    2ebc:	4293      	cmp	r3, r2
    2ebe:	d8e4      	bhi.n	2e8a <lfs_file_flush+0x5e>
    2ec0:	0026      	movs	r6, r4
    2ec2:	4b1e      	ldr	r3, [pc, #120]	; (2f3c <lfs_file_flush+0x110>)
    2ec4:	3640      	adds	r6, #64	; 0x40
    2ec6:	4699      	mov	r9, r3
    2ec8:	4b1d      	ldr	r3, [pc, #116]	; (2f40 <lfs_file_flush+0x114>)
    2eca:	4698      	mov	r8, r3
    2ecc:	e010      	b.n	2ef0 <lfs_file_flush+0xc4>
    2ece:	0003      	movs	r3, r0
    2ed0:	3354      	adds	r3, #84	; 0x54
    2ed2:	d122      	bne.n	2f1a <lfs_file_flush+0xee>
    2ed4:	4b1b      	ldr	r3, [pc, #108]	; (2f44 <lfs_file_flush+0x118>)
    2ed6:	4649      	mov	r1, r9
    2ed8:	9300      	str	r3, [sp, #0]
    2eda:	4a1b      	ldr	r2, [pc, #108]	; (2f48 <lfs_file_flush+0x11c>)
    2edc:	6ba3      	ldr	r3, [r4, #56]	; 0x38
    2ede:	4640      	mov	r0, r8
    2ee0:	f7ff fffe 	bl	0 <printf>
    2ee4:	0021      	movs	r1, r4
    2ee6:	0028      	movs	r0, r5
    2ee8:	f7ff fc46 	bl	2778 <lfs_file_relocate>
    2eec:	2800      	cmp	r0, #0
    2eee:	d114      	bne.n	2f1a <lfs_file_flush+0xee>
    2ef0:	2301      	movs	r3, #1
    2ef2:	002a      	movs	r2, r5
    2ef4:	0031      	movs	r1, r6
    2ef6:	0028      	movs	r0, r5
    2ef8:	f7fd fd3e 	bl	978 <lfs_bd_flush>
    2efc:	2800      	cmp	r0, #0
    2efe:	d1e6      	bne.n	2ece <lfs_file_flush+0xa2>
    2f00:	6b62      	ldr	r2, [r4, #52]	; 0x34
    2f02:	6b23      	ldr	r3, [r4, #48]	; 0x30
    2f04:	62e2      	str	r2, [r4, #44]	; 0x2c
    2f06:	4a11      	ldr	r2, [pc, #68]	; (2f4c <lfs_file_flush+0x120>)
    2f08:	2000      	movs	r0, #0
    2f0a:	4013      	ands	r3, r2
    2f0c:	2280      	movs	r2, #128	; 0x80
    2f0e:	6ba1      	ldr	r1, [r4, #56]	; 0x38
    2f10:	0252      	lsls	r2, r2, #9
    2f12:	4313      	orrs	r3, r2
    2f14:	62a1      	str	r1, [r4, #40]	; 0x28
    2f16:	6323      	str	r3, [r4, #48]	; 0x30
    2f18:	6367      	str	r7, [r4, #52]	; 0x34
    2f1a:	b019      	add	sp, #100	; 0x64
    2f1c:	bc0c      	pop	{r2, r3}
    2f1e:	4690      	mov	r8, r2
    2f20:	4699      	mov	r9, r3
    2f22:	bdf0      	pop	{r4, r5, r6, r7, pc}
    2f24:	003a      	movs	r2, r7
    2f26:	42b7      	cmp	r7, r6
    2f28:	d2ec      	bcs.n	2f04 <lfs_file_flush+0xd8>
    2f2a:	0032      	movs	r2, r6
    2f2c:	e7ea      	b.n	2f04 <lfs_file_flush+0xd8>
    2f2e:	2201      	movs	r2, #1
    2f30:	4252      	negs	r2, r2
    2f32:	640a      	str	r2, [r1, #64]	; 0x40
    2f34:	e787      	b.n	2e46 <lfs_file_flush+0x1a>
    2f36:	46c0      	nop			; (mov r8, r8)
    2f38:	fffbffff 	.word	0xfffbffff
    2f3c:	00000000 	.word	0x00000000
    2f40:	000000a8 	.word	0x000000a8
    2f44:	00000074 	.word	0x00000074
    2f48:	00000ae6 	.word	0x00000ae6
    2f4c:	fffdffff 	.word	0xfffdffff

00002f50 <lfs_file_rawread>:
    2f50:	b5f0      	push	{r4, r5, r6, r7, lr}
    2f52:	46de      	mov	lr, fp
    2f54:	4657      	mov	r7, sl
    2f56:	464e      	mov	r6, r9
    2f58:	4645      	mov	r5, r8
    2f5a:	b5e0      	push	{r5, r6, r7, lr}
    2f5c:	001c      	movs	r4, r3
    2f5e:	6b0b      	ldr	r3, [r1, #48]	; 0x30
    2f60:	b08d      	sub	sp, #52	; 0x34
    2f62:	4683      	mov	fp, r0
    2f64:	000f      	movs	r7, r1
    2f66:	9204      	str	r2, [sp, #16]
    2f68:	039b      	lsls	r3, r3, #14
    2f6a:	d500      	bpl.n	2f6e <lfs_file_rawread+0x1e>
    2f6c:	e0dd      	b.n	312a <lfs_file_rawread+0x1da>
    2f6e:	6b7a      	ldr	r2, [r7, #52]	; 0x34
    2f70:	6afb      	ldr	r3, [r7, #44]	; 0x2c
    2f72:	429a      	cmp	r2, r3
    2f74:	d300      	bcc.n	2f78 <lfs_file_rawread+0x28>
    2f76:	e0e2      	b.n	313e <lfs_file_rawread+0x1ee>
    2f78:	1a9b      	subs	r3, r3, r2
    2f7a:	930b      	str	r3, [sp, #44]	; 0x2c
    2f7c:	42a3      	cmp	r3, r4
    2f7e:	d900      	bls.n	2f82 <lfs_file_rawread+0x32>
    2f80:	e0d1      	b.n	3126 <lfs_file_rawread+0x1d6>
    2f82:	990b      	ldr	r1, [sp, #44]	; 0x2c
    2f84:	2900      	cmp	r1, #0
    2f86:	d100      	bne.n	2f8a <lfs_file_rawread+0x3a>
    2f88:	e08c      	b.n	30a4 <lfs_file_rawread+0x154>
    2f8a:	46d8      	mov	r8, fp
    2f8c:	468b      	mov	fp, r1
    2f8e:	2180      	movs	r1, #128	; 0x80
    2f90:	6b3b      	ldr	r3, [r7, #48]	; 0x30
    2f92:	02c9      	lsls	r1, r1, #11
    2f94:	420b      	tst	r3, r1
    2f96:	d100      	bne.n	2f9a <lfs_file_rawread+0x4a>
    2f98:	e086      	b.n	30a8 <lfs_file_rawread+0x158>
    2f9a:	4641      	mov	r1, r8
    2f9c:	6e89      	ldr	r1, [r1, #104]	; 0x68
    2f9e:	6bfd      	ldr	r5, [r7, #60]	; 0x3c
    2fa0:	69c8      	ldr	r0, [r1, #28]
    2fa2:	4681      	mov	r9, r0
    2fa4:	4285      	cmp	r5, r0
    2fa6:	d100      	bne.n	2faa <lfs_file_rawread+0x5a>
    2fa8:	e07e      	b.n	30a8 <lfs_file_rawread+0x158>
    2faa:	464a      	mov	r2, r9
    2fac:	1b56      	subs	r6, r2, r5
    2fae:	455e      	cmp	r6, fp
    2fb0:	d900      	bls.n	2fb4 <lfs_file_rawread+0x64>
    2fb2:	465e      	mov	r6, fp
    2fb4:	02db      	lsls	r3, r3, #11
    2fb6:	d54f      	bpl.n	3058 <lfs_file_rawread+0x108>
    2fb8:	2308      	movs	r3, #8
    2fba:	469c      	mov	ip, r3
    2fbc:	44bc      	add	ip, r7
    2fbe:	4663      	mov	r3, ip
    2fc0:	9307      	str	r3, [sp, #28]
    2fc2:	88bb      	ldrh	r3, [r7, #4]
    2fc4:	4a60      	ldr	r2, [pc, #384]	; (3148 <lfs_file_rawread+0x1f8>)
    2fc6:	029b      	lsls	r3, r3, #10
    2fc8:	431a      	orrs	r2, r3
    2fca:	1973      	adds	r3, r6, r5
    2fcc:	9208      	str	r2, [sp, #32]
    2fce:	454b      	cmp	r3, r9
    2fd0:	d900      	bls.n	2fd4 <lfs_file_rawread+0x84>
    2fd2:	e0b6      	b.n	3142 <lfs_file_rawread+0x1f2>
    2fd4:	2e00      	cmp	r6, #0
    2fd6:	d057      	beq.n	3088 <lfs_file_rawread+0x138>
    2fd8:	9b04      	ldr	r3, [sp, #16]
    2fda:	9609      	str	r6, [sp, #36]	; 0x24
    2fdc:	930a      	str	r3, [sp, #40]	; 0x28
    2fde:	464b      	mov	r3, r9
    2fe0:	46b1      	mov	r9, r6
    2fe2:	001e      	movs	r6, r3
    2fe4:	6cfb      	ldr	r3, [r7, #76]	; 0x4c
    2fe6:	9305      	str	r3, [sp, #20]
    2fe8:	6c3b      	ldr	r3, [r7, #64]	; 0x40
    2fea:	3302      	adds	r3, #2
    2fec:	d106      	bne.n	2ffc <lfs_file_rawread+0xac>
    2fee:	6c79      	ldr	r1, [r7, #68]	; 0x44
    2ff0:	6cbb      	ldr	r3, [r7, #72]	; 0x48
    2ff2:	18cc      	adds	r4, r1, r3
    2ff4:	42a5      	cmp	r5, r4
    2ff6:	d201      	bcs.n	2ffc <lfs_file_rawread+0xac>
    2ff8:	428d      	cmp	r5, r1
    2ffa:	d265      	bcs.n	30c8 <lfs_file_rawread+0x178>
    2ffc:	2302      	movs	r3, #2
    2ffe:	425b      	negs	r3, r3
    3000:	643b      	str	r3, [r7, #64]	; 0x40
    3002:	4643      	mov	r3, r8
    3004:	6e9b      	ldr	r3, [r3, #104]	; 0x68
    3006:	0028      	movs	r0, r5
    3008:	6959      	ldr	r1, [r3, #20]
    300a:	469a      	mov	sl, r3
    300c:	000c      	movs	r4, r1
    300e:	f7ff fffe 	bl	0 <__aeabi_uidivmod>
    3012:	1a6b      	subs	r3, r5, r1
    3014:	0021      	movs	r1, r4
    3016:	3c01      	subs	r4, #1
    3018:	19a4      	adds	r4, r4, r6
    301a:	1964      	adds	r4, r4, r5
    301c:	647b      	str	r3, [r7, #68]	; 0x44
    301e:	0020      	movs	r0, r4
    3020:	9306      	str	r3, [sp, #24]
    3022:	f7ff fffe 	bl	0 <__aeabi_uidivmod>
    3026:	4653      	mov	r3, sl
    3028:	6a9b      	ldr	r3, [r3, #40]	; 0x28
    302a:	1a64      	subs	r4, r4, r1
    302c:	429c      	cmp	r4, r3
    302e:	d900      	bls.n	3032 <lfs_file_rawread+0xe2>
    3030:	001c      	movs	r4, r3
    3032:	9b05      	ldr	r3, [sp, #20]
    3034:	64bc      	str	r4, [r7, #72]	; 0x48
    3036:	9300      	str	r3, [sp, #0]
    3038:	9401      	str	r4, [sp, #4]
    303a:	9b06      	ldr	r3, [sp, #24]
    303c:	9a08      	ldr	r2, [sp, #32]
    303e:	9907      	ldr	r1, [sp, #28]
    3040:	4640      	mov	r0, r8
    3042:	f7fe fb2d 	bl	16a0 <lfs_dir_getslice.constprop.38>
    3046:	2800      	cmp	r0, #0
    3048:	dacc      	bge.n	2fe4 <lfs_file_rawread+0x94>
    304a:	b00d      	add	sp, #52	; 0x34
    304c:	bc3c      	pop	{r2, r3, r4, r5}
    304e:	4690      	mov	r8, r2
    3050:	4699      	mov	r9, r3
    3052:	46a2      	mov	sl, r4
    3054:	46ab      	mov	fp, r5
    3056:	bdf0      	pop	{r4, r5, r6, r7, pc}
    3058:	003a      	movs	r2, r7
    305a:	4640      	mov	r0, r8
    305c:	6bbb      	ldr	r3, [r7, #56]	; 0x38
    305e:	6a09      	ldr	r1, [r1, #32]
    3060:	3240      	adds	r2, #64	; 0x40
    3062:	3068      	adds	r0, #104	; 0x68
    3064:	428b      	cmp	r3, r1
    3066:	d26c      	bcs.n	3142 <lfs_file_rawread+0x1f2>
    3068:	1971      	adds	r1, r6, r5
    306a:	4589      	cmp	r9, r1
    306c:	d369      	bcc.n	3142 <lfs_file_rawread+0x1f2>
    306e:	9904      	ldr	r1, [sp, #16]
    3070:	9300      	str	r3, [sp, #0]
    3072:	9102      	str	r1, [sp, #8]
    3074:	9603      	str	r6, [sp, #12]
    3076:	9501      	str	r5, [sp, #4]
    3078:	464b      	mov	r3, r9
    307a:	2100      	movs	r1, #0
    307c:	f7fd f890 	bl	1a0 <lfs_bd_read.isra.21.part.22>
    3080:	2800      	cmp	r0, #0
    3082:	d1e2      	bne.n	304a <lfs_file_rawread+0xfa>
    3084:	6bfb      	ldr	r3, [r7, #60]	; 0x3c
    3086:	18f3      	adds	r3, r6, r3
    3088:	63fb      	str	r3, [r7, #60]	; 0x3c
    308a:	9b04      	ldr	r3, [sp, #16]
    308c:	6b7a      	ldr	r2, [r7, #52]	; 0x34
    308e:	469c      	mov	ip, r3
    3090:	44b4      	add	ip, r6
    3092:	4663      	mov	r3, ip
    3094:	9304      	str	r3, [sp, #16]
    3096:	465b      	mov	r3, fp
    3098:	18b2      	adds	r2, r6, r2
    309a:	1b9b      	subs	r3, r3, r6
    309c:	637a      	str	r2, [r7, #52]	; 0x34
    309e:	469b      	mov	fp, r3
    30a0:	d000      	beq.n	30a4 <lfs_file_rawread+0x154>
    30a2:	e774      	b.n	2f8e <lfs_file_rawread+0x3e>
    30a4:	980b      	ldr	r0, [sp, #44]	; 0x2c
    30a6:	e7d0      	b.n	304a <lfs_file_rawread+0xfa>
    30a8:	02d9      	lsls	r1, r3, #11
    30aa:	d52a      	bpl.n	3102 <lfs_file_rawread+0x1b2>
    30ac:	2102      	movs	r1, #2
    30ae:	0015      	movs	r5, r2
    30b0:	4249      	negs	r1, r1
    30b2:	63b9      	str	r1, [r7, #56]	; 0x38
    30b4:	63fa      	str	r2, [r7, #60]	; 0x3c
    30b6:	2280      	movs	r2, #128	; 0x80
    30b8:	02d2      	lsls	r2, r2, #11
    30ba:	4313      	orrs	r3, r2
    30bc:	4642      	mov	r2, r8
    30be:	6e91      	ldr	r1, [r2, #104]	; 0x68
    30c0:	633b      	str	r3, [r7, #48]	; 0x30
    30c2:	69ca      	ldr	r2, [r1, #28]
    30c4:	4691      	mov	r9, r2
    30c6:	e770      	b.n	2faa <lfs_file_rawread+0x5a>
    30c8:	9b09      	ldr	r3, [sp, #36]	; 0x24
    30ca:	1b64      	subs	r4, r4, r5
    30cc:	429c      	cmp	r4, r3
    30ce:	d900      	bls.n	30d2 <lfs_file_rawread+0x182>
    30d0:	001c      	movs	r4, r3
    30d2:	9b05      	ldr	r3, [sp, #20]
    30d4:	1a69      	subs	r1, r5, r1
    30d6:	469c      	mov	ip, r3
    30d8:	9b0a      	ldr	r3, [sp, #40]	; 0x28
    30da:	4461      	add	r1, ip
    30dc:	469a      	mov	sl, r3
    30de:	0018      	movs	r0, r3
    30e0:	0022      	movs	r2, r4
    30e2:	f7ff fffe 	bl	0 <memcpy>
    30e6:	46d4      	mov	ip, sl
    30e8:	44a4      	add	ip, r4
    30ea:	4663      	mov	r3, ip
    30ec:	930a      	str	r3, [sp, #40]	; 0x28
    30ee:	9b09      	ldr	r3, [sp, #36]	; 0x24
    30f0:	192d      	adds	r5, r5, r4
    30f2:	1b1b      	subs	r3, r3, r4
    30f4:	9309      	str	r3, [sp, #36]	; 0x24
    30f6:	d000      	beq.n	30fa <lfs_file_rawread+0x1aa>
    30f8:	e774      	b.n	2fe4 <lfs_file_rawread+0x94>
    30fa:	464e      	mov	r6, r9
    30fc:	6bfb      	ldr	r3, [r7, #60]	; 0x3c
    30fe:	18f3      	adds	r3, r6, r3
    3100:	e7c2      	b.n	3088 <lfs_file_rawread+0x138>
    3102:	003b      	movs	r3, r7
    3104:	0039      	movs	r1, r7
    3106:	333c      	adds	r3, #60	; 0x3c
    3108:	9302      	str	r3, [sp, #8]
    310a:	3b04      	subs	r3, #4
    310c:	9301      	str	r3, [sp, #4]
    310e:	9200      	str	r2, [sp, #0]
    3110:	6afb      	ldr	r3, [r7, #44]	; 0x2c
    3112:	6aba      	ldr	r2, [r7, #40]	; 0x28
    3114:	3140      	adds	r1, #64	; 0x40
    3116:	4640      	mov	r0, r8
    3118:	f7fd fa82 	bl	620 <lfs_ctz_find.constprop.30>
    311c:	2800      	cmp	r0, #0
    311e:	d194      	bne.n	304a <lfs_file_rawread+0xfa>
    3120:	6b3b      	ldr	r3, [r7, #48]	; 0x30
    3122:	6bfd      	ldr	r5, [r7, #60]	; 0x3c
    3124:	e7c7      	b.n	30b6 <lfs_file_rawread+0x166>
    3126:	940b      	str	r4, [sp, #44]	; 0x2c
    3128:	e72b      	b.n	2f82 <lfs_file_rawread+0x32>
    312a:	f7ff fe7f 	bl	2e2c <lfs_file_flush>
    312e:	2800      	cmp	r0, #0
    3130:	d000      	beq.n	3134 <lfs_file_rawread+0x1e4>
    3132:	e78a      	b.n	304a <lfs_file_rawread+0xfa>
    3134:	6b7a      	ldr	r2, [r7, #52]	; 0x34
    3136:	6afb      	ldr	r3, [r7, #44]	; 0x2c
    3138:	429a      	cmp	r2, r3
    313a:	d200      	bcs.n	313e <lfs_file_rawread+0x1ee>
    313c:	e71c      	b.n	2f78 <lfs_file_rawread+0x28>
    313e:	2000      	movs	r0, #0
    3140:	e783      	b.n	304a <lfs_file_rawread+0xfa>
    3142:	2054      	movs	r0, #84	; 0x54
    3144:	4240      	negs	r0, r0
    3146:	e780      	b.n	304a <lfs_file_rawread+0xfa>
    3148:	20100000 	.word	0x20100000

0000314c <lfs_dir_traverse.constprop.33>:
    314c:	b5f0      	push	{r4, r5, r6, r7, lr}
    314e:	46de      	mov	lr, fp
    3150:	4657      	mov	r7, sl
    3152:	464e      	mov	r6, r9
    3154:	4645      	mov	r5, r8
    3156:	b5e0      	push	{r5, r6, r7, lr}
    3158:	b0c7      	sub	sp, #284	; 0x11c
    315a:	9311      	str	r3, [sp, #68]	; 0x44
    315c:	ab52      	add	r3, sp, #328	; 0x148
    315e:	881b      	ldrh	r3, [r3, #0]
    3160:	9212      	str	r2, [sp, #72]	; 0x48
    3162:	9326      	str	r3, [sp, #152]	; 0x98
    3164:	ab53      	add	r3, sp, #332	; 0x14c
    3166:	881b      	ldrh	r3, [r3, #0]
    3168:	4683      	mov	fp, r0
    316a:	932b      	str	r3, [sp, #172]	; 0xac
    316c:	ab54      	add	r3, sp, #336	; 0x150
    316e:	2200      	movs	r2, #0
    3170:	5e9a      	ldrsh	r2, [r3, r2]
    3172:	9b50      	ldr	r3, [sp, #320]	; 0x140
    3174:	922d      	str	r2, [sp, #180]	; 0xb4
    3176:	0a9b      	lsrs	r3, r3, #10
    3178:	b29b      	uxth	r3, r3
    317a:	9319      	str	r3, [sp, #100]	; 0x64
    317c:	0293      	lsls	r3, r2, #10
