In archive build/crc16/libcrc16.a:

crc16.c.obj:     file format elf32-littlearm


Disassembly of section .text:

00000000 <crc16_ccitt>:
   0:	b530      	push	{r4, r5, lr}
   2:	2900      	cmp	r1, #0
   4:	dd0f      	ble.n	26 <crc16_ccitt+0x26>
   6:	0002      	movs	r2, r0
   8:	1841      	adds	r1, r0, r1
   a:	2000      	movs	r0, #0
   c:	4d07      	ldr	r5, [pc, #28]	; (2c <crc16_ccitt+0x2c>)
   e:	7814      	ldrb	r4, [r2, #0]
  10:	0a03      	lsrs	r3, r0, #8
  12:	4063      	eors	r3, r4
  14:	005b      	lsls	r3, r3, #1
  16:	5aeb      	ldrh	r3, [r5, r3]
  18:	0200      	lsls	r0, r0, #8
  1a:	4058      	eors	r0, r3
  1c:	3201      	adds	r2, #1
  1e:	b280      	uxth	r0, r0
  20:	4291      	cmp	r1, r2
  22:	d1f4      	bne.n	e <crc16_ccitt+0xe>
  24:	bd30      	pop	{r4, r5, pc}
  26:	2000      	movs	r0, #0
  28:	e7fc      	b.n	24 <crc16_ccitt+0x24>
  2a:	46c0      	nop			; (mov r8, r8)
  2c:	00000000 	.word	0x00000000

head-tail.c.obj:     file format elf32-littlearm


Disassembly of section .text:

00000000 <bump_head>:
   0:	4288      	cmp	r0, r1
   2:	d001      	beq.n	8 <bump_head+0x8>
   4:	3001      	adds	r0, #1
   6:	4770      	bx	lr
   8:	0010      	movs	r0, r2
   a:	e7fc      	b.n	6 <bump_head+0x6>

0000000c <bump_tail>:
   c:	4288      	cmp	r0, r1
   e:	d001      	beq.n	14 <bump_tail+0x8>
  10:	3001      	adds	r0, #1
  12:	4770      	bx	lr
  14:	0010      	movs	r0, r2
  16:	e7fc      	b.n	12 <bump_tail+0x6>

00000018 <dec_head>:
  18:	1a82      	subs	r2, r0, r2
  1a:	1e53      	subs	r3, r2, #1
  1c:	419a      	sbcs	r2, r3
  1e:	1a80      	subs	r0, r0, r2
  20:	4770      	bx	lr
  22:	46c0      	nop			; (mov r8, r8)

00000024 <dec_tail>:
  24:	b510      	push	{r4, lr}
  26:	0004      	movs	r4, r0
  28:	4290      	cmp	r0, r2
  2a:	d004      	beq.n	36 <dec_tail+0x12>
  2c:	4804      	ldr	r0, [pc, #16]	; (40 <dec_tail+0x1c>)
  2e:	f7ff fffe 	bl	0 <puts>
  32:	1e60      	subs	r0, r4, #1
  34:	bd10      	pop	{r4, pc}
  36:	4803      	ldr	r0, [pc, #12]	; (44 <dec_tail+0x20>)
  38:	f7ff fffe 	bl	0 <puts>
  3c:	0020      	movs	r0, r4
  3e:	e7f9      	b.n	34 <dec_tail+0x10>
  40:	00000014 	.word	0x00000014
  44:	00000000 	.word	0x00000000

cvtutils.c.obj:     file format elf32-littlearm


Disassembly of section .text:

00000000 <asciiValueToBinary>:
   0:	b510      	push	{r4, lr}
   2:	1e02      	subs	r2, r0, #0
   4:	dd0d      	ble.n	22 <asciiValueToBinary+0x22>
   6:	2301      	movs	r3, #1
   8:	2000      	movs	r0, #0
   a:	2401      	movs	r4, #1
   c:	0021      	movs	r1, r4
   e:	4011      	ands	r1, r2
  10:	4359      	muls	r1, r3
  12:	1840      	adds	r0, r0, r1
  14:	0099      	lsls	r1, r3, #2
  16:	18cb      	adds	r3, r1, r3
  18:	1052      	asrs	r2, r2, #1
  1a:	005b      	lsls	r3, r3, #1
  1c:	2a00      	cmp	r2, #0
  1e:	d1f5      	bne.n	c <asciiValueToBinary+0xc>
  20:	bd10      	pop	{r4, pc}
  22:	2000      	movs	r0, #0
  24:	e7fc      	b.n	20 <asciiValueToBinary+0x20>
  26:	46c0      	nop			; (mov r8, r8)

lfs_util.c.obj:     file format elf32-littlearm


Disassembly of section .text:

00000000 <lfs_crc>:
   0:	b570      	push	{r4, r5, r6, lr}
   2:	2a00      	cmp	r2, #0
   4:	d013      	beq.n	2e <lfs_crc+0x2e>
   6:	240f      	movs	r4, #15
   8:	4d09      	ldr	r5, [pc, #36]	; (30 <lfs_crc+0x30>)
   a:	188a      	adds	r2, r1, r2
   c:	780b      	ldrb	r3, [r1, #0]
   e:	0906      	lsrs	r6, r0, #4
  10:	4058      	eors	r0, r3
  12:	4020      	ands	r0, r4
  14:	0080      	lsls	r0, r0, #2
  16:	5828      	ldr	r0, [r5, r0]
  18:	091b      	lsrs	r3, r3, #4
  1a:	4046      	eors	r6, r0
  1c:	4073      	eors	r3, r6
  1e:	4023      	ands	r3, r4
  20:	009b      	lsls	r3, r3, #2
  22:	58eb      	ldr	r3, [r5, r3]
  24:	0930      	lsrs	r0, r6, #4
  26:	3101      	adds	r1, #1
  28:	4058      	eors	r0, r3
  2a:	428a      	cmp	r2, r1
  2c:	d1ee      	bne.n	c <lfs_crc+0xc>
  2e:	bd70      	pop	{r4, r5, r6, pc}
  30:	00000000 	.word	0x00000000

lfs.c.obj:     file format elf32-littlearm


Disassembly of section .text:

00000000 <lfs_dir_traverse_filter>:
       0:	22ff      	movs	r2, #255	; 0xff
       2:	00cb      	lsls	r3, r1, #3
       4:	0512      	lsls	r2, r2, #20
       6:	17db      	asrs	r3, r3, #31
       8:	4013      	ands	r3, r2
       a:	4a16      	ldr	r2, [pc, #88]	; (64 <lfs_dir_traverse_filter+0x64>)
       c:	b570      	push	{r4, r5, r6, lr}
       e:	4694      	mov	ip, r2
      10:	6802      	ldr	r2, [r0, #0]
      12:	4463      	add	r3, ip
      14:	0014      	movs	r4, r2
      16:	404c      	eors	r4, r1
      18:	4223      	tst	r3, r4
      1a:	d01f      	beq.n	5c <lfs_dir_traverse_filter+0x5c>
      1c:	0593      	lsls	r3, r2, #22
      1e:	159b      	asrs	r3, r3, #22
      20:	3301      	adds	r3, #1
      22:	d01b      	beq.n	5c <lfs_dir_traverse_filter+0x5c>
      24:	4d10      	ldr	r5, [pc, #64]	; (68 <lfs_dir_traverse_filter+0x68>)
      26:	4c11      	ldr	r4, [pc, #68]	; (6c <lfs_dir_traverse_filter+0x6c>)
      28:	4b11      	ldr	r3, [pc, #68]	; (70 <lfs_dir_traverse_filter+0x70>)
      2a:	4015      	ands	r5, r2
      2c:	400c      	ands	r4, r1
      2e:	432b      	orrs	r3, r5
      30:	429c      	cmp	r4, r3
      32:	d013      	beq.n	5c <lfs_dir_traverse_filter+0x5c>
      34:	24e0      	movs	r4, #224	; 0xe0
      36:	2680      	movs	r6, #128	; 0x80
      38:	0d0d      	lsrs	r5, r1, #20
      3a:	00e4      	lsls	r4, r4, #3
      3c:	00f6      	lsls	r6, r6, #3
      3e:	402c      	ands	r4, r5
      40:	2300      	movs	r3, #0
      42:	42b4      	cmp	r4, r6
      44:	d10b      	bne.n	5e <lfs_dir_traverse_filter+0x5e>
      46:	0314      	lsls	r4, r2, #12
      48:	0309      	lsls	r1, r1, #12
      4a:	0da4      	lsrs	r4, r4, #22
      4c:	0d89      	lsrs	r1, r1, #22
      4e:	428c      	cmp	r4, r1
      50:	d305      	bcc.n	5e <lfs_dir_traverse_filter+0x5e>
      52:	b26d      	sxtb	r5, r5
      54:	02ad      	lsls	r5, r5, #10
      56:	18aa      	adds	r2, r5, r2
      58:	6002      	str	r2, [r0, #0]
      5a:	e000      	b.n	5e <lfs_dir_traverse_filter+0x5e>
      5c:	2301      	movs	r3, #1
      5e:	0018      	movs	r0, r3
      60:	bd70      	pop	{r4, r5, r6, pc}
      62:	46c0      	nop			; (mov r8, r8)
      64:	700ffc00 	.word	0x700ffc00
      68:	000ffc00 	.word	0x000ffc00
      6c:	7ffffc00 	.word	0x7ffffc00
      70:	4ff00000 	.word	0x4ff00000

00000074 <lfs_dir_commit_size>:
      74:	058b      	lsls	r3, r1, #22
      76:	159b      	asrs	r3, r3, #22
      78:	3301      	adds	r3, #1
      7a:	425a      	negs	r2, r3
      7c:	4153      	adcs	r3, r2
      7e:	6802      	ldr	r2, [r0, #0]
      80:	185b      	adds	r3, r3, r1
      82:	059b      	lsls	r3, r3, #22
      84:	1d11      	adds	r1, r2, #4
      86:	0d9b      	lsrs	r3, r3, #22
      88:	185b      	adds	r3, r3, r1
      8a:	6003      	str	r3, [r0, #0]
      8c:	2000      	movs	r0, #0
      8e:	4770      	bx	lr

00000090 <lfs_fs_size_count>:
      90:	6803      	ldr	r3, [r0, #0]
      92:	3301      	adds	r3, #1
      94:	6003      	str	r3, [r0, #0]
      96:	2000      	movs	r0, #0
      98:	4770      	bx	lr
      9a:	46c0      	nop			; (mov r8, r8)

0000009c <lfs_init>:
      9c:	b5f8      	push	{r3, r4, r5, r6, r7, lr}
      9e:	0004      	movs	r4, r0
      a0:	6b0e      	ldr	r6, [r1, #48]	; 0x30
      a2:	000d      	movs	r5, r1
      a4:	66a1      	str	r1, [r4, #104]	; 0x68
      a6:	6a8f      	ldr	r7, [r1, #40]	; 0x28
      a8:	2e00      	cmp	r6, #0
      aa:	d043      	beq.n	134 <lfs_init+0x98>
      ac:	60c6      	str	r6, [r0, #12]
      ae:	6b6b      	ldr	r3, [r5, #52]	; 0x34
      b0:	2b00      	cmp	r3, #0
      b2:	d04d      	beq.n	150 <lfs_init+0xb4>
      b4:	61e3      	str	r3, [r4, #28]
      b6:	2501      	movs	r5, #1
      b8:	003a      	movs	r2, r7
      ba:	21ff      	movs	r1, #255	; 0xff
      bc:	68e0      	ldr	r0, [r4, #12]
      be:	f7ff fffe 	bl	0 <memset>
      c2:	426d      	negs	r5, r5
      c4:	6ea3      	ldr	r3, [r4, #104]	; 0x68
      c6:	6025      	str	r5, [r4, #0]
      c8:	6a9a      	ldr	r2, [r3, #40]	; 0x28
      ca:	21ff      	movs	r1, #255	; 0xff
      cc:	69e0      	ldr	r0, [r4, #28]
      ce:	f7ff fffe 	bl	0 <memset>
      d2:	6125      	str	r5, [r4, #16]
      d4:	6ea5      	ldr	r5, [r4, #104]	; 0x68
      d6:	6bab      	ldr	r3, [r5, #56]	; 0x38
      d8:	2b00      	cmp	r3, #0
      da:	d04b      	beq.n	174 <lfs_init+0xd8>
      dc:	6663      	str	r3, [r4, #100]	; 0x64
      de:	6beb      	ldr	r3, [r5, #60]	; 0x3c
      e0:	2b00      	cmp	r3, #0
      e2:	d100      	bne.n	e6 <lfs_init+0x4a>
      e4:	23ff      	movs	r3, #255	; 0xff
      e6:	66e3      	str	r3, [r4, #108]	; 0x6c
      e8:	6c2b      	ldr	r3, [r5, #64]	; 0x40
      ea:	2b00      	cmp	r3, #0
      ec:	d100      	bne.n	f0 <lfs_init+0x54>
      ee:	4b2a      	ldr	r3, [pc, #168]	; (198 <lfs_init+0xfc>)
      f0:	6723      	str	r3, [r4, #112]	; 0x70
      f2:	6c6b      	ldr	r3, [r5, #68]	; 0x44
      f4:	2b00      	cmp	r3, #0
      f6:	d01b      	beq.n	130 <lfs_init+0x94>
      f8:	6763      	str	r3, [r4, #116]	; 0x74
      fa:	2301      	movs	r3, #1
      fc:	425b      	negs	r3, r3
      fe:	6223      	str	r3, [r4, #32]
     100:	6263      	str	r3, [r4, #36]	; 0x24
     102:	0020      	movs	r0, r4
     104:	2300      	movs	r3, #0
     106:	220c      	movs	r2, #12
     108:	62a3      	str	r3, [r4, #40]	; 0x28
     10a:	62e3      	str	r3, [r4, #44]	; 0x2c
     10c:	2100      	movs	r1, #0
     10e:	303c      	adds	r0, #60	; 0x3c
     110:	f7ff fffe 	bl	0 <memset>
     114:	0020      	movs	r0, r4
     116:	220c      	movs	r2, #12
     118:	2100      	movs	r1, #0
     11a:	3030      	adds	r0, #48	; 0x30
     11c:	f7ff fffe 	bl	0 <memset>
     120:	0020      	movs	r0, r4
     122:	220c      	movs	r2, #12
     124:	3048      	adds	r0, #72	; 0x48
     126:	2100      	movs	r1, #0
     128:	f7ff fffe 	bl	0 <memset>
     12c:	2000      	movs	r0, #0
     12e:	bdf8      	pop	{r3, r4, r5, r6, r7, pc}
     130:	4b1a      	ldr	r3, [pc, #104]	; (19c <lfs_init+0x100>)
     132:	e7e1      	b.n	f8 <lfs_init+0x5c>
     134:	0038      	movs	r0, r7
     136:	f7ff fffe 	bl	0 <malloc>
     13a:	60e0      	str	r0, [r4, #12]
     13c:	2800      	cmp	r0, #0
     13e:	d1b6      	bne.n	ae <lfs_init+0x12>
     140:	68e0      	ldr	r0, [r4, #12]
     142:	f7ff fffe 	bl	0 <free>
     146:	6ea3      	ldr	r3, [r4, #104]	; 0x68
     148:	6b5a      	ldr	r2, [r3, #52]	; 0x34
     14a:	2a00      	cmp	r2, #0
     14c:	d10c      	bne.n	168 <lfs_init+0xcc>
     14e:	e007      	b.n	160 <lfs_init+0xc4>
     150:	0038      	movs	r0, r7
     152:	f7ff fffe 	bl	0 <malloc>
     156:	61e0      	str	r0, [r4, #28]
     158:	2800      	cmp	r0, #0
     15a:	d1ac      	bne.n	b6 <lfs_init+0x1a>
     15c:	2e00      	cmp	r6, #0
     15e:	d0ef      	beq.n	140 <lfs_init+0xa4>
     160:	69e0      	ldr	r0, [r4, #28]
     162:	f7ff fffe 	bl	0 <free>
     166:	6ea3      	ldr	r3, [r4, #104]	; 0x68
     168:	200c      	movs	r0, #12
     16a:	6b9b      	ldr	r3, [r3, #56]	; 0x38
     16c:	4240      	negs	r0, r0
     16e:	2b00      	cmp	r3, #0
     170:	d1dd      	bne.n	12e <lfs_init+0x92>
     172:	e00b      	b.n	18c <lfs_init+0xf0>
     174:	6ae8      	ldr	r0, [r5, #44]	; 0x2c
     176:	f7ff fffe 	bl	0 <malloc>
     17a:	6660      	str	r0, [r4, #100]	; 0x64
     17c:	2800      	cmp	r0, #0
     17e:	d1ae      	bne.n	de <lfs_init+0x42>
     180:	6b2b      	ldr	r3, [r5, #48]	; 0x30
     182:	2b00      	cmp	r3, #0
     184:	d0dc      	beq.n	140 <lfs_init+0xa4>
     186:	6b6b      	ldr	r3, [r5, #52]	; 0x34
     188:	2b00      	cmp	r3, #0
     18a:	d0e9      	beq.n	160 <lfs_init+0xc4>
     18c:	6e60      	ldr	r0, [r4, #100]	; 0x64
     18e:	f7ff fffe 	bl	0 <free>
     192:	200c      	movs	r0, #12
     194:	4240      	negs	r0, r0
     196:	e7ca      	b.n	12e <lfs_init+0x92>
     198:	7fffffff 	.word	0x7fffffff
     19c:	000003fe 	.word	0x000003fe

000001a0 <lfs_bd_read.isra.21.part.22>:
     1a0:	b5f0      	push	{r4, r5, r6, r7, lr}
     1a2:	4657      	mov	r7, sl
     1a4:	464e      	mov	r6, r9
     1a6:	46de      	mov	lr, fp
     1a8:	4645      	mov	r5, r8
     1aa:	b5e0      	push	{r5, r6, r7, lr}
     1ac:	b087      	sub	sp, #28
     1ae:	9304      	str	r3, [sp, #16]
     1b0:	3b01      	subs	r3, #1
     1b2:	0016      	movs	r6, r2
     1b4:	9305      	str	r3, [sp, #20]
     1b6:	9a11      	ldr	r2, [sp, #68]	; 0x44
     1b8:	9b13      	ldr	r3, [sp, #76]	; 0x4c
     1ba:	4681      	mov	r9, r0
     1bc:	468a      	mov	sl, r1
     1be:	0017      	movs	r7, r2
     1c0:	2b00      	cmp	r3, #0
     1c2:	d100      	bne.n	1c6 <lfs_bd_read.isra.21.part.22+0x26>
     1c4:	e084      	b.n	2d0 <lfs_bd_read.isra.21.part.22+0x130>
     1c6:	4653      	mov	r3, sl
     1c8:	9c13      	ldr	r4, [sp, #76]	; 0x4c
     1ca:	2b00      	cmp	r3, #0
     1cc:	d003      	beq.n	1d6 <lfs_bd_read.isra.21.part.22+0x36>
     1ce:	681b      	ldr	r3, [r3, #0]
     1d0:	9a10      	ldr	r2, [sp, #64]	; 0x40
     1d2:	4293      	cmp	r3, r2
     1d4:	d05e      	beq.n	294 <lfs_bd_read.isra.21.part.22+0xf4>
     1d6:	9b10      	ldr	r3, [sp, #64]	; 0x40
     1d8:	6832      	ldr	r2, [r6, #0]
     1da:	4293      	cmp	r3, r2
     1dc:	d04e      	beq.n	27c <lfs_bd_read.isra.21.part.22+0xdc>
     1de:	464b      	mov	r3, r9
     1e0:	681d      	ldr	r5, [r3, #0]
     1e2:	0038      	movs	r0, r7
     1e4:	696b      	ldr	r3, [r5, #20]
     1e6:	0019      	movs	r1, r3
     1e8:	469b      	mov	fp, r3
     1ea:	f7ff fffe 	bl	0 <__aeabi_uidivmod>
     1ee:	686b      	ldr	r3, [r5, #4]
     1f0:	4688      	mov	r8, r1
     1f2:	9a04      	ldr	r2, [sp, #16]
     1f4:	9913      	ldr	r1, [sp, #76]	; 0x4c
     1f6:	9302      	str	r3, [sp, #8]
     1f8:	428a      	cmp	r2, r1
     1fa:	d81b      	bhi.n	234 <lfs_bd_read.isra.21.part.22+0x94>
     1fc:	4642      	mov	r2, r8
     1fe:	2a00      	cmp	r2, #0
     200:	d118      	bne.n	234 <lfs_bd_read.isra.21.part.22+0x94>
     202:	4559      	cmp	r1, fp
     204:	d316      	bcc.n	234 <lfs_bd_read.isra.21.part.22+0x94>
     206:	4659      	mov	r1, fp
     208:	0020      	movs	r0, r4
     20a:	f7ff fffe 	bl	0 <__aeabi_uidivmod>
     20e:	1a62      	subs	r2, r4, r1
     210:	4688      	mov	r8, r1
     212:	4693      	mov	fp, r2
     214:	9200      	str	r2, [sp, #0]
     216:	0028      	movs	r0, r5
     218:	9b12      	ldr	r3, [sp, #72]	; 0x48
     21a:	003a      	movs	r2, r7
     21c:	9910      	ldr	r1, [sp, #64]	; 0x40
     21e:	9d02      	ldr	r5, [sp, #8]
     220:	47a8      	blx	r5
     222:	2800      	cmp	r0, #0
     224:	d046      	beq.n	2b4 <lfs_bd_read.isra.21.part.22+0x114>
     226:	b007      	add	sp, #28
     228:	bc3c      	pop	{r2, r3, r4, r5}
     22a:	4690      	mov	r8, r2
     22c:	4699      	mov	r9, r3
     22e:	46a2      	mov	sl, r4
     230:	46ab      	mov	fp, r5
     232:	bdf0      	pop	{r4, r5, r6, r7, pc}
     234:	9b10      	ldr	r3, [sp, #64]	; 0x40
     236:	4659      	mov	r1, fp
     238:	6033      	str	r3, [r6, #0]
     23a:	4643      	mov	r3, r8
     23c:	1afb      	subs	r3, r7, r3
     23e:	9303      	str	r3, [sp, #12]
     240:	6073      	str	r3, [r6, #4]
     242:	9b05      	ldr	r3, [sp, #20]
     244:	445b      	add	r3, fp
     246:	19dc      	adds	r4, r3, r7
     248:	0020      	movs	r0, r4
     24a:	f7ff fffe 	bl	0 <__aeabi_uidivmod>
     24e:	69eb      	ldr	r3, [r5, #28]
     250:	1a64      	subs	r4, r4, r1
     252:	429c      	cmp	r4, r3
     254:	d900      	bls.n	258 <lfs_bd_read.isra.21.part.22+0xb8>
     256:	001c      	movs	r4, r3
     258:	4643      	mov	r3, r8
     25a:	1bd9      	subs	r1, r3, r7
     25c:	6aab      	ldr	r3, [r5, #40]	; 0x28
     25e:	1864      	adds	r4, r4, r1
     260:	429c      	cmp	r4, r3
     262:	d900      	bls.n	266 <lfs_bd_read.isra.21.part.22+0xc6>
     264:	001c      	movs	r4, r3
     266:	60b4      	str	r4, [r6, #8]
     268:	9400      	str	r4, [sp, #0]
     26a:	68f3      	ldr	r3, [r6, #12]
     26c:	9a03      	ldr	r2, [sp, #12]
     26e:	9910      	ldr	r1, [sp, #64]	; 0x40
     270:	0028      	movs	r0, r5
     272:	9c02      	ldr	r4, [sp, #8]
     274:	47a0      	blx	r4
     276:	2800      	cmp	r0, #0
     278:	d0a5      	beq.n	1c6 <lfs_bd_read.isra.21.part.22+0x26>
     27a:	e7d4      	b.n	226 <lfs_bd_read.isra.21.part.22+0x86>
     27c:	6873      	ldr	r3, [r6, #4]
     27e:	68b2      	ldr	r2, [r6, #8]
     280:	189d      	adds	r5, r3, r2
     282:	42bd      	cmp	r5, r7
     284:	d9ab      	bls.n	1de <lfs_bd_read.isra.21.part.22+0x3e>
     286:	42bb      	cmp	r3, r7
     288:	d924      	bls.n	2d4 <lfs_bd_read.isra.21.part.22+0x134>
     28a:	1bdb      	subs	r3, r3, r7
     28c:	429c      	cmp	r4, r3
     28e:	d9a6      	bls.n	1de <lfs_bd_read.isra.21.part.22+0x3e>
     290:	001c      	movs	r4, r3
     292:	e7a4      	b.n	1de <lfs_bd_read.isra.21.part.22+0x3e>
     294:	4653      	mov	r3, sl
     296:	685c      	ldr	r4, [r3, #4]
     298:	689b      	ldr	r3, [r3, #8]
     29a:	18e5      	adds	r5, r4, r3
     29c:	42bd      	cmp	r5, r7
     29e:	d907      	bls.n	2b0 <lfs_bd_read.isra.21.part.22+0x110>
     2a0:	42bc      	cmp	r4, r7
     2a2:	d92e      	bls.n	302 <lfs_bd_read.isra.21.part.22+0x162>
     2a4:	9b13      	ldr	r3, [sp, #76]	; 0x4c
     2a6:	1be4      	subs	r4, r4, r7
     2a8:	429c      	cmp	r4, r3
     2aa:	d994      	bls.n	1d6 <lfs_bd_read.isra.21.part.22+0x36>
     2ac:	001c      	movs	r4, r3
     2ae:	e792      	b.n	1d6 <lfs_bd_read.isra.21.part.22+0x36>
     2b0:	9c13      	ldr	r4, [sp, #76]	; 0x4c
     2b2:	e790      	b.n	1d6 <lfs_bd_read.isra.21.part.22+0x36>
     2b4:	9b12      	ldr	r3, [sp, #72]	; 0x48
     2b6:	445f      	add	r7, fp
     2b8:	445b      	add	r3, fp
     2ba:	9312      	str	r3, [sp, #72]	; 0x48
     2bc:	4643      	mov	r3, r8
     2be:	1b1c      	subs	r4, r3, r4
     2c0:	9b13      	ldr	r3, [sp, #76]	; 0x4c
     2c2:	469c      	mov	ip, r3
     2c4:	44a4      	add	ip, r4
     2c6:	4663      	mov	r3, ip
     2c8:	9313      	str	r3, [sp, #76]	; 0x4c
     2ca:	2b00      	cmp	r3, #0
     2cc:	d000      	beq.n	2d0 <lfs_bd_read.isra.21.part.22+0x130>
     2ce:	e77a      	b.n	1c6 <lfs_bd_read.isra.21.part.22+0x26>
     2d0:	2000      	movs	r0, #0
     2d2:	e7a8      	b.n	226 <lfs_bd_read.isra.21.part.22+0x86>
     2d4:	1bed      	subs	r5, r5, r7
     2d6:	42a5      	cmp	r5, r4
     2d8:	d811      	bhi.n	2fe <lfs_bd_read.isra.21.part.22+0x15e>
     2da:	1af9      	subs	r1, r7, r3
     2dc:	68f3      	ldr	r3, [r6, #12]
     2de:	469c      	mov	ip, r3
     2e0:	002a      	movs	r2, r5
     2e2:	4461      	add	r1, ip
     2e4:	9812      	ldr	r0, [sp, #72]	; 0x48
     2e6:	f7ff fffe 	bl	0 <memcpy>
     2ea:	9b12      	ldr	r3, [sp, #72]	; 0x48
     2ec:	197f      	adds	r7, r7, r5
     2ee:	469c      	mov	ip, r3
     2f0:	44ac      	add	ip, r5
     2f2:	4663      	mov	r3, ip
     2f4:	9312      	str	r3, [sp, #72]	; 0x48
     2f6:	9b13      	ldr	r3, [sp, #76]	; 0x4c
     2f8:	1b5b      	subs	r3, r3, r5
     2fa:	9313      	str	r3, [sp, #76]	; 0x4c
     2fc:	e7e5      	b.n	2ca <lfs_bd_read.isra.21.part.22+0x12a>
     2fe:	0025      	movs	r5, r4
     300:	e7eb      	b.n	2da <lfs_bd_read.isra.21.part.22+0x13a>
     302:	9b13      	ldr	r3, [sp, #76]	; 0x4c
     304:	1bed      	subs	r5, r5, r7
     306:	429d      	cmp	r5, r3
     308:	d900      	bls.n	30c <lfs_bd_read.isra.21.part.22+0x16c>
     30a:	001d      	movs	r5, r3
     30c:	4653      	mov	r3, sl
     30e:	1b39      	subs	r1, r7, r4
     310:	68db      	ldr	r3, [r3, #12]
     312:	e7e4      	b.n	2de <lfs_bd_read.isra.21.part.22+0x13e>

00000314 <lfs_ctz_traverse.part.23>:
     314:	b5f0      	push	{r4, r5, r6, r7, lr}
     316:	4645      	mov	r5, r8
     318:	46de      	mov	lr, fp
     31a:	464e      	mov	r6, r9
     31c:	4657      	mov	r7, sl
     31e:	b5e0      	push	{r5, r6, r7, lr}
     320:	b08b      	sub	sp, #44	; 0x2c
     322:	001d      	movs	r5, r3
     324:	9b14      	ldr	r3, [sp, #80]	; 0x50
     326:	4680      	mov	r8, r0
     328:	1e5c      	subs	r4, r3, #1
     32a:	6e83      	ldr	r3, [r0, #104]	; 0x68
     32c:	468b      	mov	fp, r1
     32e:	69de      	ldr	r6, [r3, #28]
     330:	9206      	str	r2, [sp, #24]
     332:	3e08      	subs	r6, #8
     334:	42b4      	cmp	r4, r6
     336:	d354      	bcc.n	3e2 <lfs_ctz_traverse.part.23+0xce>
     338:	0031      	movs	r1, r6
     33a:	0020      	movs	r0, r4
     33c:	f7ff fffe 	bl	0 <__aeabi_uidiv>
     340:	3801      	subs	r0, #1
     342:	f7ff fffe 	bl	0 <__popcountsi2>
     346:	3002      	adds	r0, #2
     348:	0080      	lsls	r0, r0, #2
     34a:	0031      	movs	r1, r6
     34c:	1a20      	subs	r0, r4, r0
     34e:	f7ff fffe 	bl	0 <__aeabi_uidiv>
     352:	0006      	movs	r6, r0
     354:	2301      	movs	r3, #1
     356:	469a      	mov	sl, r3
     358:	3301      	adds	r3, #1
     35a:	4699      	mov	r9, r3
     35c:	3366      	adds	r3, #102	; 0x66
     35e:	4443      	add	r3, r8
     360:	9307      	str	r3, [sp, #28]
     362:	0029      	movs	r1, r5
     364:	9816      	ldr	r0, [sp, #88]	; 0x58
     366:	9b15      	ldr	r3, [sp, #84]	; 0x54
     368:	4798      	blx	r3
     36a:	2800      	cmp	r0, #0
     36c:	d132      	bne.n	3d4 <lfs_ctz_traverse.part.23+0xc0>
     36e:	2e00      	cmp	r6, #0
     370:	d030      	beq.n	3d4 <lfs_ctz_traverse.part.23+0xc0>
     372:	4642      	mov	r2, r8
     374:	4657      	mov	r7, sl
     376:	464b      	mov	r3, r9
     378:	6e92      	ldr	r2, [r2, #104]	; 0x68
     37a:	4037      	ands	r7, r6
     37c:	6a11      	ldr	r1, [r2, #32]
     37e:	1bdc      	subs	r4, r3, r7
     380:	00a3      	lsls	r3, r4, #2
     382:	428d      	cmp	r5, r1
     384:	d22f      	bcs.n	3e6 <lfs_ctz_traverse.part.23+0xd2>
     386:	69d2      	ldr	r2, [r2, #28]
     388:	4293      	cmp	r3, r2
     38a:	d82c      	bhi.n	3e6 <lfs_ctz_traverse.part.23+0xd2>
     38c:	aa08      	add	r2, sp, #32
     38e:	9202      	str	r2, [sp, #8]
     390:	9001      	str	r0, [sp, #4]
     392:	9303      	str	r3, [sp, #12]
     394:	9500      	str	r5, [sp, #0]
     396:	9a06      	ldr	r2, [sp, #24]
     398:	4659      	mov	r1, fp
     39a:	9807      	ldr	r0, [sp, #28]
     39c:	f7ff ff00 	bl	1a0 <lfs_bd_read.isra.21.part.22>
     3a0:	2800      	cmp	r0, #0
     3a2:	d117      	bne.n	3d4 <lfs_ctz_traverse.part.23+0xc0>
     3a4:	3c01      	subs	r4, #1
     3a6:	2c01      	cmp	r4, #1
     3a8:	d107      	bne.n	3ba <lfs_ctz_traverse.part.23+0xa6>
     3aa:	9b08      	ldr	r3, [sp, #32]
     3ac:	9816      	ldr	r0, [sp, #88]	; 0x58
     3ae:	9305      	str	r3, [sp, #20]
     3b0:	0019      	movs	r1, r3
     3b2:	9b15      	ldr	r3, [sp, #84]	; 0x54
     3b4:	4798      	blx	r3
     3b6:	2800      	cmp	r0, #0
     3b8:	d10c      	bne.n	3d4 <lfs_ctz_traverse.part.23+0xc0>
     3ba:	2210      	movs	r2, #16
     3bc:	ab04      	add	r3, sp, #16
     3be:	189b      	adds	r3, r3, r2
     3c0:	00a4      	lsls	r4, r4, #2
     3c2:	591d      	ldr	r5, [r3, r4]
     3c4:	1ebb      	subs	r3, r7, #2
     3c6:	18f6      	adds	r6, r6, r3
     3c8:	0029      	movs	r1, r5
     3ca:	9816      	ldr	r0, [sp, #88]	; 0x58
     3cc:	9b15      	ldr	r3, [sp, #84]	; 0x54
     3ce:	4798      	blx	r3
     3d0:	2800      	cmp	r0, #0
     3d2:	d0cc      	beq.n	36e <lfs_ctz_traverse.part.23+0x5a>
     3d4:	b00b      	add	sp, #44	; 0x2c
     3d6:	bc3c      	pop	{r2, r3, r4, r5}
     3d8:	4690      	mov	r8, r2
     3da:	4699      	mov	r9, r3
     3dc:	46a2      	mov	sl, r4
     3de:	46ab      	mov	fp, r5
     3e0:	bdf0      	pop	{r4, r5, r6, r7, pc}
     3e2:	2600      	movs	r6, #0
     3e4:	e7b6      	b.n	354 <lfs_ctz_traverse.part.23+0x40>
     3e6:	2054      	movs	r0, #84	; 0x54
     3e8:	4240      	negs	r0, r0
     3ea:	e7f3      	b.n	3d4 <lfs_ctz_traverse.part.23+0xc0>

000003ec <lfs_ctz_traverse.part.23.constprop.40>:
     3ec:	b5f0      	push	{r4, r5, r6, r7, lr}
     3ee:	46de      	mov	lr, fp
     3f0:	4657      	mov	r7, sl
     3f2:	464e      	mov	r6, r9
     3f4:	4645      	mov	r5, r8
     3f6:	b5e0      	push	{r5, r6, r7, lr}
     3f8:	b089      	sub	sp, #36	; 0x24
     3fa:	4699      	mov	r9, r3
     3fc:	9b13      	ldr	r3, [sp, #76]	; 0x4c
     3fe:	6e87      	ldr	r7, [r0, #104]	; 0x68
     400:	4698      	mov	r8, r3
     402:	69fd      	ldr	r5, [r7, #28]
     404:	9b12      	ldr	r3, [sp, #72]	; 0x48
     406:	3d08      	subs	r5, #8
     408:	1e5e      	subs	r6, r3, #1
     40a:	9104      	str	r1, [sp, #16]
     40c:	4682      	mov	sl, r0
     40e:	0029      	movs	r1, r5
     410:	0030      	movs	r0, r6
     412:	9205      	str	r2, [sp, #20]
     414:	f7ff fffe 	bl	0 <__aeabi_uidiv>
     418:	4643      	mov	r3, r8
     41a:	681b      	ldr	r3, [r3, #0]
     41c:	3301      	adds	r3, #1
     41e:	469b      	mov	fp, r3
     420:	42ae      	cmp	r6, r5
     422:	d356      	bcc.n	4d2 <lfs_ctz_traverse.part.23.constprop.40+0xe6>
     424:	3801      	subs	r0, #1
     426:	f7ff fffe 	bl	0 <__popcountsi2>
     42a:	1c84      	adds	r4, r0, #2
     42c:	00a4      	lsls	r4, r4, #2
     42e:	1b34      	subs	r4, r6, r4
     430:	0029      	movs	r1, r5
     432:	0020      	movs	r0, r4
     434:	f7ff fffe 	bl	0 <__aeabi_uidiv>
     438:	4643      	mov	r3, r8
     43a:	465a      	mov	r2, fp
     43c:	0006      	movs	r6, r0
     43e:	601a      	str	r2, [r3, #0]
     440:	42a5      	cmp	r5, r4
     442:	d849      	bhi.n	4d8 <lfs_ctz_traverse.part.23.constprop.40+0xec>
     444:	2268      	movs	r2, #104	; 0x68
     446:	2501      	movs	r5, #1
     448:	2402      	movs	r4, #2
     44a:	4452      	add	r2, sl
     44c:	4005      	ands	r5, r0
     44e:	4693      	mov	fp, r2
     450:	6a3a      	ldr	r2, [r7, #32]
     452:	1b64      	subs	r4, r4, r5
     454:	00a3      	lsls	r3, r4, #2
     456:	4591      	cmp	r9, r2
     458:	d232      	bcs.n	4c0 <lfs_ctz_traverse.part.23.constprop.40+0xd4>
     45a:	69fa      	ldr	r2, [r7, #28]
     45c:	429a      	cmp	r2, r3
     45e:	d32f      	bcc.n	4c0 <lfs_ctz_traverse.part.23.constprop.40+0xd4>
     460:	4641      	mov	r1, r8
     462:	464a      	mov	r2, r9
     464:	46a8      	mov	r8, r5
     466:	000d      	movs	r5, r1
     468:	af06      	add	r7, sp, #24
     46a:	9113      	str	r1, [sp, #76]	; 0x4c
     46c:	2100      	movs	r1, #0
     46e:	9200      	str	r2, [sp, #0]
     470:	9101      	str	r1, [sp, #4]
     472:	9303      	str	r3, [sp, #12]
     474:	9702      	str	r7, [sp, #8]
     476:	9a05      	ldr	r2, [sp, #20]
     478:	9904      	ldr	r1, [sp, #16]
     47a:	4658      	mov	r0, fp
     47c:	f7ff fe90 	bl	1a0 <lfs_bd_read.isra.21.part.22>
     480:	2800      	cmp	r0, #0
     482:	d11f      	bne.n	4c4 <lfs_ctz_traverse.part.23.constprop.40+0xd8>
     484:	6829      	ldr	r1, [r5, #0]
     486:	1e62      	subs	r2, r4, #1
     488:	3c02      	subs	r4, #2
     48a:	4263      	negs	r3, r4
     48c:	4163      	adcs	r3, r4
     48e:	468c      	mov	ip, r1
     490:	4446      	add	r6, r8
     492:	4463      	add	r3, ip
     494:	3301      	adds	r3, #1
     496:	0092      	lsls	r2, r2, #2
     498:	3e02      	subs	r6, #2
     49a:	58ba      	ldr	r2, [r7, r2]
     49c:	602b      	str	r3, [r5, #0]
     49e:	2e00      	cmp	r6, #0
     4a0:	d01a      	beq.n	4d8 <lfs_ctz_traverse.part.23.constprop.40+0xec>
     4a2:	2301      	movs	r3, #1
     4a4:	4033      	ands	r3, r6
     4a6:	4698      	mov	r8, r3
     4a8:	2302      	movs	r3, #2
     4aa:	4641      	mov	r1, r8
     4ac:	1a5c      	subs	r4, r3, r1
     4ae:	4651      	mov	r1, sl
     4b0:	6e89      	ldr	r1, [r1, #104]	; 0x68
     4b2:	00a3      	lsls	r3, r4, #2
     4b4:	6a08      	ldr	r0, [r1, #32]
     4b6:	4282      	cmp	r2, r0
     4b8:	d202      	bcs.n	4c0 <lfs_ctz_traverse.part.23.constprop.40+0xd4>
     4ba:	69c9      	ldr	r1, [r1, #28]
     4bc:	428b      	cmp	r3, r1
     4be:	d9d5      	bls.n	46c <lfs_ctz_traverse.part.23.constprop.40+0x80>
     4c0:	2054      	movs	r0, #84	; 0x54
     4c2:	4240      	negs	r0, r0
     4c4:	b009      	add	sp, #36	; 0x24
     4c6:	bc3c      	pop	{r2, r3, r4, r5}
     4c8:	4690      	mov	r8, r2
     4ca:	4699      	mov	r9, r3
     4cc:	46a2      	mov	sl, r4
     4ce:	46ab      	mov	fp, r5
     4d0:	bdf0      	pop	{r4, r5, r6, r7, pc}
     4d2:	4643      	mov	r3, r8
     4d4:	465a      	mov	r2, fp
     4d6:	601a      	str	r2, [r3, #0]
     4d8:	2000      	movs	r0, #0
     4da:	e7f3      	b.n	4c4 <lfs_ctz_traverse.part.23.constprop.40+0xd8>

000004dc <lfs_fs_parent_match>:
     4dc:	b5f0      	push	{r4, r5, r6, r7, lr}
     4de:	6804      	ldr	r4, [r0, #0]
     4e0:	0005      	movs	r5, r0
     4e2:	0021      	movs	r1, r4
     4e4:	0020      	movs	r0, r4
     4e6:	6ea6      	ldr	r6, [r4, #104]	; 0x68
     4e8:	6817      	ldr	r7, [r2, #0]
     4ea:	69f3      	ldr	r3, [r6, #28]
     4ec:	6a36      	ldr	r6, [r6, #32]
     4ee:	b087      	sub	sp, #28
     4f0:	3110      	adds	r1, #16
     4f2:	6852      	ldr	r2, [r2, #4]
     4f4:	3068      	adds	r0, #104	; 0x68
     4f6:	42b7      	cmp	r7, r6
     4f8:	d21d      	bcs.n	536 <lfs_fs_parent_match+0x5a>
     4fa:	0016      	movs	r6, r2
     4fc:	3608      	adds	r6, #8
     4fe:	42b3      	cmp	r3, r6
     500:	d319      	bcc.n	536 <lfs_fs_parent_match+0x5a>
     502:	2608      	movs	r6, #8
     504:	9603      	str	r6, [sp, #12]
     506:	ae04      	add	r6, sp, #16
     508:	9201      	str	r2, [sp, #4]
     50a:	9602      	str	r6, [sp, #8]
     50c:	9700      	str	r7, [sp, #0]
     50e:	0022      	movs	r2, r4
     510:	f7ff fe46 	bl	1a0 <lfs_bd_read.isra.21.part.22>
     514:	2800      	cmp	r0, #0
     516:	d10c      	bne.n	532 <lfs_fs_parent_match+0x56>
     518:	9b04      	ldr	r3, [sp, #16]
     51a:	686a      	ldr	r2, [r5, #4]
     51c:	429a      	cmp	r2, r3
     51e:	d008      	beq.n	532 <lfs_fs_parent_match+0x56>
     520:	9c05      	ldr	r4, [sp, #20]
     522:	68a9      	ldr	r1, [r5, #8]
     524:	428c      	cmp	r4, r1
     526:	d004      	beq.n	532 <lfs_fs_parent_match+0x56>
     528:	428b      	cmp	r3, r1
     52a:	d002      	beq.n	532 <lfs_fs_parent_match+0x56>
     52c:	1b10      	subs	r0, r2, r4
     52e:	1e43      	subs	r3, r0, #1
     530:	4198      	sbcs	r0, r3
     532:	b007      	add	sp, #28
     534:	bdf0      	pop	{r4, r5, r6, r7, pc}
     536:	2054      	movs	r0, #84	; 0x54
     538:	4240      	negs	r0, r0
     53a:	e7fa      	b.n	532 <lfs_fs_parent_match+0x56>

0000053c <lfs_dir_find_match>:
     53c:	b5f0      	push	{r4, r5, r6, r7, lr}
     53e:	464e      	mov	r6, r9
     540:	4645      	mov	r5, r8
     542:	46de      	mov	lr, fp
     544:	4657      	mov	r7, sl
     546:	b5e0      	push	{r5, r6, r7, lr}
     548:	6803      	ldr	r3, [r0, #0]
     54a:	0589      	lsls	r1, r1, #22
     54c:	4698      	mov	r8, r3
     54e:	6883      	ldr	r3, [r0, #8]
     550:	b089      	sub	sp, #36	; 0x24
     552:	4681      	mov	r9, r0
     554:	0d8d      	lsrs	r5, r1, #22
     556:	001e      	movs	r6, r3
     558:	42ab      	cmp	r3, r5
     55a:	d900      	bls.n	55e <lfs_dir_find_match+0x22>
     55c:	002e      	movs	r6, r5
     55e:	6811      	ldr	r1, [r2, #0]
     560:	6852      	ldr	r2, [r2, #4]
     562:	468a      	mov	sl, r1
     564:	4693      	mov	fp, r2
     566:	464a      	mov	r2, r9
     568:	6852      	ldr	r2, [r2, #4]
     56a:	9204      	str	r2, [sp, #16]
     56c:	2e00      	cmp	r6, #0
     56e:	d04a      	beq.n	606 <lfs_dir_find_match+0xca>
     570:	0034      	movs	r4, r6
     572:	2e08      	cmp	r6, #8
     574:	d84e      	bhi.n	614 <lfs_dir_find_match+0xd8>
     576:	2368      	movs	r3, #104	; 0x68
     578:	4443      	add	r3, r8
     57a:	9305      	str	r3, [sp, #20]
     57c:	4643      	mov	r3, r8
     57e:	6e9a      	ldr	r2, [r3, #104]	; 0x68
     580:	6a13      	ldr	r3, [r2, #32]
     582:	459a      	cmp	sl, r3
     584:	d248      	bcs.n	618 <lfs_dir_find_match+0xdc>
     586:	465b      	mov	r3, fp
     588:	69d2      	ldr	r2, [r2, #28]
     58a:	191b      	adds	r3, r3, r4
     58c:	4293      	cmp	r3, r2
     58e:	d843      	bhi.n	618 <lfs_dir_find_match+0xdc>
     590:	0033      	movs	r3, r6
     592:	4659      	mov	r1, fp
     594:	4656      	mov	r6, sl
     596:	2700      	movs	r7, #0
     598:	46aa      	mov	sl, r5
     59a:	001d      	movs	r5, r3
     59c:	e012      	b.n	5c4 <lfs_dir_find_match+0x88>
     59e:	193f      	adds	r7, r7, r4
     5a0:	42bd      	cmp	r5, r7
     5a2:	d92d      	bls.n	600 <lfs_dir_find_match+0xc4>
     5a4:	1beb      	subs	r3, r5, r7
     5a6:	001c      	movs	r4, r3
     5a8:	2b08      	cmp	r3, #8
     5aa:	d900      	bls.n	5ae <lfs_dir_find_match+0x72>
     5ac:	2408      	movs	r4, #8
     5ae:	465a      	mov	r2, fp
     5b0:	19d1      	adds	r1, r2, r7
     5b2:	4642      	mov	r2, r8
     5b4:	6e90      	ldr	r0, [r2, #104]	; 0x68
     5b6:	6a02      	ldr	r2, [r0, #32]
     5b8:	4296      	cmp	r6, r2
     5ba:	d22d      	bcs.n	618 <lfs_dir_find_match+0xdc>
     5bc:	69c0      	ldr	r0, [r0, #28]
     5be:	1862      	adds	r2, r4, r1
     5c0:	4282      	cmp	r2, r0
     5c2:	d829      	bhi.n	618 <lfs_dir_find_match+0xdc>
     5c4:	aa06      	add	r2, sp, #24
     5c6:	9202      	str	r2, [sp, #8]
     5c8:	9101      	str	r1, [sp, #4]
     5ca:	9403      	str	r4, [sp, #12]
     5cc:	9600      	str	r6, [sp, #0]
     5ce:	4642      	mov	r2, r8
     5d0:	2100      	movs	r1, #0
     5d2:	9805      	ldr	r0, [sp, #20]
     5d4:	f7ff fde4 	bl	1a0 <lfs_bd_read.isra.21.part.22>
     5d8:	2800      	cmp	r0, #0
     5da:	d10a      	bne.n	5f2 <lfs_dir_find_match+0xb6>
     5dc:	9b04      	ldr	r3, [sp, #16]
     5de:	0022      	movs	r2, r4
     5e0:	19d9      	adds	r1, r3, r7
     5e2:	a806      	add	r0, sp, #24
     5e4:	f7ff fffe 	bl	0 <memcmp>
     5e8:	2800      	cmp	r0, #0
     5ea:	d0d8      	beq.n	59e <lfs_dir_find_match+0x62>
     5ec:	43c0      	mvns	r0, r0
     5ee:	0fc0      	lsrs	r0, r0, #31
     5f0:	3001      	adds	r0, #1
     5f2:	b009      	add	sp, #36	; 0x24
     5f4:	bc3c      	pop	{r2, r3, r4, r5}
     5f6:	4690      	mov	r8, r2
     5f8:	4699      	mov	r9, r3
     5fa:	46a2      	mov	sl, r4
     5fc:	46ab      	mov	fp, r5
     5fe:	bdf0      	pop	{r4, r5, r6, r7, pc}
     600:	464b      	mov	r3, r9
     602:	4655      	mov	r5, sl
     604:	689b      	ldr	r3, [r3, #8]
     606:	2000      	movs	r0, #0
     608:	429d      	cmp	r5, r3
     60a:	d0f2      	beq.n	5f2 <lfs_dir_find_match+0xb6>
     60c:	42ab      	cmp	r3, r5
     60e:	4140      	adcs	r0, r0
     610:	3001      	adds	r0, #1
     612:	e7ee      	b.n	5f2 <lfs_dir_find_match+0xb6>
     614:	2408      	movs	r4, #8
     616:	e7ae      	b.n	576 <lfs_dir_find_match+0x3a>
     618:	2054      	movs	r0, #84	; 0x54
     61a:	4240      	negs	r0, r0
     61c:	e7e9      	b.n	5f2 <lfs_dir_find_match+0xb6>
     61e:	46c0      	nop			; (mov r8, r8)

00000620 <lfs_ctz_find.constprop.30>:
     620:	b5f0      	push	{r4, r5, r6, r7, lr}
     622:	464e      	mov	r6, r9
     624:	4645      	mov	r5, r8
     626:	46de      	mov	lr, fp
     628:	4657      	mov	r7, sl
     62a:	b5e0      	push	{r5, r6, r7, lr}
     62c:	b087      	sub	sp, #28
     62e:	4680      	mov	r8, r0
     630:	4689      	mov	r9, r1
     632:	9205      	str	r2, [sp, #20]
     634:	2b00      	cmp	r3, #0
     636:	d100      	bne.n	63a <lfs_ctz_find.constprop.30+0x1a>
     638:	e08e      	b.n	758 <lfs_ctz_find.constprop.30+0x138>
     63a:	1e5d      	subs	r5, r3, #1
     63c:	6e83      	ldr	r3, [r0, #104]	; 0x68
     63e:	0016      	movs	r6, r2
     640:	469a      	mov	sl, r3
     642:	69db      	ldr	r3, [r3, #28]
     644:	001c      	movs	r4, r3
     646:	3c08      	subs	r4, #8
     648:	469b      	mov	fp, r3
     64a:	42a5      	cmp	r5, r4
     64c:	d200      	bcs.n	650 <lfs_ctz_find.constprop.30+0x30>
     64e:	e07e      	b.n	74e <lfs_ctz_find.constprop.30+0x12e>
     650:	0021      	movs	r1, r4
     652:	0028      	movs	r0, r5
     654:	f7ff fffe 	bl	0 <__aeabi_uidiv>
     658:	3801      	subs	r0, #1
     65a:	f7ff fffe 	bl	0 <__popcountsi2>
     65e:	3002      	adds	r0, #2
     660:	0080      	lsls	r0, r0, #2
     662:	1a28      	subs	r0, r5, r0
     664:	0021      	movs	r1, r4
     666:	f7ff fffe 	bl	0 <__aeabi_uidiv>
     66a:	9b10      	ldr	r3, [sp, #64]	; 0x40
     66c:	0005      	movs	r5, r0
     66e:	2700      	movs	r7, #0
     670:	429c      	cmp	r4, r3
     672:	d816      	bhi.n	6a2 <lfs_ctz_find.constprop.30+0x82>
     674:	0021      	movs	r1, r4
     676:	9810      	ldr	r0, [sp, #64]	; 0x40
     678:	f7ff fffe 	bl	0 <__aeabi_uidiv>
     67c:	3801      	subs	r0, #1
     67e:	f7ff fffe 	bl	0 <__popcountsi2>
     682:	9b10      	ldr	r3, [sp, #64]	; 0x40
     684:	3002      	adds	r0, #2
     686:	0080      	lsls	r0, r0, #2
     688:	1a18      	subs	r0, r3, r0
     68a:	0021      	movs	r1, r4
     68c:	f7ff fffe 	bl	0 <__aeabi_uidiv>
     690:	0007      	movs	r7, r0
     692:	f7ff fffe 	bl	0 <__popcountsi2>
     696:	437c      	muls	r4, r7
     698:	9b10      	ldr	r3, [sp, #64]	; 0x40
     69a:	0080      	lsls	r0, r0, #2
     69c:	1a18      	subs	r0, r3, r0
     69e:	1b03      	subs	r3, r0, r4
     6a0:	9310      	str	r3, [sp, #64]	; 0x40
     6a2:	42bd      	cmp	r5, r7
     6a4:	d946      	bls.n	734 <lfs_ctz_find.constprop.30+0x114>
     6a6:	1be8      	subs	r0, r5, r7
     6a8:	f7ff fffe 	bl	0 <__clzsi2>
     6ac:	0004      	movs	r4, r0
     6ae:	0028      	movs	r0, r5
     6b0:	43e4      	mvns	r4, r4
     6b2:	f7ff fffe 	bl	0 <__ctzsi2>
     6b6:	3420      	adds	r4, #32
     6b8:	4284      	cmp	r4, r0
     6ba:	d900      	bls.n	6be <lfs_ctz_find.constprop.30+0x9e>
     6bc:	0004      	movs	r4, r0
     6be:	2368      	movs	r3, #104	; 0x68
     6c0:	4443      	add	r3, r8
     6c2:	9304      	str	r3, [sp, #16]
     6c4:	4653      	mov	r3, sl
     6c6:	6a1b      	ldr	r3, [r3, #32]
     6c8:	00a2      	lsls	r2, r4, #2
     6ca:	42b3      	cmp	r3, r6
     6cc:	d94c      	bls.n	768 <lfs_ctz_find.constprop.30+0x148>
     6ce:	1d13      	adds	r3, r2, #4
     6d0:	459b      	cmp	fp, r3
     6d2:	d349      	bcc.n	768 <lfs_ctz_find.constprop.30+0x148>
     6d4:	2304      	movs	r3, #4
     6d6:	469a      	mov	sl, r3
     6d8:	3b03      	subs	r3, #3
     6da:	469b      	mov	fp, r3
     6dc:	e016      	b.n	70c <lfs_ctz_find.constprop.30+0xec>
     6de:	1be8      	subs	r0, r5, r7
     6e0:	f7ff fffe 	bl	0 <__clzsi2>
     6e4:	0004      	movs	r4, r0
     6e6:	0028      	movs	r0, r5
     6e8:	f7ff fffe 	bl	0 <__ctzsi2>
     6ec:	2320      	movs	r3, #32
     6ee:	1b1c      	subs	r4, r3, r4
     6f0:	3c01      	subs	r4, #1
     6f2:	4284      	cmp	r4, r0
     6f4:	d900      	bls.n	6f8 <lfs_ctz_find.constprop.30+0xd8>
     6f6:	0004      	movs	r4, r0
     6f8:	4643      	mov	r3, r8
     6fa:	6e99      	ldr	r1, [r3, #104]	; 0x68
     6fc:	00a2      	lsls	r2, r4, #2
     6fe:	6a0b      	ldr	r3, [r1, #32]
     700:	42b3      	cmp	r3, r6
     702:	d931      	bls.n	768 <lfs_ctz_find.constprop.30+0x148>
     704:	69c9      	ldr	r1, [r1, #28]
     706:	1d13      	adds	r3, r2, #4
     708:	428b      	cmp	r3, r1
     70a:	d82d      	bhi.n	768 <lfs_ctz_find.constprop.30+0x148>
     70c:	4653      	mov	r3, sl
     70e:	9303      	str	r3, [sp, #12]
     710:	ab05      	add	r3, sp, #20
     712:	9302      	str	r3, [sp, #8]
     714:	9201      	str	r2, [sp, #4]
     716:	9600      	str	r6, [sp, #0]
     718:	2304      	movs	r3, #4
     71a:	464a      	mov	r2, r9
     71c:	2100      	movs	r1, #0
     71e:	9804      	ldr	r0, [sp, #16]
     720:	f7ff fd3e 	bl	1a0 <lfs_bd_read.isra.21.part.22>
     724:	2800      	cmp	r0, #0
     726:	d10b      	bne.n	740 <lfs_ctz_find.constprop.30+0x120>
     728:	465b      	mov	r3, fp
     72a:	40a3      	lsls	r3, r4
     72c:	9e05      	ldr	r6, [sp, #20]
     72e:	1aed      	subs	r5, r5, r3
     730:	42bd      	cmp	r5, r7
     732:	d8d4      	bhi.n	6de <lfs_ctz_find.constprop.30+0xbe>
     734:	2000      	movs	r0, #0
     736:	9b11      	ldr	r3, [sp, #68]	; 0x44
     738:	9a10      	ldr	r2, [sp, #64]	; 0x40
     73a:	601e      	str	r6, [r3, #0]
     73c:	9b12      	ldr	r3, [sp, #72]	; 0x48
     73e:	601a      	str	r2, [r3, #0]
     740:	b007      	add	sp, #28
     742:	bc3c      	pop	{r2, r3, r4, r5}
     744:	4690      	mov	r8, r2
     746:	4699      	mov	r9, r3
     748:	46a2      	mov	sl, r4
     74a:	46ab      	mov	fp, r5
     74c:	bdf0      	pop	{r4, r5, r6, r7, pc}
     74e:	9b10      	ldr	r3, [sp, #64]	; 0x40
     750:	429c      	cmp	r4, r3
     752:	d8ef      	bhi.n	734 <lfs_ctz_find.constprop.30+0x114>
     754:	2500      	movs	r5, #0
     756:	e78d      	b.n	674 <lfs_ctz_find.constprop.30+0x54>
     758:	2201      	movs	r2, #1
     75a:	9911      	ldr	r1, [sp, #68]	; 0x44
     75c:	4252      	negs	r2, r2
     75e:	600a      	str	r2, [r1, #0]
     760:	9a12      	ldr	r2, [sp, #72]	; 0x48
     762:	2000      	movs	r0, #0
     764:	6013      	str	r3, [r2, #0]
     766:	e7eb      	b.n	740 <lfs_ctz_find.constprop.30+0x120>
     768:	2054      	movs	r0, #84	; 0x54
     76a:	4240      	negs	r0, r0
     76c:	e7e8      	b.n	740 <lfs_ctz_find.constprop.30+0x120>
     76e:	46c0      	nop			; (mov r8, r8)

00000770 <lfs_dir_traverse>:
     770:	b5f0      	push	{r4, r5, r6, r7, lr}
     772:	4657      	mov	r7, sl
     774:	464e      	mov	r6, r9
     776:	4645      	mov	r5, r8
     778:	46de      	mov	lr, fp
     77a:	b5e0      	push	{r5, r6, r7, lr}
     77c:	b095      	sub	sp, #84	; 0x54
     77e:	001d      	movs	r5, r3
     780:	9b1f      	ldr	r3, [sp, #124]	; 0x7c
     782:	4683      	mov	fp, r0
     784:	4698      	mov	r8, r3
     786:	4689      	mov	r9, r1
     788:	4647      	mov	r7, r8
     78a:	ab22      	add	r3, sp, #136	; 0x88
     78c:	881b      	ldrh	r3, [r3, #0]
     78e:	4692      	mov	sl, r2
     790:	930d      	str	r3, [sp, #52]	; 0x34
     792:	ab23      	add	r3, sp, #140	; 0x8c
     794:	881b      	ldrh	r3, [r3, #0]
     796:	9e1e      	ldr	r6, [sp, #120]	; 0x78
     798:	930e      	str	r3, [sp, #56]	; 0x38
     79a:	ab24      	add	r3, sp, #144	; 0x90
     79c:	2200      	movs	r2, #0
     79e:	5e9a      	ldrsh	r2, [r3, r2]
     7a0:	9b20      	ldr	r3, [sp, #128]	; 0x80
     7a2:	920f      	str	r2, [sp, #60]	; 0x3c
     7a4:	0a9b      	lsrs	r3, r3, #10
     7a6:	b29b      	uxth	r3, r3
     7a8:	930b      	str	r3, [sp, #44]	; 0x2c
     7aa:	0293      	lsls	r3, r2, #10
     7ac:	930c      	str	r3, [sp, #48]	; 0x30
     7ae:	05ac      	lsls	r4, r5, #22
     7b0:	15a4      	asrs	r4, r4, #22
     7b2:	3401      	adds	r4, #1
     7b4:	4263      	negs	r3, r4
     7b6:	415c      	adcs	r4, r3
     7b8:	4653      	mov	r3, sl
     7ba:	1964      	adds	r4, r4, r5
     7bc:	05a4      	lsls	r4, r4, #22
     7be:	3304      	adds	r3, #4
     7c0:	0da4      	lsrs	r4, r4, #22
     7c2:	18e4      	adds	r4, r4, r3
     7c4:	464b      	mov	r3, r9
     7c6:	68db      	ldr	r3, [r3, #12]
     7c8:	429c      	cmp	r4, r3
     7ca:	d32e      	bcc.n	82a <lfs_dir_traverse+0xba>
     7cc:	2f00      	cmp	r7, #0
     7ce:	dc00      	bgt.n	7d2 <lfs_dir_traverse+0x62>
     7d0:	e0c2      	b.n	958 <lfs_dir_traverse+0x1e8>
     7d2:	6873      	ldr	r3, [r6, #4]
     7d4:	6831      	ldr	r1, [r6, #0]
     7d6:	4698      	mov	r8, r3
     7d8:	9111      	str	r1, [sp, #68]	; 0x44
     7da:	3608      	adds	r6, #8
     7dc:	3f01      	subs	r7, #1
     7de:	9c21      	ldr	r4, [sp, #132]	; 0x84
     7e0:	9b20      	ldr	r3, [sp, #128]	; 0x80
     7e2:	404c      	eors	r4, r1
     7e4:	401c      	ands	r4, r3
     7e6:	4b61      	ldr	r3, [pc, #388]	; (96c <lfs_dir_traverse+0x1fc>)
     7e8:	401c      	ands	r4, r3
     7ea:	d1e0      	bne.n	7ae <lfs_dir_traverse+0x3e>
     7ec:	9b0b      	ldr	r3, [sp, #44]	; 0x2c
     7ee:	2b00      	cmp	r3, #0
     7f0:	d149      	bne.n	886 <lfs_dir_traverse+0x116>
     7f2:	004b      	lsls	r3, r1, #1
     7f4:	0d5b      	lsrs	r3, r3, #21
     7f6:	d0da      	beq.n	7ae <lfs_dir_traverse+0x3e>
     7f8:	2202      	movs	r2, #2
     7fa:	32ff      	adds	r2, #255	; 0xff
     7fc:	4293      	cmp	r3, r2
     7fe:	d062      	beq.n	8c6 <lfs_dir_traverse+0x156>
     800:	2281      	movs	r2, #129	; 0x81
     802:	0052      	lsls	r2, r2, #1
     804:	4293      	cmp	r3, r2
     806:	d100      	bne.n	80a <lfs_dir_traverse+0x9a>
     808:	e080      	b.n	90c <lfs_dir_traverse+0x19c>
     80a:	9b0c      	ldr	r3, [sp, #48]	; 0x30
     80c:	4642      	mov	r2, r8
     80e:	469c      	mov	ip, r3
     810:	9826      	ldr	r0, [sp, #152]	; 0x98
     812:	4461      	add	r1, ip
     814:	9b25      	ldr	r3, [sp, #148]	; 0x94
     816:	4798      	blx	r3
     818:	2800      	cmp	r0, #0
     81a:	d0c8      	beq.n	7ae <lfs_dir_traverse+0x3e>
     81c:	b015      	add	sp, #84	; 0x54
     81e:	bc3c      	pop	{r2, r3, r4, r5}
     820:	4690      	mov	r8, r2
     822:	4699      	mov	r9, r3
     824:	46a2      	mov	sl, r4
     826:	46ab      	mov	fp, r5
     828:	bdf0      	pop	{r4, r5, r6, r7, pc}
     82a:	464b      	mov	r3, r9
     82c:	681a      	ldr	r2, [r3, #0]
     82e:	465b      	mov	r3, fp
     830:	4658      	mov	r0, fp
     832:	6e9b      	ldr	r3, [r3, #104]	; 0x68
     834:	3068      	adds	r0, #104	; 0x68
     836:	6a19      	ldr	r1, [r3, #32]
     838:	428a      	cmp	r2, r1
     83a:	d300      	bcc.n	83e <lfs_dir_traverse+0xce>
     83c:	e092      	b.n	964 <lfs_dir_traverse+0x1f4>
     83e:	69db      	ldr	r3, [r3, #28]
     840:	1d21      	adds	r1, r4, #4
     842:	4688      	mov	r8, r1
     844:	4299      	cmp	r1, r3
     846:	d900      	bls.n	84a <lfs_dir_traverse+0xda>
     848:	e08c      	b.n	964 <lfs_dir_traverse+0x1f4>
     84a:	2304      	movs	r3, #4
     84c:	9303      	str	r3, [sp, #12]
     84e:	ab11      	add	r3, sp, #68	; 0x44
     850:	9302      	str	r3, [sp, #8]
     852:	9200      	str	r2, [sp, #0]
     854:	9401      	str	r4, [sp, #4]
     856:	2304      	movs	r3, #4
     858:	465a      	mov	r2, fp
     85a:	2100      	movs	r1, #0
     85c:	f7ff fca0 	bl	1a0 <lfs_bd_read.isra.21.part.22>
     860:	2800      	cmp	r0, #0
     862:	d1db      	bne.n	81c <lfs_dir_traverse+0xac>
     864:	9b11      	ldr	r3, [sp, #68]	; 0x44
     866:	46a2      	mov	sl, r4
     868:	ba19      	rev	r1, r3
     86a:	464b      	mov	r3, r9
     86c:	681b      	ldr	r3, [r3, #0]
     86e:	404d      	eors	r5, r1
     870:	2180      	movs	r1, #128	; 0x80
     872:	9312      	str	r3, [sp, #72]	; 0x48
     874:	4643      	mov	r3, r8
     876:	0609      	lsls	r1, r1, #24
     878:	4329      	orrs	r1, r5
     87a:	9313      	str	r3, [sp, #76]	; 0x4c
     87c:	ab12      	add	r3, sp, #72	; 0x48
     87e:	9111      	str	r1, [sp, #68]	; 0x44
     880:	000d      	movs	r5, r1
     882:	4698      	mov	r8, r3
     884:	e7ab      	b.n	7de <lfs_dir_traverse+0x6e>
     886:	ab11      	add	r3, sp, #68	; 0x44
     888:	9308      	str	r3, [sp, #32]
     88a:	4b39      	ldr	r3, [pc, #228]	; (970 <lfs_dir_traverse+0x200>)
     88c:	9406      	str	r4, [sp, #24]
     88e:	9307      	str	r3, [sp, #28]
     890:	9405      	str	r4, [sp, #20]
     892:	9404      	str	r4, [sp, #16]
     894:	9403      	str	r4, [sp, #12]
     896:	9402      	str	r4, [sp, #8]
     898:	9701      	str	r7, [sp, #4]
     89a:	9600      	str	r6, [sp, #0]
     89c:	002b      	movs	r3, r5
     89e:	4652      	mov	r2, sl
     8a0:	4649      	mov	r1, r9
     8a2:	4658      	mov	r0, fp
     8a4:	f7ff ff64 	bl	770 <lfs_dir_traverse>
     8a8:	2800      	cmp	r0, #0
     8aa:	dbb7      	blt.n	81c <lfs_dir_traverse+0xac>
     8ac:	d000      	beq.n	8b0 <lfs_dir_traverse+0x140>
     8ae:	e77e      	b.n	7ae <lfs_dir_traverse+0x3e>
     8b0:	9911      	ldr	r1, [sp, #68]	; 0x44
     8b2:	9a0d      	ldr	r2, [sp, #52]	; 0x34
     8b4:	030b      	lsls	r3, r1, #12
     8b6:	0d9b      	lsrs	r3, r3, #22
     8b8:	429a      	cmp	r2, r3
     8ba:	d900      	bls.n	8be <lfs_dir_traverse+0x14e>
     8bc:	e777      	b.n	7ae <lfs_dir_traverse+0x3e>
     8be:	9a0e      	ldr	r2, [sp, #56]	; 0x38
     8c0:	429a      	cmp	r2, r3
     8c2:	d896      	bhi.n	7f2 <lfs_dir_traverse+0x82>
     8c4:	e773      	b.n	7ae <lfs_dir_traverse+0x3e>
     8c6:	9b26      	ldr	r3, [sp, #152]	; 0x98
     8c8:	058a      	lsls	r2, r1, #22
     8ca:	9308      	str	r3, [sp, #32]
     8cc:	0309      	lsls	r1, r1, #12
     8ce:	9b25      	ldr	r3, [sp, #148]	; 0x94
     8d0:	0d92      	lsrs	r2, r2, #22
     8d2:	0d89      	lsrs	r1, r1, #22
     8d4:	9307      	str	r3, [sp, #28]
     8d6:	1a8b      	subs	r3, r1, r2
     8d8:	990f      	ldr	r1, [sp, #60]	; 0x3c
     8da:	9204      	str	r2, [sp, #16]
     8dc:	468c      	mov	ip, r1
     8de:	4463      	add	r3, ip
     8e0:	b21b      	sxth	r3, r3
     8e2:	9306      	str	r3, [sp, #24]
     8e4:	1c53      	adds	r3, r2, #1
     8e6:	9305      	str	r3, [sp, #20]
     8e8:	2380      	movs	r3, #128	; 0x80
     8ea:	059b      	lsls	r3, r3, #22
     8ec:	9303      	str	r3, [sp, #12]
     8ee:	4b21      	ldr	r3, [pc, #132]	; (974 <lfs_dir_traverse+0x204>)
     8f0:	2200      	movs	r2, #0
     8f2:	9302      	str	r3, [sp, #8]
     8f4:	2300      	movs	r3, #0
     8f6:	4641      	mov	r1, r8
     8f8:	9301      	str	r3, [sp, #4]
     8fa:	9300      	str	r3, [sp, #0]
     8fc:	4658      	mov	r0, fp
     8fe:	3b01      	subs	r3, #1
     900:	f7ff ff36 	bl	770 <lfs_dir_traverse>
     904:	2800      	cmp	r0, #0
     906:	d100      	bne.n	90a <lfs_dir_traverse+0x19a>
     908:	e751      	b.n	7ae <lfs_dir_traverse+0x3e>
     90a:	e787      	b.n	81c <lfs_dir_traverse+0xac>
     90c:	058b      	lsls	r3, r1, #22
     90e:	d100      	bne.n	912 <lfs_dir_traverse+0x1a2>
     910:	e74d      	b.n	7ae <lfs_dir_traverse+0x3e>
     912:	002b      	movs	r3, r5
     914:	961e      	str	r6, [sp, #120]	; 0x78
     916:	0025      	movs	r5, r4
     918:	971f      	str	r7, [sp, #124]	; 0x7c
     91a:	4644      	mov	r4, r8
     91c:	9e0f      	ldr	r6, [sp, #60]	; 0x3c
     91e:	9f25      	ldr	r7, [sp, #148]	; 0x94
     920:	4698      	mov	r8, r3
     922:	e006      	b.n	932 <lfs_dir_traverse+0x1c2>
     924:	9911      	ldr	r1, [sp, #68]	; 0x44
     926:	3501      	adds	r5, #1
     928:	058b      	lsls	r3, r1, #22
     92a:	340c      	adds	r4, #12
     92c:	0d9b      	lsrs	r3, r3, #22
     92e:	429d      	cmp	r5, r3
     930:	d214      	bcs.n	95c <lfs_dir_traverse+0x1ec>
     932:	22c0      	movs	r2, #192	; 0xc0
     934:	0092      	lsls	r2, r2, #2
     936:	4694      	mov	ip, r2
     938:	0309      	lsls	r1, r1, #12
     93a:	0d89      	lsrs	r1, r1, #22
     93c:	68a3      	ldr	r3, [r4, #8]
     93e:	1989      	adds	r1, r1, r6
     940:	0289      	lsls	r1, r1, #10
     942:	4319      	orrs	r1, r3
     944:	7823      	ldrb	r3, [r4, #0]
     946:	6862      	ldr	r2, [r4, #4]
     948:	4463      	add	r3, ip
     94a:	051b      	lsls	r3, r3, #20
     94c:	4319      	orrs	r1, r3
     94e:	9826      	ldr	r0, [sp, #152]	; 0x98
     950:	47b8      	blx	r7
     952:	2800      	cmp	r0, #0
     954:	d0e6      	beq.n	924 <lfs_dir_traverse+0x1b4>
     956:	e761      	b.n	81c <lfs_dir_traverse+0xac>
     958:	2000      	movs	r0, #0
     95a:	e75f      	b.n	81c <lfs_dir_traverse+0xac>
     95c:	4645      	mov	r5, r8
     95e:	9e1e      	ldr	r6, [sp, #120]	; 0x78
     960:	9f1f      	ldr	r7, [sp, #124]	; 0x7c
     962:	e724      	b.n	7ae <lfs_dir_traverse+0x3e>
     964:	2054      	movs	r0, #84	; 0x54
     966:	4240      	negs	r0, r0
     968:	e758      	b.n	81c <lfs_dir_traverse+0xac>
     96a:	46c0      	nop			; (mov r8, r8)
     96c:	7ff00000 	.word	0x7ff00000
     970:	00000000 	.word	0x00000000
     974:	600ffc00 	.word	0x600ffc00

00000978 <lfs_bd_flush>:
     978:	b5f0      	push	{r4, r5, r6, r7, lr}
     97a:	464e      	mov	r6, r9
     97c:	46de      	mov	lr, fp
     97e:	4657      	mov	r7, sl
     980:	4645      	mov	r5, r8
     982:	4693      	mov	fp, r2
     984:	2200      	movs	r2, #0
     986:	b5e0      	push	{r5, r6, r7, lr}
     988:	680e      	ldr	r6, [r1, #0]
     98a:	b08b      	sub	sp, #44	; 0x2c
     98c:	9306      	str	r3, [sp, #24]
     98e:	1cb3      	adds	r3, r6, #2
     990:	4681      	mov	r9, r0
     992:	000f      	movs	r7, r1
     994:	4690      	mov	r8, r2
     996:	2b01      	cmp	r3, #1
     998:	d967      	bls.n	a6a <lfs_bd_flush+0xf2>
     99a:	6889      	ldr	r1, [r1, #8]
     99c:	6e85      	ldr	r5, [r0, #104]	; 0x68
     99e:	468c      	mov	ip, r1
     9a0:	69aa      	ldr	r2, [r5, #24]
     9a2:	69a9      	ldr	r1, [r5, #24]
     9a4:	4462      	add	r2, ip
     9a6:	0014      	movs	r4, r2
     9a8:	3c01      	subs	r4, #1
     9aa:	0020      	movs	r0, r4
     9ac:	f7ff fffe 	bl	0 <__aeabi_uidivmod>
     9b0:	1a64      	subs	r4, r4, r1
     9b2:	9400      	str	r4, [sp, #0]
     9b4:	68aa      	ldr	r2, [r5, #8]
     9b6:	68fb      	ldr	r3, [r7, #12]
     9b8:	4692      	mov	sl, r2
     9ba:	0031      	movs	r1, r6
     9bc:	687a      	ldr	r2, [r7, #4]
     9be:	0028      	movs	r0, r5
     9c0:	47d0      	blx	sl
     9c2:	4680      	mov	r8, r0
     9c4:	2800      	cmp	r0, #0
     9c6:	d150      	bne.n	a6a <lfs_bd_flush+0xf2>
     9c8:	68fa      	ldr	r2, [r7, #12]
     9ca:	9b06      	ldr	r3, [sp, #24]
     9cc:	9205      	str	r2, [sp, #20]
     9ce:	464a      	mov	r2, r9
     9d0:	6e92      	ldr	r2, [r2, #104]	; 0x68
     9d2:	2b00      	cmp	r3, #0
     9d4:	d054      	beq.n	a80 <lfs_bd_flush+0x108>
     9d6:	2301      	movs	r3, #1
     9d8:	4659      	mov	r1, fp
     9da:	425b      	negs	r3, r3
     9dc:	600b      	str	r3, [r1, #0]
     9de:	683b      	ldr	r3, [r7, #0]
     9e0:	469a      	mov	sl, r3
     9e2:	687b      	ldr	r3, [r7, #4]
     9e4:	9306      	str	r3, [sp, #24]
     9e6:	2c00      	cmp	r4, #0
     9e8:	d04a      	beq.n	a80 <lfs_bd_flush+0x108>
     9ea:	0025      	movs	r5, r4
     9ec:	2c08      	cmp	r4, #8
     9ee:	d900      	bls.n	9f2 <lfs_bd_flush+0x7a>
     9f0:	2508      	movs	r5, #8
     9f2:	2368      	movs	r3, #104	; 0x68
     9f4:	444b      	add	r3, r9
     9f6:	9307      	str	r3, [sp, #28]
     9f8:	6a13      	ldr	r3, [r2, #32]
     9fa:	459a      	cmp	sl, r3
     9fc:	d232      	bcs.n	a64 <lfs_bd_flush+0xec>
     9fe:	9806      	ldr	r0, [sp, #24]
     a00:	69d2      	ldr	r2, [r2, #28]
     a02:	1943      	adds	r3, r0, r5
     a04:	429a      	cmp	r2, r3
     a06:	d32d      	bcc.n	a64 <lfs_bd_flush+0xec>
     a08:	003a      	movs	r2, r7
     a0a:	0023      	movs	r3, r4
     a0c:	0027      	movs	r7, r4
     a0e:	2600      	movs	r6, #0
     a10:	4654      	mov	r4, sl
     a12:	4692      	mov	sl, r2
     a14:	e012      	b.n	a3c <lfs_bd_flush+0xc4>
     a16:	464b      	mov	r3, r9
     a18:	1976      	adds	r6, r6, r5
     a1a:	6e9a      	ldr	r2, [r3, #104]	; 0x68
     a1c:	42b7      	cmp	r7, r6
     a1e:	d92c      	bls.n	a7a <lfs_bd_flush+0x102>
     a20:	1bbb      	subs	r3, r7, r6
     a22:	001d      	movs	r5, r3
     a24:	2b08      	cmp	r3, #8
     a26:	d900      	bls.n	a2a <lfs_bd_flush+0xb2>
     a28:	2508      	movs	r5, #8
     a2a:	9906      	ldr	r1, [sp, #24]
     a2c:	1988      	adds	r0, r1, r6
     a2e:	6a11      	ldr	r1, [r2, #32]
     a30:	428c      	cmp	r4, r1
     a32:	d217      	bcs.n	a64 <lfs_bd_flush+0xec>
     a34:	69d2      	ldr	r2, [r2, #28]
     a36:	1829      	adds	r1, r5, r0
     a38:	4291      	cmp	r1, r2
     a3a:	d813      	bhi.n	a64 <lfs_bd_flush+0xec>
     a3c:	aa08      	add	r2, sp, #32
     a3e:	9202      	str	r2, [sp, #8]
     a40:	9001      	str	r0, [sp, #4]
     a42:	9503      	str	r5, [sp, #12]
     a44:	9400      	str	r4, [sp, #0]
     a46:	465a      	mov	r2, fp
     a48:	2100      	movs	r1, #0
     a4a:	9807      	ldr	r0, [sp, #28]
     a4c:	f7ff fba8 	bl	1a0 <lfs_bd_read.isra.21.part.22>
     a50:	2800      	cmp	r0, #0
     a52:	d11e      	bne.n	a92 <lfs_bd_flush+0x11a>
     a54:	9b05      	ldr	r3, [sp, #20]
     a56:	002a      	movs	r2, r5
     a58:	1999      	adds	r1, r3, r6
     a5a:	a808      	add	r0, sp, #32
     a5c:	f7ff fffe 	bl	0 <memcmp>
     a60:	2800      	cmp	r0, #0
     a62:	d0d8      	beq.n	a16 <lfs_bd_flush+0x9e>
     a64:	2354      	movs	r3, #84	; 0x54
     a66:	425b      	negs	r3, r3
     a68:	4698      	mov	r8, r3
     a6a:	4640      	mov	r0, r8
     a6c:	b00b      	add	sp, #44	; 0x2c
     a6e:	bc3c      	pop	{r2, r3, r4, r5}
     a70:	4690      	mov	r8, r2
     a72:	4699      	mov	r9, r3
     a74:	46a2      	mov	sl, r4
     a76:	46ab      	mov	fp, r5
     a78:	bdf0      	pop	{r4, r5, r6, r7, pc}
     a7a:	4657      	mov	r7, sl
     a7c:	68fb      	ldr	r3, [r7, #12]
     a7e:	9305      	str	r3, [sp, #20]
     a80:	6a92      	ldr	r2, [r2, #40]	; 0x28
     a82:	21ff      	movs	r1, #255	; 0xff
     a84:	9805      	ldr	r0, [sp, #20]
     a86:	f7ff fffe 	bl	0 <memset>
     a8a:	2301      	movs	r3, #1
     a8c:	425b      	negs	r3, r3
     a8e:	603b      	str	r3, [r7, #0]
     a90:	e7eb      	b.n	a6a <lfs_bd_flush+0xf2>
     a92:	2800      	cmp	r0, #0
     a94:	dae6      	bge.n	a64 <lfs_bd_flush+0xec>
     a96:	4680      	mov	r8, r0
     a98:	e7e7      	b.n	a6a <lfs_bd_flush+0xf2>
     a9a:	46c0      	nop			; (mov r8, r8)

00000a9c <lfs_bd_prog.constprop.34>:
     a9c:	b5f0      	push	{r4, r5, r6, r7, lr}
     a9e:	46de      	mov	lr, fp
     aa0:	4657      	mov	r7, sl
     aa2:	4646      	mov	r6, r8
     aa4:	b5c0      	push	{r6, r7, lr}
     aa6:	001e      	movs	r6, r3
     aa8:	9b0a      	ldr	r3, [sp, #40]	; 0x28
     aaa:	4682      	mov	sl, r0
     aac:	000c      	movs	r4, r1
     aae:	4693      	mov	fp, r2
     ab0:	9d08      	ldr	r5, [sp, #32]
     ab2:	2b00      	cmp	r3, #0
     ab4:	d03b      	beq.n	b2e <lfs_bd_prog.constprop.34+0x92>
     ab6:	6e83      	ldr	r3, [r0, #104]	; 0x68
     ab8:	2700      	movs	r7, #0
     aba:	4698      	mov	r8, r3
     abc:	680b      	ldr	r3, [r1, #0]
     abe:	e009      	b.n	ad4 <lfs_bd_prog.constprop.34+0x38>
     ac0:	4643      	mov	r3, r8
     ac2:	6026      	str	r6, [r4, #0]
     ac4:	6999      	ldr	r1, [r3, #24]
     ac6:	0028      	movs	r0, r5
     ac8:	f7ff fffe 	bl	0 <__aeabi_uidivmod>
     acc:	0033      	movs	r3, r6
     ace:	1a69      	subs	r1, r5, r1
     ad0:	6061      	str	r1, [r4, #4]
     ad2:	60a7      	str	r7, [r4, #8]
     ad4:	42b3      	cmp	r3, r6
     ad6:	d1f3      	bne.n	ac0 <lfs_bd_prog.constprop.34+0x24>
     ad8:	6860      	ldr	r0, [r4, #4]
     ada:	42a8      	cmp	r0, r5
     adc:	d8f0      	bhi.n	ac0 <lfs_bd_prog.constprop.34+0x24>
     ade:	4643      	mov	r3, r8
     ae0:	6a9b      	ldr	r3, [r3, #40]	; 0x28
     ae2:	18c3      	adds	r3, r0, r3
     ae4:	42ab      	cmp	r3, r5
     ae6:	d9eb      	bls.n	ac0 <lfs_bd_prog.constprop.34+0x24>
     ae8:	1b5b      	subs	r3, r3, r5
     aea:	4698      	mov	r8, r3
     aec:	9b0a      	ldr	r3, [sp, #40]	; 0x28
     aee:	4598      	cmp	r8, r3
     af0:	d833      	bhi.n	b5a <lfs_bd_prog.constprop.34+0xbe>
     af2:	68e3      	ldr	r3, [r4, #12]
     af4:	1a28      	subs	r0, r5, r0
     af6:	469c      	mov	ip, r3
     af8:	4642      	mov	r2, r8
     afa:	4460      	add	r0, ip
     afc:	9909      	ldr	r1, [sp, #36]	; 0x24
     afe:	f7ff fffe 	bl	0 <memcpy>
     b02:	4642      	mov	r2, r8
     b04:	9b09      	ldr	r3, [sp, #36]	; 0x24
     b06:	4445      	add	r5, r8
     b08:	4443      	add	r3, r8
     b0a:	9309      	str	r3, [sp, #36]	; 0x24
     b0c:	9b0a      	ldr	r3, [sp, #40]	; 0x28
     b0e:	1a9b      	subs	r3, r3, r2
     b10:	930a      	str	r3, [sp, #40]	; 0x28
     b12:	68a2      	ldr	r2, [r4, #8]
     b14:	6863      	ldr	r3, [r4, #4]
     b16:	1aeb      	subs	r3, r5, r3
     b18:	4293      	cmp	r3, r2
     b1a:	d30e      	bcc.n	b3a <lfs_bd_prog.constprop.34+0x9e>
     b1c:	4652      	mov	r2, sl
     b1e:	6e92      	ldr	r2, [r2, #104]	; 0x68
     b20:	60a3      	str	r3, [r4, #8]
     b22:	6a92      	ldr	r2, [r2, #40]	; 0x28
     b24:	4293      	cmp	r3, r2
     b26:	d00f      	beq.n	b48 <lfs_bd_prog.constprop.34+0xac>
     b28:	9b0a      	ldr	r3, [sp, #40]	; 0x28
     b2a:	2b00      	cmp	r3, #0
     b2c:	d117      	bne.n	b5e <lfs_bd_prog.constprop.34+0xc2>
     b2e:	2000      	movs	r0, #0
     b30:	bc1c      	pop	{r2, r3, r4}
     b32:	4690      	mov	r8, r2
     b34:	469a      	mov	sl, r3
     b36:	46a3      	mov	fp, r4
     b38:	bdf0      	pop	{r4, r5, r6, r7, pc}
     b3a:	0013      	movs	r3, r2
     b3c:	4652      	mov	r2, sl
     b3e:	6e92      	ldr	r2, [r2, #104]	; 0x68
     b40:	60a3      	str	r3, [r4, #8]
     b42:	6a92      	ldr	r2, [r2, #40]	; 0x28
     b44:	4293      	cmp	r3, r2
     b46:	d1ef      	bne.n	b28 <lfs_bd_prog.constprop.34+0x8c>
     b48:	2301      	movs	r3, #1
     b4a:	465a      	mov	r2, fp
     b4c:	0021      	movs	r1, r4
     b4e:	4650      	mov	r0, sl
     b50:	f7ff ff12 	bl	978 <lfs_bd_flush>
     b54:	2800      	cmp	r0, #0
     b56:	d1eb      	bne.n	b30 <lfs_bd_prog.constprop.34+0x94>
     b58:	e7e6      	b.n	b28 <lfs_bd_prog.constprop.34+0x8c>
     b5a:	4698      	mov	r8, r3
     b5c:	e7c9      	b.n	af2 <lfs_bd_prog.constprop.34+0x56>
     b5e:	4653      	mov	r3, sl
     b60:	6e9b      	ldr	r3, [r3, #104]	; 0x68
     b62:	4698      	mov	r8, r3
     b64:	6823      	ldr	r3, [r4, #0]
     b66:	e7b5      	b.n	ad4 <lfs_bd_prog.constprop.34+0x38>

00000b68 <lfs_dir_commitprog>:
     b68:	b5f0      	push	{r4, r5, r6, r7, lr}
     b6a:	46de      	mov	lr, fp
     b6c:	469b      	mov	fp, r3
     b6e:	4657      	mov	r7, sl
     b70:	464e      	mov	r6, r9
     b72:	4645      	mov	r5, r8
     b74:	680b      	ldr	r3, [r1, #0]
     b76:	b5e0      	push	{r5, r6, r7, lr}
     b78:	469a      	mov	sl, r3
     b7a:	465b      	mov	r3, fp
     b7c:	b089      	sub	sp, #36	; 0x24
     b7e:	0004      	movs	r4, r0
     b80:	000e      	movs	r6, r1
     b82:	9203      	str	r2, [sp, #12]
     b84:	684d      	ldr	r5, [r1, #4]
     b86:	2b00      	cmp	r3, #0
     b88:	d035      	beq.n	bf6 <lfs_dir_commitprog+0x8e>
     b8a:	4691      	mov	r9, r2
     b8c:	46d8      	mov	r8, fp
     b8e:	6ea7      	ldr	r7, [r4, #104]	; 0x68
     b90:	e009      	b.n	ba6 <lfs_dir_commitprog+0x3e>
     b92:	4653      	mov	r3, sl
     b94:	69b9      	ldr	r1, [r7, #24]
     b96:	6123      	str	r3, [r4, #16]
     b98:	0028      	movs	r0, r5
     b9a:	f7ff fffe 	bl	0 <__aeabi_uidivmod>
     b9e:	2300      	movs	r3, #0
     ba0:	1a69      	subs	r1, r5, r1
     ba2:	6161      	str	r1, [r4, #20]
     ba4:	61a3      	str	r3, [r4, #24]
     ba6:	6923      	ldr	r3, [r4, #16]
     ba8:	459a      	cmp	sl, r3
     baa:	d1f2      	bne.n	b92 <lfs_dir_commitprog+0x2a>
     bac:	6960      	ldr	r0, [r4, #20]
     bae:	42a8      	cmp	r0, r5
     bb0:	d8ef      	bhi.n	b92 <lfs_dir_commitprog+0x2a>
     bb2:	6abb      	ldr	r3, [r7, #40]	; 0x28
     bb4:	18c3      	adds	r3, r0, r3
     bb6:	42ab      	cmp	r3, r5
     bb8:	d9eb      	bls.n	b92 <lfs_dir_commitprog+0x2a>
     bba:	1b5f      	subs	r7, r3, r5
     bbc:	4547      	cmp	r7, r8
     bbe:	d857      	bhi.n	c70 <lfs_dir_commitprog+0x108>
     bc0:	69e3      	ldr	r3, [r4, #28]
     bc2:	1a28      	subs	r0, r5, r0
     bc4:	469c      	mov	ip, r3
     bc6:	4649      	mov	r1, r9
     bc8:	4460      	add	r0, ip
     bca:	003a      	movs	r2, r7
     bcc:	f7ff fffe 	bl	0 <memcpy>
     bd0:	4643      	mov	r3, r8
     bd2:	1bdb      	subs	r3, r3, r7
     bd4:	4698      	mov	r8, r3
     bd6:	69a1      	ldr	r1, [r4, #24]
     bd8:	6963      	ldr	r3, [r4, #20]
     bda:	19ed      	adds	r5, r5, r7
     bdc:	9304      	str	r3, [sp, #16]
     bde:	44b9      	add	r9, r7
     be0:	1aeb      	subs	r3, r5, r3
     be2:	4299      	cmp	r1, r3
     be4:	d318      	bcc.n	c18 <lfs_dir_commitprog+0xb0>
     be6:	6ea7      	ldr	r7, [r4, #104]	; 0x68
     be8:	61a1      	str	r1, [r4, #24]
     bea:	6abb      	ldr	r3, [r7, #40]	; 0x28
     bec:	4299      	cmp	r1, r3
     bee:	d019      	beq.n	c24 <lfs_dir_commitprog+0xbc>
     bf0:	4643      	mov	r3, r8
     bf2:	2b00      	cmp	r3, #0
     bf4:	d1cb      	bne.n	b8e <lfs_dir_commitprog+0x26>
     bf6:	465a      	mov	r2, fp
     bf8:	9903      	ldr	r1, [sp, #12]
     bfa:	68f0      	ldr	r0, [r6, #12]
     bfc:	f7ff fffe 	bl	0 <lfs_crc>
     c00:	60f0      	str	r0, [r6, #12]
     c02:	2000      	movs	r0, #0
     c04:	6873      	ldr	r3, [r6, #4]
     c06:	445b      	add	r3, fp
     c08:	6073      	str	r3, [r6, #4]
     c0a:	b009      	add	sp, #36	; 0x24
     c0c:	bc3c      	pop	{r2, r3, r4, r5}
     c0e:	4690      	mov	r8, r2
     c10:	4699      	mov	r9, r3
     c12:	46a2      	mov	sl, r4
     c14:	46ab      	mov	fp, r5
     c16:	bdf0      	pop	{r4, r5, r6, r7, pc}
     c18:	0019      	movs	r1, r3
     c1a:	6ea7      	ldr	r7, [r4, #104]	; 0x68
     c1c:	61a1      	str	r1, [r4, #24]
     c1e:	6abb      	ldr	r3, [r7, #40]	; 0x28
     c20:	4299      	cmp	r1, r3
     c22:	d1e5      	bne.n	bf0 <lfs_dir_commitprog+0x88>
     c24:	6923      	ldr	r3, [r4, #16]
     c26:	9305      	str	r3, [sp, #20]
     c28:	3302      	adds	r3, #2
     c2a:	2b01      	cmp	r3, #1
     c2c:	d9e0      	bls.n	bf0 <lfs_dir_commitprog+0x88>
     c2e:	69ba      	ldr	r2, [r7, #24]
     c30:	69e0      	ldr	r0, [r4, #28]
     c32:	1e53      	subs	r3, r2, #1
     c34:	185a      	adds	r2, r3, r1
     c36:	9007      	str	r0, [sp, #28]
     c38:	69b9      	ldr	r1, [r7, #24]
     c3a:	0010      	movs	r0, r2
     c3c:	9206      	str	r2, [sp, #24]
     c3e:	f7ff fffe 	bl	0 <__aeabi_uidivmod>
     c42:	9a06      	ldr	r2, [sp, #24]
     c44:	0038      	movs	r0, r7
     c46:	1a51      	subs	r1, r2, r1
     c48:	9100      	str	r1, [sp, #0]
     c4a:	68ba      	ldr	r2, [r7, #8]
     c4c:	9b07      	ldr	r3, [sp, #28]
     c4e:	9206      	str	r2, [sp, #24]
     c50:	9905      	ldr	r1, [sp, #20]
     c52:	9a04      	ldr	r2, [sp, #16]
     c54:	9f06      	ldr	r7, [sp, #24]
     c56:	47b8      	blx	r7
     c58:	2800      	cmp	r0, #0
     c5a:	d1d6      	bne.n	c0a <lfs_dir_commitprog+0xa2>
     c5c:	6ea3      	ldr	r3, [r4, #104]	; 0x68
     c5e:	21ff      	movs	r1, #255	; 0xff
     c60:	6a9a      	ldr	r2, [r3, #40]	; 0x28
     c62:	69e0      	ldr	r0, [r4, #28]
     c64:	f7ff fffe 	bl	0 <memset>
     c68:	2301      	movs	r3, #1
     c6a:	425b      	negs	r3, r3
     c6c:	6123      	str	r3, [r4, #16]
     c6e:	e7bf      	b.n	bf0 <lfs_dir_commitprog+0x88>
     c70:	4647      	mov	r7, r8
     c72:	e7a5      	b.n	bc0 <lfs_dir_commitprog+0x58>

00000c74 <lfs_dir_commitattr>:
     c74:	b5f0      	push	{r4, r5, r6, r7, lr}
     c76:	4657      	mov	r7, sl
     c78:	464e      	mov	r6, r9
     c7a:	4645      	mov	r5, r8
     c7c:	46de      	mov	lr, fp
     c7e:	469a      	mov	sl, r3
     c80:	0593      	lsls	r3, r2, #22
     c82:	159b      	asrs	r3, r3, #22
     c84:	3301      	adds	r3, #1
     c86:	b5e0      	push	{r5, r6, r7, lr}
     c88:	0015      	movs	r5, r2
     c8a:	425a      	negs	r2, r3
     c8c:	4153      	adcs	r3, r2
     c8e:	195b      	adds	r3, r3, r5
     c90:	059b      	lsls	r3, r3, #22
     c92:	0d9f      	lsrs	r7, r3, #22
     c94:	46bc      	mov	ip, r7
     c96:	684b      	ldr	r3, [r1, #4]
     c98:	694a      	ldr	r2, [r1, #20]
     c9a:	3304      	adds	r3, #4
     c9c:	b08d      	sub	sp, #52	; 0x34
     c9e:	4463      	add	r3, ip
     ca0:	0004      	movs	r4, r0
     ca2:	000e      	movs	r6, r1
     ca4:	9707      	str	r7, [sp, #28]
     ca6:	4293      	cmp	r3, r2
     ca8:	d900      	bls.n	cac <lfs_dir_commitattr+0x38>
     caa:	e0ce      	b.n	e4a <lfs_dir_commitattr+0x1d6>
     cac:	006b      	lsls	r3, r5, #1
     cae:	085b      	lsrs	r3, r3, #1
     cb0:	001a      	movs	r2, r3
     cb2:	9309      	str	r3, [sp, #36]	; 0x24
     cb4:	688b      	ldr	r3, [r1, #8]
     cb6:	4053      	eors	r3, r2
     cb8:	ba1b      	rev	r3, r3
     cba:	930b      	str	r3, [sp, #44]	; 0x2c
     cbc:	aa0b      	add	r2, sp, #44	; 0x2c
     cbe:	2304      	movs	r3, #4
     cc0:	f7ff ff52 	bl	b68 <lfs_dir_commitprog>
     cc4:	9008      	str	r0, [sp, #32]
     cc6:	2800      	cmp	r0, #0
     cc8:	d000      	beq.n	ccc <lfs_dir_commitattr+0x58>
     cca:	e089      	b.n	de0 <lfs_dir_commitattr+0x16c>
     ccc:	2d00      	cmp	r5, #0
     cce:	db00      	blt.n	cd2 <lfs_dir_commitattr+0x5e>
     cd0:	e08e      	b.n	df0 <lfs_dir_commitattr+0x17c>
     cd2:	9d07      	ldr	r5, [sp, #28]
     cd4:	2d00      	cmp	r5, #0
     cd6:	d100      	bne.n	cda <lfs_dir_commitattr+0x66>
     cd8:	e092      	b.n	e00 <lfs_dir_commitattr+0x18c>
     cda:	2268      	movs	r2, #104	; 0x68
     cdc:	4694      	mov	ip, r2
     cde:	44a4      	add	ip, r4
     ce0:	4653      	mov	r3, sl
     ce2:	4662      	mov	r2, ip
     ce4:	6ea0      	ldr	r0, [r4, #104]	; 0x68
     ce6:	6819      	ldr	r1, [r3, #0]
     ce8:	9206      	str	r2, [sp, #24]
     cea:	6a02      	ldr	r2, [r0, #32]
     cec:	685b      	ldr	r3, [r3, #4]
     cee:	4291      	cmp	r1, r2
     cf0:	d273      	bcs.n	dda <lfs_dir_commitattr+0x166>
     cf2:	69c0      	ldr	r0, [r0, #28]
     cf4:	1c5a      	adds	r2, r3, #1
     cf6:	4290      	cmp	r0, r2
     cf8:	d36f      	bcc.n	dda <lfs_dir_commitattr+0x166>
     cfa:	46ab      	mov	fp, r5
     cfc:	2201      	movs	r2, #1
     cfe:	a806      	add	r0, sp, #24
     d00:	4684      	mov	ip, r0
     d02:	9203      	str	r2, [sp, #12]
     d04:	3212      	adds	r2, #18
     d06:	4462      	add	r2, ip
     d08:	9202      	str	r2, [sp, #8]
     d0a:	9301      	str	r3, [sp, #4]
     d0c:	9100      	str	r1, [sp, #0]
     d0e:	465b      	mov	r3, fp
     d10:	0022      	movs	r2, r4
     d12:	2100      	movs	r1, #0
     d14:	9806      	ldr	r0, [sp, #24]
     d16:	f7ff fa43 	bl	1a0 <lfs_bd_read.isra.21.part.22>
     d1a:	2800      	cmp	r0, #0
     d1c:	d15f      	bne.n	dde <lfs_dir_commitattr+0x16a>
     d1e:	6ea2      	ldr	r2, [r4, #104]	; 0x68
     d20:	6837      	ldr	r7, [r6, #0]
     d22:	4691      	mov	r9, r2
     d24:	6a92      	ldr	r2, [r2, #40]	; 0x28
     d26:	6875      	ldr	r5, [r6, #4]
     d28:	4690      	mov	r8, r2
     d2a:	69e2      	ldr	r2, [r4, #28]
     d2c:	6923      	ldr	r3, [r4, #16]
     d2e:	9205      	str	r2, [sp, #20]
     d30:	e00a      	b.n	d48 <lfs_dir_commitattr+0xd4>
     d32:	464b      	mov	r3, r9
     d34:	6127      	str	r7, [r4, #16]
     d36:	6999      	ldr	r1, [r3, #24]
     d38:	0028      	movs	r0, r5
     d3a:	f7ff fffe 	bl	0 <__aeabi_uidivmod>
     d3e:	2300      	movs	r3, #0
     d40:	61a3      	str	r3, [r4, #24]
     d42:	003b      	movs	r3, r7
     d44:	1a69      	subs	r1, r5, r1
     d46:	6161      	str	r1, [r4, #20]
     d48:	429f      	cmp	r7, r3
     d4a:	d1f2      	bne.n	d32 <lfs_dir_commitattr+0xbe>
     d4c:	6960      	ldr	r0, [r4, #20]
     d4e:	4285      	cmp	r5, r0
     d50:	d3ef      	bcc.n	d32 <lfs_dir_commitattr+0xbe>
     d52:	4643      	mov	r3, r8
     d54:	18c1      	adds	r1, r0, r3
     d56:	428d      	cmp	r5, r1
     d58:	d2eb      	bcs.n	d32 <lfs_dir_commitattr+0xbe>
     d5a:	1b4f      	subs	r7, r1, r5
     d5c:	d000      	beq.n	d60 <lfs_dir_commitattr+0xec>
     d5e:	2701      	movs	r7, #1
     d60:	9b05      	ldr	r3, [sp, #20]
     d62:	1a28      	subs	r0, r5, r0
     d64:	469c      	mov	ip, r3
     d66:	a906      	add	r1, sp, #24
     d68:	4460      	add	r0, ip
     d6a:	2313      	movs	r3, #19
     d6c:	468c      	mov	ip, r1
     d6e:	4463      	add	r3, ip
     d70:	0019      	movs	r1, r3
     d72:	003a      	movs	r2, r7
     d74:	f7ff fffe 	bl	0 <memcpy>
     d78:	6963      	ldr	r3, [r4, #20]
     d7a:	1aed      	subs	r5, r5, r3
     d7c:	4698      	mov	r8, r3
     d7e:	69a3      	ldr	r3, [r4, #24]
     d80:	19ed      	adds	r5, r5, r7
     d82:	429d      	cmp	r5, r3
     d84:	d200      	bcs.n	d88 <lfs_dir_commitattr+0x114>
     d86:	001d      	movs	r5, r3
     d88:	6ea7      	ldr	r7, [r4, #104]	; 0x68
     d8a:	61a5      	str	r5, [r4, #24]
     d8c:	6abb      	ldr	r3, [r7, #40]	; 0x28
     d8e:	429d      	cmp	r5, r3
     d90:	d039      	beq.n	e06 <lfs_dir_commitattr+0x192>
     d92:	a906      	add	r1, sp, #24
     d94:	468c      	mov	ip, r1
     d96:	2313      	movs	r3, #19
     d98:	4463      	add	r3, ip
     d9a:	2201      	movs	r2, #1
     d9c:	0019      	movs	r1, r3
     d9e:	68f0      	ldr	r0, [r6, #12]
     da0:	f7ff fffe 	bl	0 <lfs_crc>
     da4:	465a      	mov	r2, fp
     da6:	6873      	ldr	r3, [r6, #4]
     da8:	60f0      	str	r0, [r6, #12]
     daa:	3301      	adds	r3, #1
     dac:	6073      	str	r3, [r6, #4]
     dae:	9b07      	ldr	r3, [sp, #28]
     db0:	3301      	adds	r3, #1
     db2:	1a9b      	subs	r3, r3, r2
     db4:	2a01      	cmp	r2, #1
     db6:	d023      	beq.n	e00 <lfs_dir_commitattr+0x18c>
     db8:	4652      	mov	r2, sl
     dba:	6811      	ldr	r1, [r2, #0]
     dbc:	6852      	ldr	r2, [r2, #4]
     dbe:	6ea0      	ldr	r0, [r4, #104]	; 0x68
     dc0:	4694      	mov	ip, r2
     dc2:	6a02      	ldr	r2, [r0, #32]
     dc4:	4463      	add	r3, ip
     dc6:	4291      	cmp	r1, r2
     dc8:	d207      	bcs.n	dda <lfs_dir_commitattr+0x166>
     dca:	2201      	movs	r2, #1
     dcc:	4252      	negs	r2, r2
     dce:	4694      	mov	ip, r2
     dd0:	69c0      	ldr	r0, [r0, #28]
     dd2:	1c5a      	adds	r2, r3, #1
     dd4:	44e3      	add	fp, ip
     dd6:	4282      	cmp	r2, r0
     dd8:	d990      	bls.n	cfc <lfs_dir_commitattr+0x88>
     dda:	2054      	movs	r0, #84	; 0x54
     ddc:	4240      	negs	r0, r0
     dde:	9008      	str	r0, [sp, #32]
     de0:	9808      	ldr	r0, [sp, #32]
     de2:	b00d      	add	sp, #52	; 0x34
     de4:	bc3c      	pop	{r2, r3, r4, r5}
     de6:	4690      	mov	r8, r2
     de8:	4699      	mov	r9, r3
     dea:	46a2      	mov	sl, r4
     dec:	46ab      	mov	fp, r5
     dee:	bdf0      	pop	{r4, r5, r6, r7, pc}
     df0:	003b      	movs	r3, r7
     df2:	4652      	mov	r2, sl
     df4:	0031      	movs	r1, r6
     df6:	0020      	movs	r0, r4
     df8:	f7ff feb6 	bl	b68 <lfs_dir_commitprog>
     dfc:	2800      	cmp	r0, #0
     dfe:	d1ee      	bne.n	dde <lfs_dir_commitattr+0x16a>
     e00:	9b09      	ldr	r3, [sp, #36]	; 0x24
     e02:	60b3      	str	r3, [r6, #8]
     e04:	e7ec      	b.n	de0 <lfs_dir_commitattr+0x16c>
     e06:	6923      	ldr	r3, [r4, #16]
     e08:	4699      	mov	r9, r3
     e0a:	3302      	adds	r3, #2
     e0c:	2b01      	cmp	r3, #1
     e0e:	d9c0      	bls.n	d92 <lfs_dir_commitattr+0x11e>
     e10:	69bb      	ldr	r3, [r7, #24]
     e12:	1e59      	subs	r1, r3, #1
     e14:	194d      	adds	r5, r1, r5
     e16:	69e3      	ldr	r3, [r4, #28]
     e18:	69b9      	ldr	r1, [r7, #24]
     e1a:	0028      	movs	r0, r5
     e1c:	9305      	str	r3, [sp, #20]
     e1e:	f7ff fffe 	bl	0 <__aeabi_uidivmod>
     e22:	1a6d      	subs	r5, r5, r1
     e24:	9500      	str	r5, [sp, #0]
     e26:	68bd      	ldr	r5, [r7, #8]
     e28:	9b05      	ldr	r3, [sp, #20]
     e2a:	4642      	mov	r2, r8
     e2c:	4649      	mov	r1, r9
     e2e:	0038      	movs	r0, r7
     e30:	47a8      	blx	r5
     e32:	2800      	cmp	r0, #0
     e34:	d1d3      	bne.n	dde <lfs_dir_commitattr+0x16a>
     e36:	6ea3      	ldr	r3, [r4, #104]	; 0x68
     e38:	21ff      	movs	r1, #255	; 0xff
     e3a:	6a9a      	ldr	r2, [r3, #40]	; 0x28
     e3c:	69e0      	ldr	r0, [r4, #28]
     e3e:	f7ff fffe 	bl	0 <memset>
     e42:	2301      	movs	r3, #1
     e44:	425b      	negs	r3, r3
     e46:	6123      	str	r3, [r4, #16]
     e48:	e7a3      	b.n	d92 <lfs_dir_commitattr+0x11e>
     e4a:	231c      	movs	r3, #28
     e4c:	425b      	negs	r3, r3
     e4e:	9308      	str	r3, [sp, #32]
     e50:	e7c6      	b.n	de0 <lfs_dir_commitattr+0x16c>
     e52:	46c0      	nop			; (mov r8, r8)

00000e54 <lfs_dir_commit_commit>:
     e54:	b510      	push	{r4, lr}
     e56:	000c      	movs	r4, r1
     e58:	0013      	movs	r3, r2
     e5a:	6841      	ldr	r1, [r0, #4]
     e5c:	0022      	movs	r2, r4
     e5e:	6800      	ldr	r0, [r0, #0]
     e60:	f7ff ff08 	bl	c74 <lfs_dir_commitattr>
     e64:	bd10      	pop	{r4, pc}
     e66:	46c0      	nop			; (mov r8, r8)

00000e68 <lfs_dir_fetchmatch>:
     e68:	b5f0      	push	{r4, r5, r6, r7, lr}
     e6a:	46de      	mov	lr, fp
     e6c:	464e      	mov	r6, r9
     e6e:	4645      	mov	r5, r8
     e70:	4657      	mov	r7, sl
     e72:	b5e0      	push	{r5, r6, r7, lr}
     e74:	0014      	movs	r4, r2
     e76:	6815      	ldr	r5, [r2, #0]
     e78:	6e82      	ldr	r2, [r0, #104]	; 0x68
     e7a:	468b      	mov	fp, r1
     e7c:	6a11      	ldr	r1, [r2, #32]
     e7e:	b099      	sub	sp, #100	; 0x64
     e80:	0006      	movs	r6, r0
     e82:	9309      	str	r3, [sp, #36]	; 0x24
     e84:	428d      	cmp	r5, r1
     e86:	d300      	bcc.n	e8a <lfs_dir_fetchmatch+0x22>
     e88:	e288      	b.n	139c <lfs_dir_fetchmatch+0x534>
     e8a:	6863      	ldr	r3, [r4, #4]
     e8c:	4299      	cmp	r1, r3
     e8e:	d800      	bhi.n	e92 <lfs_dir_fetchmatch+0x2a>
     e90:	e284      	b.n	139c <lfs_dir_fetchmatch+0x534>
     e92:	2100      	movs	r1, #0
     e94:	2000      	movs	r0, #0
     e96:	9012      	str	r0, [sp, #72]	; 0x48
     e98:	9113      	str	r1, [sp, #76]	; 0x4c
     e9a:	2168      	movs	r1, #104	; 0x68
     e9c:	468a      	mov	sl, r1
     e9e:	69d2      	ldr	r2, [r2, #28]
     ea0:	44b2      	add	sl, r6
     ea2:	2a03      	cmp	r2, #3
     ea4:	d800      	bhi.n	ea8 <lfs_dir_fetchmatch+0x40>
     ea6:	e28e      	b.n	13c6 <lfs_dir_fetchmatch+0x55e>
     ea8:	2304      	movs	r3, #4
     eaa:	9303      	str	r3, [sp, #12]
     eac:	ab12      	add	r3, sp, #72	; 0x48
     eae:	9307      	str	r3, [sp, #28]
     eb0:	9302      	str	r3, [sp, #8]
     eb2:	2300      	movs	r3, #0
     eb4:	9500      	str	r5, [sp, #0]
     eb6:	9301      	str	r3, [sp, #4]
     eb8:	0032      	movs	r2, r6
     eba:	3304      	adds	r3, #4
     ebc:	2100      	movs	r1, #0
     ebe:	4650      	mov	r0, sl
     ec0:	f7ff f96e 	bl	1a0 <lfs_bd_read.isra.21.part.22>
     ec4:	1e07      	subs	r7, r0, #0
     ec6:	d000      	beq.n	eca <lfs_dir_fetchmatch+0x62>
     ec8:	e18d      	b.n	11e6 <lfs_dir_fetchmatch+0x37e>
     eca:	6863      	ldr	r3, [r4, #4]
     ecc:	6eb2      	ldr	r2, [r6, #104]	; 0x68
     ece:	6a11      	ldr	r1, [r2, #32]
     ed0:	428b      	cmp	r3, r1
     ed2:	d300      	bcc.n	ed6 <lfs_dir_fetchmatch+0x6e>
     ed4:	e18f      	b.n	11f6 <lfs_dir_fetchmatch+0x38e>
     ed6:	69d2      	ldr	r2, [r2, #28]
     ed8:	2a03      	cmp	r2, #3
     eda:	d800      	bhi.n	ede <lfs_dir_fetchmatch+0x76>
     edc:	e18b      	b.n	11f6 <lfs_dir_fetchmatch+0x38e>
     ede:	2204      	movs	r2, #4
     ee0:	9203      	str	r2, [sp, #12]
     ee2:	aa13      	add	r2, sp, #76	; 0x4c
     ee4:	9202      	str	r2, [sp, #8]
     ee6:	2200      	movs	r2, #0
     ee8:	9300      	str	r3, [sp, #0]
     eea:	9201      	str	r2, [sp, #4]
     eec:	2304      	movs	r3, #4
     eee:	0032      	movs	r2, r6
     ef0:	2100      	movs	r1, #0
     ef2:	4650      	mov	r0, sl
     ef4:	f7ff f954 	bl	1a0 <lfs_bd_read.isra.21.part.22>
     ef8:	1e07      	subs	r7, r0, #0
     efa:	d000      	beq.n	efe <lfs_dir_fetchmatch+0x96>
     efc:	e178      	b.n	11f0 <lfs_dir_fetchmatch+0x388>
     efe:	9b07      	ldr	r3, [sp, #28]
     f00:	9a12      	ldr	r2, [sp, #72]	; 0x48
     f02:	685b      	ldr	r3, [r3, #4]
     f04:	1a9a      	subs	r2, r3, r2
     f06:	9304      	str	r3, [sp, #16]
     f08:	17d3      	asrs	r3, r2, #31
     f0a:	1a9b      	subs	r3, r3, r2
     f0c:	0fdb      	lsrs	r3, r3, #31
     f0e:	4659      	mov	r1, fp
     f10:	009a      	lsls	r2, r3, #2
     f12:	5910      	ldr	r0, [r2, r4]
     f14:	6008      	str	r0, [r1, #0]
     f16:	2101      	movs	r1, #1
     f18:	404b      	eors	r3, r1
     f1a:	4659      	mov	r1, fp
     f1c:	009b      	lsls	r3, r3, #2
     f1e:	930c      	str	r3, [sp, #48]	; 0x30
     f20:	58e3      	ldr	r3, [r4, r3]
     f22:	604b      	str	r3, [r1, #4]
     f24:	465b      	mov	r3, fp
     f26:	9907      	ldr	r1, [sp, #28]
     f28:	588a      	ldr	r2, [r1, r2]
     f2a:	609a      	str	r2, [r3, #8]
     f2c:	465a      	mov	r2, fp
     f2e:	2300      	movs	r3, #0
     f30:	60d3      	str	r3, [r2, #12]
     f32:	3308      	adds	r3, #8
     f34:	445b      	add	r3, fp
     f36:	930b      	str	r3, [sp, #44]	; 0x2c
     f38:	2302      	movs	r3, #2
     f3a:	46d3      	mov	fp, sl
     f3c:	4692      	mov	sl, r2
     f3e:	9308      	str	r3, [sp, #32]
     f40:	3b03      	subs	r3, #3
     f42:	930a      	str	r3, [sp, #40]	; 0x28
     f44:	4ac7      	ldr	r2, [pc, #796]	; (1264 <lfs_dir_fetchmatch+0x3fc>)
     f46:	ab14      	add	r3, sp, #80	; 0x50
     f48:	ca03      	ldmia	r2!, {r0, r1}
     f4a:	c303      	stmia	r3!, {r0, r1}
     f4c:	2001      	movs	r0, #1
     f4e:	2204      	movs	r2, #4
     f50:	990b      	ldr	r1, [sp, #44]	; 0x2c
     f52:	4240      	negs	r0, r0
     f54:	f7ff fffe 	bl	0 <lfs_crc>
     f58:	4653      	mov	r3, sl
     f5a:	681a      	ldr	r2, [r3, #0]
     f5c:	9b0a      	ldr	r3, [sp, #40]	; 0x28
     f5e:	2401      	movs	r4, #1
     f60:	9306      	str	r3, [sp, #24]
     f62:	2300      	movs	r3, #0
     f64:	4699      	mov	r9, r3
     f66:	900f      	str	r0, [sp, #60]	; 0x3c
     f68:	930d      	str	r3, [sp, #52]	; 0x34
     f6a:	9305      	str	r3, [sp, #20]
     f6c:	4264      	negs	r4, r4
     f6e:	05a3      	lsls	r3, r4, #22
     f70:	159b      	asrs	r3, r3, #22
     f72:	3301      	adds	r3, #1
     f74:	4259      	negs	r1, r3
     f76:	414b      	adcs	r3, r1
     f78:	191b      	adds	r3, r3, r4
     f7a:	059b      	lsls	r3, r3, #22
     f7c:	6eb1      	ldr	r1, [r6, #104]	; 0x68
     f7e:	0d9b      	lsrs	r3, r3, #22
     f80:	3304      	adds	r3, #4
     f82:	4499      	add	r9, r3
     f84:	69cb      	ldr	r3, [r1, #28]
     f86:	6a09      	ldr	r1, [r1, #32]
     f88:	4291      	cmp	r1, r2
     f8a:	d800      	bhi.n	f8e <lfs_dir_fetchmatch+0x126>
     f8c:	e0c9      	b.n	1122 <lfs_dir_fetchmatch+0x2ba>
     f8e:	4649      	mov	r1, r9
     f90:	3104      	adds	r1, #4
     f92:	9104      	str	r1, [sp, #16]
     f94:	428b      	cmp	r3, r1
     f96:	d200      	bcs.n	f9a <lfs_dir_fetchmatch+0x132>
     f98:	e0c3      	b.n	1122 <lfs_dir_fetchmatch+0x2ba>
     f9a:	2104      	movs	r1, #4
     f9c:	9103      	str	r1, [sp, #12]
     f9e:	a910      	add	r1, sp, #64	; 0x40
     fa0:	9102      	str	r1, [sp, #8]
     fa2:	4649      	mov	r1, r9
     fa4:	9200      	str	r2, [sp, #0]
     fa6:	9101      	str	r1, [sp, #4]
     fa8:	0032      	movs	r2, r6
     faa:	2100      	movs	r1, #0
     fac:	4658      	mov	r0, fp
     fae:	f7ff f8f7 	bl	1a0 <lfs_bd_read.isra.21.part.22>
     fb2:	1e07      	subs	r7, r0, #0
     fb4:	d000      	beq.n	fb8 <lfs_dir_fetchmatch+0x150>
     fb6:	e226      	b.n	1406 <lfs_dir_fetchmatch+0x59e>
     fb8:	2204      	movs	r2, #4
     fba:	a910      	add	r1, sp, #64	; 0x40
     fbc:	980f      	ldr	r0, [sp, #60]	; 0x3c
     fbe:	f7ff fffe 	bl	0 <lfs_crc>
     fc2:	9b10      	ldr	r3, [sp, #64]	; 0x40
     fc4:	900f      	str	r0, [sp, #60]	; 0x3c
     fc6:	ba1b      	rev	r3, r3
     fc8:	4063      	eors	r3, r4
     fca:	4698      	mov	r8, r3
     fcc:	9310      	str	r3, [sp, #64]	; 0x40
     fce:	d500      	bpl.n	fd2 <lfs_dir_fetchmatch+0x16a>
     fd0:	e190      	b.n	12f4 <lfs_dir_fetchmatch+0x48c>
     fd2:	0599      	lsls	r1, r3, #22
     fd4:	1589      	asrs	r1, r1, #22
     fd6:	3101      	adds	r1, #1
     fd8:	424b      	negs	r3, r1
     fda:	4159      	adcs	r1, r3
     fdc:	464a      	mov	r2, r9
     fde:	4441      	add	r1, r8
     fe0:	0589      	lsls	r1, r1, #22
     fe2:	6eb5      	ldr	r5, [r6, #104]	; 0x68
     fe4:	0d89      	lsrs	r1, r1, #22
     fe6:	3104      	adds	r1, #4
     fe8:	69eb      	ldr	r3, [r5, #28]
     fea:	188a      	adds	r2, r1, r2
     fec:	429a      	cmp	r2, r3
     fee:	d900      	bls.n	ff2 <lfs_dir_fetchmatch+0x18a>
     ff0:	e196      	b.n	1320 <lfs_dir_fetchmatch+0x4b8>
     ff2:	4642      	mov	r2, r8
     ff4:	20e0      	movs	r0, #224	; 0xe0
     ff6:	0d14      	lsrs	r4, r2, #20
     ff8:	27a0      	movs	r7, #160	; 0xa0
     ffa:	4652      	mov	r2, sl
     ffc:	00c0      	lsls	r0, r0, #3
     ffe:	4020      	ands	r0, r4
    1000:	6812      	ldr	r2, [r2, #0]
    1002:	00ff      	lsls	r7, r7, #3
    1004:	42b8      	cmp	r0, r7
    1006:	d071      	beq.n	10ec <lfs_dir_fetchmatch+0x284>
    1008:	2904      	cmp	r1, #4
    100a:	d100      	bne.n	100e <lfs_dir_fetchmatch+0x1a6>
    100c:	e170      	b.n	12f0 <lfs_dir_fetchmatch+0x488>
    100e:	6a29      	ldr	r1, [r5, #32]
    1010:	4291      	cmp	r1, r2
    1012:	d800      	bhi.n	1016 <lfs_dir_fetchmatch+0x1ae>
    1014:	e188      	b.n	1328 <lfs_dir_fetchmatch+0x4c0>
    1016:	4649      	mov	r1, r9
    1018:	3105      	adds	r1, #5
    101a:	428b      	cmp	r3, r1
    101c:	d200      	bcs.n	1020 <lfs_dir_fetchmatch+0x1b8>
    101e:	e183      	b.n	1328 <lfs_dir_fetchmatch+0x4c0>
    1020:	2101      	movs	r1, #1
    1022:	4648      	mov	r0, r9
    1024:	1a09      	subs	r1, r1, r0
    1026:	465f      	mov	r7, fp
    1028:	9c04      	ldr	r4, [sp, #16]
    102a:	ad11      	add	r5, sp, #68	; 0x44
    102c:	468b      	mov	fp, r1
    102e:	e00d      	b.n	104c <lfs_dir_fetchmatch+0x1e4>
    1030:	4652      	mov	r2, sl
    1032:	6eb0      	ldr	r0, [r6, #104]	; 0x68
    1034:	6812      	ldr	r2, [r2, #0]
    1036:	69c3      	ldr	r3, [r0, #28]
    1038:	6a00      	ldr	r0, [r0, #32]
    103a:	4282      	cmp	r2, r0
    103c:	d300      	bcc.n	1040 <lfs_dir_fetchmatch+0x1d8>
    103e:	e10a      	b.n	1256 <lfs_dir_fetchmatch+0x3ee>
    1040:	1c60      	adds	r0, r4, #1
    1042:	3402      	adds	r4, #2
    1044:	42a3      	cmp	r3, r4
    1046:	d200      	bcs.n	104a <lfs_dir_fetchmatch+0x1e2>
    1048:	e105      	b.n	1256 <lfs_dir_fetchmatch+0x3ee>
    104a:	0004      	movs	r4, r0
    104c:	2101      	movs	r1, #1
    104e:	9200      	str	r2, [sp, #0]
    1050:	9103      	str	r1, [sp, #12]
    1052:	9502      	str	r5, [sp, #8]
    1054:	9401      	str	r4, [sp, #4]
    1056:	0032      	movs	r2, r6
    1058:	2100      	movs	r1, #0
    105a:	0038      	movs	r0, r7
    105c:	f7ff f8a0 	bl	1a0 <lfs_bd_read.isra.21.part.22>
    1060:	2800      	cmp	r0, #0
    1062:	d000      	beq.n	1066 <lfs_dir_fetchmatch+0x1fe>
    1064:	e0af      	b.n	11c6 <lfs_dir_fetchmatch+0x35e>
    1066:	2201      	movs	r2, #1
    1068:	0029      	movs	r1, r5
    106a:	980f      	ldr	r0, [sp, #60]	; 0x3c
    106c:	f7ff fffe 	bl	0 <lfs_crc>
    1070:	9910      	ldr	r1, [sp, #64]	; 0x40
    1072:	900f      	str	r0, [sp, #60]	; 0x3c
    1074:	058b      	lsls	r3, r1, #22
    1076:	159b      	asrs	r3, r3, #22
    1078:	3301      	adds	r3, #1
    107a:	425a      	negs	r2, r3
    107c:	4153      	adcs	r3, r2
    107e:	465a      	mov	r2, fp
    1080:	185b      	adds	r3, r3, r1
    1082:	059b      	lsls	r3, r3, #22
    1084:	0d9b      	lsrs	r3, r3, #22
    1086:	3304      	adds	r3, #4
    1088:	1912      	adds	r2, r2, r4
    108a:	4293      	cmp	r3, r2
    108c:	d8d0      	bhi.n	1030 <lfs_dir_fetchmatch+0x1c8>
    108e:	4653      	mov	r3, sl
    1090:	20e0      	movs	r0, #224	; 0xe0
    1092:	46bb      	mov	fp, r7
    1094:	0d0c      	lsrs	r4, r1, #20
    1096:	00c0      	lsls	r0, r0, #3
    1098:	681a      	ldr	r2, [r3, #0]
    109a:	4020      	ands	r0, r4
    109c:	2800      	cmp	r0, #0
    109e:	d169      	bne.n	1174 <lfs_dir_fetchmatch+0x30c>
    10a0:	9805      	ldr	r0, [sp, #20]
    10a2:	030b      	lsls	r3, r1, #12
    10a4:	0d9b      	lsrs	r3, r3, #22
    10a6:	4298      	cmp	r0, r3
    10a8:	d801      	bhi.n	10ae <lfs_dir_fetchmatch+0x246>
    10aa:	3301      	adds	r3, #1
    10ac:	9305      	str	r3, [sp, #20]
    10ae:	9c22      	ldr	r4, [sp, #136]	; 0x88
    10b0:	9b09      	ldr	r3, [sp, #36]	; 0x24
    10b2:	404c      	eors	r4, r1
    10b4:	401c      	ands	r4, r3
    10b6:	d117      	bne.n	10e8 <lfs_dir_fetchmatch+0x280>
    10b8:	9b04      	ldr	r3, [sp, #16]
    10ba:	9216      	str	r2, [sp, #88]	; 0x58
    10bc:	9317      	str	r3, [sp, #92]	; 0x5c
    10be:	aa16      	add	r2, sp, #88	; 0x58
    10c0:	9825      	ldr	r0, [sp, #148]	; 0x94
    10c2:	9b24      	ldr	r3, [sp, #144]	; 0x90
    10c4:	4798      	blx	r3
    10c6:	1e07      	subs	r7, r0, #0
    10c8:	da00      	bge.n	10cc <lfs_dir_fetchmatch+0x264>
    10ca:	e15f      	b.n	138c <lfs_dir_fetchmatch+0x524>
    10cc:	4652      	mov	r2, sl
    10ce:	9b10      	ldr	r3, [sp, #64]	; 0x40
    10d0:	6812      	ldr	r2, [r2, #0]
    10d2:	2800      	cmp	r0, #0
    10d4:	d007      	beq.n	10e6 <lfs_dir_fetchmatch+0x27e>
    10d6:	9906      	ldr	r1, [sp, #24]
    10d8:	4863      	ldr	r0, [pc, #396]	; (1268 <lfs_dir_fetchmatch+0x400>)
    10da:	4059      	eors	r1, r3
    10dc:	4201      	tst	r1, r0
    10de:	d000      	beq.n	10e2 <lfs_dir_fetchmatch+0x27a>
    10e0:	e08b      	b.n	11fa <lfs_dir_fetchmatch+0x392>
    10e2:	2301      	movs	r3, #1
    10e4:	425b      	negs	r3, r3
    10e6:	9306      	str	r3, [sp, #24]
    10e8:	4644      	mov	r4, r8
    10ea:	e740      	b.n	f6e <lfs_dir_fetchmatch+0x106>
    10ec:	6a29      	ldr	r1, [r5, #32]
    10ee:	4291      	cmp	r1, r2
    10f0:	d917      	bls.n	1122 <lfs_dir_fetchmatch+0x2ba>
    10f2:	4649      	mov	r1, r9
    10f4:	3108      	adds	r1, #8
    10f6:	428b      	cmp	r3, r1
    10f8:	d313      	bcc.n	1122 <lfs_dir_fetchmatch+0x2ba>
    10fa:	2104      	movs	r1, #4
    10fc:	9103      	str	r1, [sp, #12]
    10fe:	9904      	ldr	r1, [sp, #16]
    1100:	ad11      	add	r5, sp, #68	; 0x44
    1102:	9101      	str	r1, [sp, #4]
    1104:	9200      	str	r2, [sp, #0]
    1106:	9502      	str	r5, [sp, #8]
    1108:	0032      	movs	r2, r6
    110a:	2100      	movs	r1, #0
    110c:	4658      	mov	r0, fp
    110e:	f7ff f847 	bl	1a0 <lfs_bd_read.isra.21.part.22>
    1112:	1e07      	subs	r7, r0, #0
    1114:	d000      	beq.n	1118 <lfs_dir_fetchmatch+0x2b0>
    1116:	e176      	b.n	1406 <lfs_dir_fetchmatch+0x59e>
    1118:	9b11      	ldr	r3, [sp, #68]	; 0x44
    111a:	9a0f      	ldr	r2, [sp, #60]	; 0x3c
    111c:	4293      	cmp	r3, r2
    111e:	d100      	bne.n	1122 <lfs_dir_fetchmatch+0x2ba>
    1120:	e0b0      	b.n	1284 <lfs_dir_fetchmatch+0x41c>
    1122:	4653      	mov	r3, sl
    1124:	2200      	movs	r2, #0
    1126:	68dd      	ldr	r5, [r3, #12]
    1128:	759a      	strb	r2, [r3, #22]
    112a:	2d00      	cmp	r5, #0
    112c:	d000      	beq.n	1130 <lfs_dir_fetchmatch+0x2c8>
    112e:	e0fd      	b.n	132c <lfs_dir_fetchmatch+0x4c4>
    1130:	4653      	mov	r3, sl
    1132:	4651      	mov	r1, sl
    1134:	681a      	ldr	r2, [r3, #0]
    1136:	685b      	ldr	r3, [r3, #4]
    1138:	980c      	ldr	r0, [sp, #48]	; 0x30
    113a:	600b      	str	r3, [r1, #0]
    113c:	604a      	str	r2, [r1, #4]
    113e:	9907      	ldr	r1, [sp, #28]
    1140:	5809      	ldr	r1, [r1, r0]
    1142:	9104      	str	r1, [sp, #16]
    1144:	4651      	mov	r1, sl
    1146:	9804      	ldr	r0, [sp, #16]
    1148:	6088      	str	r0, [r1, #8]
    114a:	9908      	ldr	r1, [sp, #32]
    114c:	2901      	cmp	r1, #1
    114e:	d137      	bne.n	11c0 <lfs_dir_fetchmatch+0x358>
    1150:	4946      	ldr	r1, [pc, #280]	; (126c <lfs_dir_fetchmatch+0x404>)
    1152:	9200      	str	r2, [sp, #0]
    1154:	9101      	str	r1, [sp, #4]
    1156:	4a46      	ldr	r2, [pc, #280]	; (1270 <lfs_dir_fetchmatch+0x408>)
    1158:	4946      	ldr	r1, [pc, #280]	; (1274 <lfs_dir_fetchmatch+0x40c>)
    115a:	4847      	ldr	r0, [pc, #284]	; (1278 <lfs_dir_fetchmatch+0x410>)
    115c:	2754      	movs	r7, #84	; 0x54
    115e:	f7ff fffe 	bl	0 <printf>
    1162:	427f      	negs	r7, r7
    1164:	0038      	movs	r0, r7
    1166:	b019      	add	sp, #100	; 0x64
    1168:	bc3c      	pop	{r2, r3, r4, r5}
    116a:	4690      	mov	r8, r2
    116c:	4699      	mov	r9, r3
    116e:	46a2      	mov	sl, r4
    1170:	46ab      	mov	fp, r5
    1172:	bdf0      	pop	{r4, r5, r6, r7, pc}
    1174:	2380      	movs	r3, #128	; 0x80
    1176:	00db      	lsls	r3, r3, #3
    1178:	4298      	cmp	r0, r3
    117a:	d04f      	beq.n	121c <lfs_dir_fetchmatch+0x3b4>
    117c:	23c0      	movs	r3, #192	; 0xc0
    117e:	00db      	lsls	r3, r3, #3
    1180:	4298      	cmp	r0, r3
    1182:	d194      	bne.n	10ae <lfs_dir_fetchmatch+0x246>
    1184:	2301      	movs	r3, #1
    1186:	6eb1      	ldr	r1, [r6, #104]	; 0x68
    1188:	401c      	ands	r4, r3
    118a:	69cb      	ldr	r3, [r1, #28]
    118c:	6a09      	ldr	r1, [r1, #32]
    118e:	940d      	str	r4, [sp, #52]	; 0x34
    1190:	4291      	cmp	r1, r2
    1192:	d9c6      	bls.n	1122 <lfs_dir_fetchmatch+0x2ba>
    1194:	4649      	mov	r1, r9
    1196:	310c      	adds	r1, #12
    1198:	428b      	cmp	r3, r1
    119a:	d3c2      	bcc.n	1122 <lfs_dir_fetchmatch+0x2ba>
    119c:	2108      	movs	r1, #8
    119e:	9103      	str	r1, [sp, #12]
    11a0:	a914      	add	r1, sp, #80	; 0x50
    11a2:	9102      	str	r1, [sp, #8]
    11a4:	9904      	ldr	r1, [sp, #16]
    11a6:	9200      	str	r2, [sp, #0]
    11a8:	9101      	str	r1, [sp, #4]
    11aa:	0032      	movs	r2, r6
    11ac:	2100      	movs	r1, #0
    11ae:	4658      	mov	r0, fp
    11b0:	f7fe fff6 	bl	1a0 <lfs_bd_read.isra.21.part.22>
    11b4:	3054      	adds	r0, #84	; 0x54
    11b6:	d0b4      	beq.n	1122 <lfs_dir_fetchmatch+0x2ba>
    11b8:	4653      	mov	r3, sl
    11ba:	9910      	ldr	r1, [sp, #64]	; 0x40
    11bc:	681a      	ldr	r2, [r3, #0]
    11be:	e776      	b.n	10ae <lfs_dir_fetchmatch+0x246>
    11c0:	2301      	movs	r3, #1
    11c2:	9308      	str	r3, [sp, #32]
    11c4:	e6be      	b.n	f44 <lfs_dir_fetchmatch+0xdc>
    11c6:	0003      	movs	r3, r0
    11c8:	46bb      	mov	fp, r7
    11ca:	0007      	movs	r7, r0
    11cc:	3354      	adds	r3, #84	; 0x54
    11ce:	d1c9      	bne.n	1164 <lfs_dir_fetchmatch+0x2fc>
    11d0:	4653      	mov	r3, sl
    11d2:	20e0      	movs	r0, #224	; 0xe0
    11d4:	9910      	ldr	r1, [sp, #64]	; 0x40
    11d6:	00c0      	lsls	r0, r0, #3
    11d8:	0d0c      	lsrs	r4, r1, #20
    11da:	681a      	ldr	r2, [r3, #0]
    11dc:	4020      	ands	r0, r4
    11de:	4653      	mov	r3, sl
    11e0:	2500      	movs	r5, #0
    11e2:	759d      	strb	r5, [r3, #22]
    11e4:	e75a      	b.n	109c <lfs_dir_fetchmatch+0x234>
    11e6:	0003      	movs	r3, r0
    11e8:	3354      	adds	r3, #84	; 0x54
    11ea:	d100      	bne.n	11ee <lfs_dir_fetchmatch+0x386>
    11ec:	e66d      	b.n	eca <lfs_dir_fetchmatch+0x62>
    11ee:	e7b9      	b.n	1164 <lfs_dir_fetchmatch+0x2fc>
    11f0:	0003      	movs	r3, r0
    11f2:	3354      	adds	r3, #84	; 0x54
    11f4:	d1b6      	bne.n	1164 <lfs_dir_fetchmatch+0x2fc>
    11f6:	2300      	movs	r3, #0
    11f8:	e689      	b.n	f0e <lfs_dir_fetchmatch+0xa6>
    11fa:	2f02      	cmp	r7, #2
    11fc:	d000      	beq.n	1200 <lfs_dir_fetchmatch+0x398>
    11fe:	e773      	b.n	10e8 <lfs_dir_fetchmatch+0x280>
    1200:	9906      	ldr	r1, [sp, #24]
    1202:	0308      	lsls	r0, r1, #12
    1204:	0319      	lsls	r1, r3, #12
    1206:	0d80      	lsrs	r0, r0, #22
    1208:	0d89      	lsrs	r1, r1, #22
    120a:	4288      	cmp	r0, r1
    120c:	d200      	bcs.n	1210 <lfs_dir_fetchmatch+0x3a8>
    120e:	e76b      	b.n	10e8 <lfs_dir_fetchmatch+0x280>
    1210:	2180      	movs	r1, #128	; 0x80
    1212:	0609      	lsls	r1, r1, #24
    1214:	4319      	orrs	r1, r3
    1216:	9106      	str	r1, [sp, #24]
    1218:	4644      	mov	r4, r8
    121a:	e6a8      	b.n	f6e <lfs_dir_fetchmatch+0x106>
    121c:	9b05      	ldr	r3, [sp, #20]
    121e:	b264      	sxtb	r4, r4
    1220:	191b      	adds	r3, r3, r4
    1222:	b29b      	uxth	r3, r3
    1224:	9305      	str	r3, [sp, #20]
    1226:	4815      	ldr	r0, [pc, #84]	; (127c <lfs_dir_fetchmatch+0x414>)
    1228:	9b06      	ldr	r3, [sp, #24]
    122a:	4018      	ands	r0, r3
    122c:	4b14      	ldr	r3, [pc, #80]	; (1280 <lfs_dir_fetchmatch+0x418>)
    122e:	4303      	orrs	r3, r0
    1230:	428b      	cmp	r3, r1
    1232:	d057      	beq.n	12e4 <lfs_dir_fetchmatch+0x47c>
    1234:	9d06      	ldr	r5, [sp, #24]
    1236:	1c6b      	adds	r3, r5, #1
    1238:	d100      	bne.n	123c <lfs_dir_fetchmatch+0x3d4>
    123a:	e738      	b.n	10ae <lfs_dir_fetchmatch+0x246>
    123c:	0328      	lsls	r0, r5, #12
    123e:	030b      	lsls	r3, r1, #12
    1240:	0d80      	lsrs	r0, r0, #22
    1242:	0d9b      	lsrs	r3, r3, #22
    1244:	4298      	cmp	r0, r3
    1246:	d200      	bcs.n	124a <lfs_dir_fetchmatch+0x3e2>
    1248:	e731      	b.n	10ae <lfs_dir_fetchmatch+0x246>
    124a:	46ac      	mov	ip, r5
    124c:	02a4      	lsls	r4, r4, #10
    124e:	44a4      	add	ip, r4
    1250:	4663      	mov	r3, ip
    1252:	9306      	str	r3, [sp, #24]
    1254:	e72b      	b.n	10ae <lfs_dir_fetchmatch+0x246>
    1256:	20e0      	movs	r0, #224	; 0xe0
    1258:	0d0c      	lsrs	r4, r1, #20
    125a:	00c0      	lsls	r0, r0, #3
    125c:	46bb      	mov	fp, r7
    125e:	4020      	ands	r0, r4
    1260:	e7bd      	b.n	11de <lfs_dir_fetchmatch+0x376>
    1262:	46c0      	nop			; (mov r8, r8)
    1264:	00000000 	.word	0x00000000
    1268:	7ffffc00 	.word	0x7ffffc00
    126c:	00000074 	.word	0x00000074
    1270:	0000042f 	.word	0x0000042f
    1274:	00000000 	.word	0x00000000
    1278:	0000003c 	.word	0x0000003c
    127c:	000ffc00 	.word	0x000ffc00
    1280:	4ff00000 	.word	0x4ff00000
    1284:	9b10      	ldr	r3, [sp, #64]	; 0x40
    1286:	2204      	movs	r2, #4
    1288:	0d1c      	lsrs	r4, r3, #20
    128a:	4643      	mov	r3, r8
    128c:	a90f      	add	r1, sp, #60	; 0x3c
    128e:	07e4      	lsls	r4, r4, #31
    1290:	6af0      	ldr	r0, [r6, #44]	; 0x2c
    1292:	405c      	eors	r4, r3
    1294:	f7ff fffe 	bl	0 <lfs_crc>
    1298:	9a10      	ldr	r2, [sp, #64]	; 0x40
    129a:	62f0      	str	r0, [r6, #44]	; 0x2c
    129c:	0593      	lsls	r3, r2, #22
    129e:	159b      	asrs	r3, r3, #22
    12a0:	3301      	adds	r3, #1
    12a2:	4259      	negs	r1, r3
    12a4:	414b      	adcs	r3, r1
    12a6:	189b      	adds	r3, r3, r2
    12a8:	4652      	mov	r2, sl
    12aa:	059b      	lsls	r3, r3, #22
    12ac:	0d9b      	lsrs	r3, r3, #22
    12ae:	3304      	adds	r3, #4
    12b0:	444b      	add	r3, r9
    12b2:	60d3      	str	r3, [r2, #12]
    12b4:	4653      	mov	r3, sl
    12b6:	6114      	str	r4, [r2, #16]
    12b8:	9a05      	ldr	r2, [sp, #20]
    12ba:	829a      	strh	r2, [r3, #20]
    12bc:	9b14      	ldr	r3, [sp, #80]	; 0x50
    12be:	9304      	str	r3, [sp, #16]
    12c0:	4653      	mov	r3, sl
    12c2:	9a04      	ldr	r2, [sp, #16]
    12c4:	619a      	str	r2, [r3, #24]
    12c6:	9b15      	ldr	r3, [sp, #84]	; 0x54
    12c8:	9304      	str	r3, [sp, #16]
    12ca:	4653      	mov	r3, sl
    12cc:	9a04      	ldr	r2, [sp, #16]
    12ce:	61da      	str	r2, [r3, #28]
    12d0:	9a0d      	ldr	r2, [sp, #52]	; 0x34
    12d2:	75da      	strb	r2, [r3, #23]
    12d4:	2301      	movs	r3, #1
    12d6:	425b      	negs	r3, r3
    12d8:	930f      	str	r3, [sp, #60]	; 0x3c
    12da:	4653      	mov	r3, sl
    12dc:	681a      	ldr	r2, [r3, #0]
    12de:	9b06      	ldr	r3, [sp, #24]
    12e0:	930a      	str	r3, [sp, #40]	; 0x28
    12e2:	e644      	b.n	f6e <lfs_dir_fetchmatch+0x106>
    12e4:	2380      	movs	r3, #128	; 0x80
    12e6:	9806      	ldr	r0, [sp, #24]
    12e8:	061b      	lsls	r3, r3, #24
    12ea:	4318      	orrs	r0, r3
    12ec:	9006      	str	r0, [sp, #24]
    12ee:	e6de      	b.n	10ae <lfs_dir_fetchmatch+0x246>
    12f0:	4641      	mov	r1, r8
    12f2:	e6d3      	b.n	109c <lfs_dir_fetchmatch+0x234>
    12f4:	4653      	mov	r3, sl
    12f6:	68dd      	ldr	r5, [r3, #12]
    12f8:	23e0      	movs	r3, #224	; 0xe0
    12fa:	22a0      	movs	r2, #160	; 0xa0
    12fc:	00db      	lsls	r3, r3, #3
    12fe:	0d24      	lsrs	r4, r4, #20
    1300:	401c      	ands	r4, r3
    1302:	00d2      	lsls	r2, r2, #3
    1304:	2300      	movs	r3, #0
    1306:	4294      	cmp	r4, r2
    1308:	d107      	bne.n	131a <lfs_dir_fetchmatch+0x4b2>
    130a:	6eb3      	ldr	r3, [r6, #104]	; 0x68
    130c:	0028      	movs	r0, r5
    130e:	6999      	ldr	r1, [r3, #24]
    1310:	f7ff fffe 	bl	0 <__aeabi_uidivmod>
    1314:	424b      	negs	r3, r1
    1316:	414b      	adcs	r3, r1
    1318:	b2db      	uxtb	r3, r3
    131a:	4652      	mov	r2, sl
    131c:	7593      	strb	r3, [r2, #22]
    131e:	e704      	b.n	112a <lfs_dir_fetchmatch+0x2c2>
    1320:	4653      	mov	r3, sl
    1322:	759f      	strb	r7, [r3, #22]
    1324:	68dd      	ldr	r5, [r3, #12]
    1326:	e700      	b.n	112a <lfs_dir_fetchmatch+0x2c2>
    1328:	4641      	mov	r1, r8
    132a:	e758      	b.n	11de <lfs_dir_fetchmatch+0x376>
    132c:	23e0      	movs	r3, #224	; 0xe0
    132e:	6bf2      	ldr	r2, [r6, #60]	; 0x3c
    1330:	00db      	lsls	r3, r3, #3
    1332:	0d10      	lsrs	r0, r2, #20
    1334:	46d3      	mov	fp, sl
    1336:	990a      	ldr	r1, [sp, #40]	; 0x28
    1338:	4218      	tst	r0, r3
    133a:	d00d      	beq.n	1358 <lfs_dir_fetchmatch+0x4f0>
    133c:	4653      	mov	r3, sl
    133e:	6c35      	ldr	r5, [r6, #64]	; 0x40
    1340:	6818      	ldr	r0, [r3, #0]
    1342:	4285      	cmp	r5, r0
    1344:	d02d      	beq.n	13a2 <lfs_dir_fetchmatch+0x53a>
    1346:	4654      	mov	r4, sl
    1348:	6c73      	ldr	r3, [r6, #68]	; 0x44
    134a:	6864      	ldr	r4, [r4, #4]
    134c:	42a3      	cmp	r3, r4
    134e:	d028      	beq.n	13a2 <lfs_dir_fetchmatch+0x53a>
    1350:	42a5      	cmp	r5, r4
    1352:	d026      	beq.n	13a2 <lfs_dir_fetchmatch+0x53a>
    1354:	4298      	cmp	r0, r3
    1356:	d024      	beq.n	13a2 <lfs_dir_fetchmatch+0x53a>
    1358:	9b23      	ldr	r3, [sp, #140]	; 0x8c
    135a:	9f0a      	ldr	r7, [sp, #40]	; 0x28
    135c:	2b00      	cmp	r3, #0
    135e:	d008      	beq.n	1372 <lfs_dir_fetchmatch+0x50a>
    1360:	465a      	mov	r2, fp
    1362:	033b      	lsls	r3, r7, #12
    1364:	8a92      	ldrh	r2, [r2, #20]
    1366:	0d9b      	lsrs	r3, r3, #22
    1368:	4293      	cmp	r3, r2
    136a:	d900      	bls.n	136e <lfs_dir_fetchmatch+0x506>
    136c:	0013      	movs	r3, r2
    136e:	9a23      	ldr	r2, [sp, #140]	; 0x8c
    1370:	8013      	strh	r3, [r2, #0]
    1372:	2f00      	cmp	r7, #0
    1374:	db00      	blt.n	1378 <lfs_dir_fetchmatch+0x510>
    1376:	e6f5      	b.n	1164 <lfs_dir_fetchmatch+0x2fc>
    1378:	465a      	mov	r2, fp
    137a:	030b      	lsls	r3, r1, #12
    137c:	8a92      	ldrh	r2, [r2, #20]
    137e:	0d9b      	lsrs	r3, r3, #22
    1380:	4293      	cmp	r3, r2
    1382:	419b      	sbcs	r3, r3
    1384:	2201      	movs	r2, #1
    1386:	4393      	bics	r3, r2
    1388:	001f      	movs	r7, r3
    138a:	e6eb      	b.n	1164 <lfs_dir_fetchmatch+0x2fc>
    138c:	0003      	movs	r3, r0
    138e:	3354      	adds	r3, #84	; 0x54
    1390:	d000      	beq.n	1394 <lfs_dir_fetchmatch+0x52c>
    1392:	e6e7      	b.n	1164 <lfs_dir_fetchmatch+0x2fc>
    1394:	4653      	mov	r3, sl
    1396:	759c      	strb	r4, [r3, #22]
    1398:	68dd      	ldr	r5, [r3, #12]
    139a:	e6c6      	b.n	112a <lfs_dir_fetchmatch+0x2c2>
    139c:	2754      	movs	r7, #84	; 0x54
    139e:	427f      	negs	r7, r7
    13a0:	e6e0      	b.n	1164 <lfs_dir_fetchmatch+0x2fc>
    13a2:	9b0a      	ldr	r3, [sp, #40]	; 0x28
    13a4:	0312      	lsls	r2, r2, #12
    13a6:	031b      	lsls	r3, r3, #12
    13a8:	0d92      	lsrs	r2, r2, #22
    13aa:	0d9b      	lsrs	r3, r3, #22
    13ac:	4293      	cmp	r3, r2
    13ae:	d00d      	beq.n	13cc <lfs_dir_fetchmatch+0x564>
    13b0:	980a      	ldr	r0, [sp, #40]	; 0x28
    13b2:	1c44      	adds	r4, r0, #1
    13b4:	d017      	beq.n	13e6 <lfs_dir_fetchmatch+0x57e>
    13b6:	4293      	cmp	r3, r2
    13b8:	d9ce      	bls.n	1358 <lfs_dir_fetchmatch+0x4f0>
    13ba:	4b15      	ldr	r3, [pc, #84]	; (1410 <lfs_dir_fetchmatch+0x5a8>)
    13bc:	469c      	mov	ip, r3
    13be:	4460      	add	r0, ip
    13c0:	900a      	str	r0, [sp, #40]	; 0x28
    13c2:	0001      	movs	r1, r0
    13c4:	e7c8      	b.n	1358 <lfs_dir_fetchmatch+0x4f0>
    13c6:	aa12      	add	r2, sp, #72	; 0x48
    13c8:	9207      	str	r2, [sp, #28]
    13ca:	e57f      	b.n	ecc <lfs_dir_fetchmatch+0x64>
    13cc:	2180      	movs	r1, #128	; 0x80
    13ce:	465a      	mov	r2, fp
    13d0:	9b0a      	ldr	r3, [sp, #40]	; 0x28
    13d2:	0609      	lsls	r1, r1, #24
    13d4:	4319      	orrs	r1, r3
    13d6:	9823      	ldr	r0, [sp, #140]	; 0x8c
    13d8:	030b      	lsls	r3, r1, #12
    13da:	000f      	movs	r7, r1
    13dc:	0d9b      	lsrs	r3, r3, #22
    13de:	8a92      	ldrh	r2, [r2, #20]
    13e0:	2800      	cmp	r0, #0
    13e2:	d1c1      	bne.n	1368 <lfs_dir_fetchmatch+0x500>
    13e4:	e7cc      	b.n	1380 <lfs_dir_fetchmatch+0x518>
    13e6:	465b      	mov	r3, fp
    13e8:	8a9a      	ldrh	r2, [r3, #20]
    13ea:	9b23      	ldr	r3, [sp, #140]	; 0x8c
    13ec:	2b00      	cmp	r3, #0
    13ee:	d008      	beq.n	1402 <lfs_dir_fetchmatch+0x59a>
    13f0:	4908      	ldr	r1, [pc, #32]	; (1414 <lfs_dir_fetchmatch+0x5ac>)
    13f2:	1c13      	adds	r3, r2, #0
    13f4:	428a      	cmp	r2, r1
    13f6:	d900      	bls.n	13fa <lfs_dir_fetchmatch+0x592>
    13f8:	1c0b      	adds	r3, r1, #0
    13fa:	9a23      	ldr	r2, [sp, #140]	; 0x8c
    13fc:	8013      	strh	r3, [r2, #0]
    13fe:	465b      	mov	r3, fp
    1400:	8a9a      	ldrh	r2, [r3, #20]
    1402:	4b04      	ldr	r3, [pc, #16]	; (1414 <lfs_dir_fetchmatch+0x5ac>)
    1404:	e7bc      	b.n	1380 <lfs_dir_fetchmatch+0x518>
    1406:	003b      	movs	r3, r7
    1408:	3354      	adds	r3, #84	; 0x54
    140a:	d000      	beq.n	140e <lfs_dir_fetchmatch+0x5a6>
    140c:	e6aa      	b.n	1164 <lfs_dir_fetchmatch+0x2fc>
    140e:	e688      	b.n	1122 <lfs_dir_fetchmatch+0x2ba>
    1410:	fffffc00 	.word	0xfffffc00
    1414:	000003ff 	.word	0x000003ff

00001418 <lfs_fs_pred>:
    1418:	b5f0      	push	{r4, r5, r6, r7, lr}
    141a:	2300      	movs	r3, #0
    141c:	464e      	mov	r6, r9
    141e:	4645      	mov	r5, r8
    1420:	46de      	mov	lr, fp
    1422:	4657      	mov	r7, sl
    1424:	0014      	movs	r4, r2
    1426:	b5e0      	push	{r5, r6, r7, lr}
    1428:	6193      	str	r3, [r2, #24]
    142a:	2201      	movs	r2, #1
    142c:	6e83      	ldr	r3, [r0, #104]	; 0x68
    142e:	b085      	sub	sp, #20
    1430:	6a1b      	ldr	r3, [r3, #32]
    1432:	0006      	movs	r6, r0
    1434:	000d      	movs	r5, r1
    1436:	61e2      	str	r2, [r4, #28]
    1438:	085b      	lsrs	r3, r3, #1
    143a:	d046      	beq.n	14ca <lfs_fs_pred+0xb2>
    143c:	680b      	ldr	r3, [r1, #0]
    143e:	2b00      	cmp	r3, #0
    1440:	d036      	beq.n	14b0 <lfs_fs_pred+0x98>
    1442:	6849      	ldr	r1, [r1, #4]
    1444:	428a      	cmp	r2, r1
    1446:	d033      	beq.n	14b0 <lfs_fs_pred+0x98>
    1448:	2900      	cmp	r1, #0
    144a:	d031      	beq.n	14b0 <lfs_fs_pred+0x98>
    144c:	429a      	cmp	r2, r3
    144e:	d02f      	beq.n	14b0 <lfs_fs_pred+0x98>
    1450:	2300      	movs	r3, #0
    1452:	4698      	mov	r8, r3
    1454:	3318      	adds	r3, #24
    1456:	469a      	mov	sl, r3
    1458:	3b19      	subs	r3, #25
    145a:	4699      	mov	r9, r3
    145c:	2700      	movs	r7, #0
    145e:	44a2      	add	sl, r4
    1460:	464b      	mov	r3, r9
    1462:	9300      	str	r3, [sp, #0]
    1464:	2301      	movs	r3, #1
    1466:	9703      	str	r7, [sp, #12]
    1468:	9702      	str	r7, [sp, #8]
    146a:	9701      	str	r7, [sp, #4]
    146c:	425b      	negs	r3, r3
    146e:	4652      	mov	r2, sl
    1470:	0021      	movs	r1, r4
    1472:	0030      	movs	r0, r6
    1474:	f7ff fcf8 	bl	e68 <lfs_dir_fetchmatch>
    1478:	2800      	cmp	r0, #0
    147a:	d11a      	bne.n	14b2 <lfs_fs_pred+0x9a>
    147c:	2301      	movs	r3, #1
    147e:	469c      	mov	ip, r3
    1480:	69a2      	ldr	r2, [r4, #24]
    1482:	44e0      	add	r8, ip
    1484:	1c53      	adds	r3, r2, #1
    1486:	d01b      	beq.n	14c0 <lfs_fs_pred+0xa8>
    1488:	69e1      	ldr	r1, [r4, #28]
    148a:	1c4b      	adds	r3, r1, #1
    148c:	d01b      	beq.n	14c6 <lfs_fs_pred+0xae>
    148e:	6eb3      	ldr	r3, [r6, #104]	; 0x68
    1490:	6a1b      	ldr	r3, [r3, #32]
    1492:	085b      	lsrs	r3, r3, #1
    1494:	4543      	cmp	r3, r8
    1496:	d918      	bls.n	14ca <lfs_fs_pred+0xb2>
    1498:	682b      	ldr	r3, [r5, #0]
    149a:	469b      	mov	fp, r3
    149c:	4293      	cmp	r3, r2
    149e:	d008      	beq.n	14b2 <lfs_fs_pred+0x9a>
    14a0:	686b      	ldr	r3, [r5, #4]
    14a2:	428b      	cmp	r3, r1
    14a4:	d005      	beq.n	14b2 <lfs_fs_pred+0x9a>
    14a6:	4293      	cmp	r3, r2
    14a8:	d003      	beq.n	14b2 <lfs_fs_pred+0x9a>
    14aa:	458b      	cmp	fp, r1
    14ac:	d1d8      	bne.n	1460 <lfs_fs_pred+0x48>
    14ae:	e000      	b.n	14b2 <lfs_fs_pred+0x9a>
    14b0:	2000      	movs	r0, #0
    14b2:	b005      	add	sp, #20
    14b4:	bc3c      	pop	{r2, r3, r4, r5}
    14b6:	4690      	mov	r8, r2
    14b8:	4699      	mov	r9, r3
    14ba:	46a2      	mov	sl, r4
    14bc:	46ab      	mov	fp, r5
    14be:	bdf0      	pop	{r4, r5, r6, r7, pc}
    14c0:	2002      	movs	r0, #2
    14c2:	4240      	negs	r0, r0
    14c4:	e7f5      	b.n	14b2 <lfs_fs_pred+0x9a>
    14c6:	3802      	subs	r0, #2
    14c8:	e7f3      	b.n	14b2 <lfs_fs_pred+0x9a>
    14ca:	2054      	movs	r0, #84	; 0x54
    14cc:	4240      	negs	r0, r0
    14ce:	e7f0      	b.n	14b2 <lfs_fs_pred+0x9a>

000014d0 <lfs_dir_getslice>:
    14d0:	b5f0      	push	{r4, r5, r6, r7, lr}
    14d2:	464e      	mov	r6, r9
    14d4:	46de      	mov	lr, fp
    14d6:	4657      	mov	r7, sl
    14d8:	4645      	mov	r5, r8
    14da:	b5e0      	push	{r5, r6, r7, lr}
    14dc:	b08b      	sub	sp, #44	; 0x2c
    14de:	9207      	str	r2, [sp, #28]
    14e0:	0312      	lsls	r2, r2, #12
    14e2:	0d92      	lsrs	r2, r2, #22
    14e4:	9205      	str	r2, [sp, #20]
    14e6:	22e0      	movs	r2, #224	; 0xe0
    14e8:	0006      	movs	r6, r0
    14ea:	469b      	mov	fp, r3
    14ec:	6bc3      	ldr	r3, [r0, #60]	; 0x3c
    14ee:	2000      	movs	r0, #0
    14f0:	690c      	ldr	r4, [r1, #16]
    14f2:	468a      	mov	sl, r1
    14f4:	68cd      	ldr	r5, [r1, #12]
    14f6:	00d2      	lsls	r2, r2, #3
    14f8:	0d19      	lsrs	r1, r3, #20
    14fa:	9409      	str	r4, [sp, #36]	; 0x24
    14fc:	4681      	mov	r9, r0
    14fe:	4211      	tst	r1, r2
    1500:	d011      	beq.n	1526 <lfs_dir_getslice+0x56>
    1502:	4651      	mov	r1, sl
    1504:	6c32      	ldr	r2, [r6, #64]	; 0x40
    1506:	6809      	ldr	r1, [r1, #0]
    1508:	4291      	cmp	r1, r2
    150a:	d100      	bne.n	150e <lfs_dir_getslice+0x3e>
    150c:	e09b      	b.n	1646 <lfs_dir_getslice+0x176>
    150e:	4650      	mov	r0, sl
    1510:	6c77      	ldr	r7, [r6, #68]	; 0x44
    1512:	6840      	ldr	r0, [r0, #4]
    1514:	42b8      	cmp	r0, r7
    1516:	d100      	bne.n	151a <lfs_dir_getslice+0x4a>
    1518:	e095      	b.n	1646 <lfs_dir_getslice+0x176>
    151a:	4290      	cmp	r0, r2
    151c:	d100      	bne.n	1520 <lfs_dir_getslice+0x50>
    151e:	e092      	b.n	1646 <lfs_dir_getslice+0x176>
    1520:	428f      	cmp	r7, r1
    1522:	d100      	bne.n	1526 <lfs_dir_getslice+0x56>
    1524:	e08f      	b.n	1646 <lfs_dir_getslice+0x176>
    1526:	2368      	movs	r3, #104	; 0x68
    1528:	469c      	mov	ip, r3
    152a:	44b4      	add	ip, r6
    152c:	4663      	mov	r3, ip
    152e:	46b0      	mov	r8, r6
    1530:	9306      	str	r3, [sp, #24]
    1532:	e004      	b.n	153e <lfs_dir_getslice+0x6e>
    1534:	9907      	ldr	r1, [sp, #28]
    1536:	4062      	eors	r2, r4
    1538:	4211      	tst	r1, r2
    153a:	d058      	beq.n	15ee <lfs_dir_getslice+0x11e>
    153c:	001c      	movs	r4, r3
    153e:	05a6      	lsls	r6, r4, #22
    1540:	15b7      	asrs	r7, r6, #22
    1542:	1c7b      	adds	r3, r7, #1
    1544:	425a      	negs	r2, r3
    1546:	4153      	adcs	r3, r2
    1548:	2204      	movs	r2, #4
    154a:	191b      	adds	r3, r3, r4
    154c:	059b      	lsls	r3, r3, #22
    154e:	0d9b      	lsrs	r3, r3, #22
    1550:	4252      	negs	r2, r2
    1552:	1ad2      	subs	r2, r2, r3
    1554:	3308      	adds	r3, #8
    1556:	42ab      	cmp	r3, r5
    1558:	d900      	bls.n	155c <lfs_dir_getslice+0x8c>
    155a:	e089      	b.n	1670 <lfs_dir_getslice+0x1a0>
    155c:	4653      	mov	r3, sl
    155e:	6819      	ldr	r1, [r3, #0]
    1560:	4643      	mov	r3, r8
    1562:	18ad      	adds	r5, r5, r2
    1564:	6e9a      	ldr	r2, [r3, #104]	; 0x68
    1566:	6a13      	ldr	r3, [r2, #32]
    1568:	4299      	cmp	r1, r3
    156a:	d300      	bcc.n	156e <lfs_dir_getslice+0x9e>
    156c:	e083      	b.n	1676 <lfs_dir_getslice+0x1a6>
    156e:	69d2      	ldr	r2, [r2, #28]
    1570:	1d2b      	adds	r3, r5, #4
    1572:	4293      	cmp	r3, r2
    1574:	d900      	bls.n	1578 <lfs_dir_getslice+0xa8>
    1576:	e07e      	b.n	1676 <lfs_dir_getslice+0x1a6>
    1578:	2304      	movs	r3, #4
    157a:	9303      	str	r3, [sp, #12]
    157c:	ab09      	add	r3, sp, #36	; 0x24
    157e:	9302      	str	r3, [sp, #8]
    1580:	9100      	str	r1, [sp, #0]
    1582:	9501      	str	r5, [sp, #4]
    1584:	2304      	movs	r3, #4
    1586:	4642      	mov	r2, r8
    1588:	2100      	movs	r1, #0
    158a:	9806      	ldr	r0, [sp, #24]
    158c:	f7fe fe08 	bl	1a0 <lfs_bd_read.isra.21.part.22>
    1590:	2800      	cmp	r0, #0
    1592:	d151      	bne.n	1638 <lfs_dir_getslice+0x168>
    1594:	4649      	mov	r1, r9
    1596:	465a      	mov	r2, fp
    1598:	9b09      	ldr	r3, [sp, #36]	; 0x24
    159a:	1a52      	subs	r2, r2, r1
    159c:	ba1b      	rev	r3, r3
    159e:	4063      	eors	r3, r4
    15a0:	005b      	lsls	r3, r3, #1
    15a2:	9905      	ldr	r1, [sp, #20]
    15a4:	085b      	lsrs	r3, r3, #1
    15a6:	9309      	str	r3, [sp, #36]	; 0x24
    15a8:	2900      	cmp	r1, #0
    15aa:	d0c3      	beq.n	1534 <lfs_dir_getslice+0x64>
    15ac:	0d21      	lsrs	r1, r4, #20
    15ae:	468c      	mov	ip, r1
    15b0:	21e0      	movs	r1, #224	; 0xe0
    15b2:	4660      	mov	r0, ip
    15b4:	00c9      	lsls	r1, r1, #3
    15b6:	4001      	ands	r1, r0
    15b8:	2080      	movs	r0, #128	; 0x80
    15ba:	00c0      	lsls	r0, r0, #3
    15bc:	4281      	cmp	r1, r0
    15be:	d1b9      	bne.n	1534 <lfs_dir_getslice+0x64>
    15c0:	0310      	lsls	r0, r2, #12
    15c2:	0321      	lsls	r1, r4, #12
    15c4:	0d80      	lsrs	r0, r0, #22
    15c6:	0d89      	lsrs	r1, r1, #22
    15c8:	4288      	cmp	r0, r1
    15ca:	d3b3      	bcc.n	1534 <lfs_dir_getslice+0x64>
    15cc:	4931      	ldr	r1, [pc, #196]	; (1694 <lfs_dir_getslice+0x1c4>)
    15ce:	4011      	ands	r1, r2
    15d0:	4a31      	ldr	r2, [pc, #196]	; (1698 <lfs_dir_getslice+0x1c8>)
    15d2:	430a      	orrs	r2, r1
    15d4:	42a2      	cmp	r2, r4
    15d6:	d04b      	beq.n	1670 <lfs_dir_getslice+0x1a0>
    15d8:	4662      	mov	r2, ip
    15da:	b252      	sxtb	r2, r2
    15dc:	0292      	lsls	r2, r2, #10
    15de:	4491      	add	r9, r2
    15e0:	4649      	mov	r1, r9
    15e2:	465a      	mov	r2, fp
    15e4:	1a52      	subs	r2, r2, r1
    15e6:	9907      	ldr	r1, [sp, #28]
    15e8:	4062      	eors	r2, r4
    15ea:	4211      	tst	r1, r2
    15ec:	d1a6      	bne.n	153c <lfs_dir_getslice+0x6c>
    15ee:	0033      	movs	r3, r6
    15f0:	4646      	mov	r6, r8
    15f2:	46b8      	mov	r8, r7
    15f4:	001f      	movs	r7, r3
    15f6:	4643      	mov	r3, r8
    15f8:	3301      	adds	r3, #1
    15fa:	d039      	beq.n	1670 <lfs_dir_getslice+0x1a0>
    15fc:	9b16      	ldr	r3, [sp, #88]	; 0x58
    15fe:	0dbf      	lsrs	r7, r7, #22
    1600:	429f      	cmp	r7, r3
    1602:	d83b      	bhi.n	167c <lfs_dir_getslice+0x1ac>
    1604:	4653      	mov	r3, sl
    1606:	681a      	ldr	r2, [r3, #0]
    1608:	9b14      	ldr	r3, [sp, #80]	; 0x50
    160a:	6eb1      	ldr	r1, [r6, #104]	; 0x68
    160c:	3304      	adds	r3, #4
    160e:	195d      	adds	r5, r3, r5
    1610:	6a0b      	ldr	r3, [r1, #32]
    1612:	429a      	cmp	r2, r3
    1614:	d22f      	bcs.n	1676 <lfs_dir_getslice+0x1a6>
    1616:	69c9      	ldr	r1, [r1, #28]
    1618:	19eb      	adds	r3, r5, r7
    161a:	428b      	cmp	r3, r1
    161c:	d82b      	bhi.n	1676 <lfs_dir_getslice+0x1a6>
    161e:	9b15      	ldr	r3, [sp, #84]	; 0x54
    1620:	9200      	str	r2, [sp, #0]
    1622:	9302      	str	r3, [sp, #8]
    1624:	9703      	str	r7, [sp, #12]
    1626:	9501      	str	r5, [sp, #4]
    1628:	003b      	movs	r3, r7
    162a:	0032      	movs	r2, r6
    162c:	2100      	movs	r1, #0
    162e:	9806      	ldr	r0, [sp, #24]
    1630:	f7fe fdb6 	bl	1a0 <lfs_bd_read.isra.21.part.22>
    1634:	2800      	cmp	r0, #0
    1636:	d023      	beq.n	1680 <lfs_dir_getslice+0x1b0>
    1638:	b00b      	add	sp, #44	; 0x2c
    163a:	bc3c      	pop	{r2, r3, r4, r5}
    163c:	4690      	mov	r8, r2
    163e:	4699      	mov	r9, r3
    1640:	46a2      	mov	sl, r4
    1642:	46ab      	mov	fp, r5
    1644:	bdf0      	pop	{r4, r5, r6, r7, pc}
    1646:	9a05      	ldr	r2, [sp, #20]
    1648:	2a00      	cmp	r2, #0
    164a:	d00e      	beq.n	166a <lfs_dir_getslice+0x19a>
    164c:	465a      	mov	r2, fp
    164e:	031b      	lsls	r3, r3, #12
    1650:	0312      	lsls	r2, r2, #12
    1652:	0d92      	lsrs	r2, r2, #22
    1654:	0d9b      	lsrs	r3, r3, #22
    1656:	429a      	cmp	r2, r3
    1658:	419b      	sbcs	r3, r3
    165a:	2280      	movs	r2, #128	; 0x80
    165c:	00d2      	lsls	r2, r2, #3
    165e:	4013      	ands	r3, r2
    1660:	4699      	mov	r9, r3
    1662:	4b0e      	ldr	r3, [pc, #56]	; (169c <lfs_dir_getslice+0x1cc>)
    1664:	469c      	mov	ip, r3
    1666:	44e1      	add	r9, ip
    1668:	e75d      	b.n	1526 <lfs_dir_getslice+0x56>
    166a:	2300      	movs	r3, #0
    166c:	4699      	mov	r9, r3
    166e:	e75a      	b.n	1526 <lfs_dir_getslice+0x56>
    1670:	2002      	movs	r0, #2
    1672:	4240      	negs	r0, r0
    1674:	e7e0      	b.n	1638 <lfs_dir_getslice+0x168>
    1676:	2054      	movs	r0, #84	; 0x54
    1678:	4240      	negs	r0, r0
    167a:	e7dd      	b.n	1638 <lfs_dir_getslice+0x168>
    167c:	001f      	movs	r7, r3
    167e:	e7c1      	b.n	1604 <lfs_dir_getslice+0x134>
    1680:	9b16      	ldr	r3, [sp, #88]	; 0x58
    1682:	2100      	movs	r1, #0
    1684:	1bda      	subs	r2, r3, r7
    1686:	9b15      	ldr	r3, [sp, #84]	; 0x54
    1688:	19d8      	adds	r0, r3, r7
    168a:	f7ff fffe 	bl	0 <memset>
    168e:	0020      	movs	r0, r4
    1690:	4448      	add	r0, r9
    1692:	e7d1      	b.n	1638 <lfs_dir_getslice+0x168>
    1694:	000ffc00 	.word	0x000ffc00
    1698:	40100000 	.word	0x40100000
    169c:	fffffc00 	.word	0xfffffc00

000016a0 <lfs_dir_getslice.constprop.38>:
    16a0:	b5f0      	push	{r4, r5, r6, r7, lr}
    16a2:	464e      	mov	r6, r9
    16a4:	46de      	mov	lr, fp
    16a6:	4657      	mov	r7, sl
    16a8:	4645      	mov	r5, r8
    16aa:	b5e0      	push	{r5, r6, r7, lr}
    16ac:	4693      	mov	fp, r2
    16ae:	b089      	sub	sp, #36	; 0x24
    16b0:	22e0      	movs	r2, #224	; 0xe0
    16b2:	0006      	movs	r6, r0
    16b4:	9305      	str	r3, [sp, #20]
    16b6:	6bc3      	ldr	r3, [r0, #60]	; 0x3c
    16b8:	2000      	movs	r0, #0
    16ba:	690c      	ldr	r4, [r1, #16]
    16bc:	468a      	mov	sl, r1
    16be:	68cd      	ldr	r5, [r1, #12]
    16c0:	00d2      	lsls	r2, r2, #3
    16c2:	0d19      	lsrs	r1, r3, #20
    16c4:	9407      	str	r4, [sp, #28]
    16c6:	4681      	mov	r9, r0
    16c8:	4211      	tst	r1, r2
    16ca:	d011      	beq.n	16f0 <lfs_dir_getslice.constprop.38+0x50>
    16cc:	4651      	mov	r1, sl
    16ce:	6c32      	ldr	r2, [r6, #64]	; 0x40
    16d0:	6809      	ldr	r1, [r1, #0]
    16d2:	428a      	cmp	r2, r1
    16d4:	d100      	bne.n	16d8 <lfs_dir_getslice.constprop.38+0x38>
    16d6:	e098      	b.n	180a <lfs_dir_getslice.constprop.38+0x16a>
    16d8:	4650      	mov	r0, sl
    16da:	6c77      	ldr	r7, [r6, #68]	; 0x44
    16dc:	6840      	ldr	r0, [r0, #4]
    16de:	4287      	cmp	r7, r0
    16e0:	d100      	bne.n	16e4 <lfs_dir_getslice.constprop.38+0x44>
    16e2:	e092      	b.n	180a <lfs_dir_getslice.constprop.38+0x16a>
    16e4:	4282      	cmp	r2, r0
    16e6:	d100      	bne.n	16ea <lfs_dir_getslice.constprop.38+0x4a>
    16e8:	e08f      	b.n	180a <lfs_dir_getslice.constprop.38+0x16a>
    16ea:	42b9      	cmp	r1, r7
    16ec:	d100      	bne.n	16f0 <lfs_dir_getslice.constprop.38+0x50>
    16ee:	e08c      	b.n	180a <lfs_dir_getslice.constprop.38+0x16a>
    16f0:	2368      	movs	r3, #104	; 0x68
    16f2:	469c      	mov	ip, r3
    16f4:	44b4      	add	ip, r6
    16f6:	4663      	mov	r3, ip
    16f8:	46b0      	mov	r8, r6
    16fa:	9304      	str	r3, [sp, #16]
    16fc:	e004      	b.n	1708 <lfs_dir_getslice.constprop.38+0x68>
    16fe:	4953      	ldr	r1, [pc, #332]	; (184c <lfs_dir_getslice.constprop.38+0x1ac>)
    1700:	4062      	eors	r2, r4
    1702:	420a      	tst	r2, r1
    1704:	d055      	beq.n	17b2 <lfs_dir_getslice.constprop.38+0x112>
    1706:	001c      	movs	r4, r3
    1708:	05a6      	lsls	r6, r4, #22
    170a:	15b7      	asrs	r7, r6, #22
    170c:	1c7b      	adds	r3, r7, #1
    170e:	425a      	negs	r2, r3
    1710:	4153      	adcs	r3, r2
    1712:	2204      	movs	r2, #4
    1714:	191b      	adds	r3, r3, r4
    1716:	059b      	lsls	r3, r3, #22
    1718:	0d9b      	lsrs	r3, r3, #22
    171a:	4252      	negs	r2, r2
    171c:	1ad2      	subs	r2, r2, r3
    171e:	3308      	adds	r3, #8
    1720:	429d      	cmp	r5, r3
    1722:	d200      	bcs.n	1726 <lfs_dir_getslice.constprop.38+0x86>
    1724:	e080      	b.n	1828 <lfs_dir_getslice.constprop.38+0x188>
    1726:	4653      	mov	r3, sl
    1728:	6819      	ldr	r1, [r3, #0]
    172a:	4643      	mov	r3, r8
    172c:	18ad      	adds	r5, r5, r2
    172e:	6e9a      	ldr	r2, [r3, #104]	; 0x68
    1730:	6a13      	ldr	r3, [r2, #32]
    1732:	4299      	cmp	r1, r3
    1734:	d300      	bcc.n	1738 <lfs_dir_getslice.constprop.38+0x98>
    1736:	e07a      	b.n	182e <lfs_dir_getslice.constprop.38+0x18e>
    1738:	69d2      	ldr	r2, [r2, #28]
    173a:	1d2b      	adds	r3, r5, #4
    173c:	4293      	cmp	r3, r2
    173e:	d900      	bls.n	1742 <lfs_dir_getslice.constprop.38+0xa2>
    1740:	e075      	b.n	182e <lfs_dir_getslice.constprop.38+0x18e>
    1742:	2304      	movs	r3, #4
    1744:	9303      	str	r3, [sp, #12]
    1746:	ab07      	add	r3, sp, #28
    1748:	9302      	str	r3, [sp, #8]
    174a:	9100      	str	r1, [sp, #0]
    174c:	9501      	str	r5, [sp, #4]
    174e:	2304      	movs	r3, #4
    1750:	4642      	mov	r2, r8
    1752:	2100      	movs	r1, #0
    1754:	9804      	ldr	r0, [sp, #16]
    1756:	f7fe fd23 	bl	1a0 <lfs_bd_read.isra.21.part.22>
    175a:	2800      	cmp	r0, #0
    175c:	d14e      	bne.n	17fc <lfs_dir_getslice.constprop.38+0x15c>
    175e:	0d22      	lsrs	r2, r4, #20
    1760:	4694      	mov	ip, r2
    1762:	4649      	mov	r1, r9
    1764:	465a      	mov	r2, fp
    1766:	1a52      	subs	r2, r2, r1
    1768:	21e0      	movs	r1, #224	; 0xe0
    176a:	4660      	mov	r0, ip
    176c:	00c9      	lsls	r1, r1, #3
    176e:	4001      	ands	r1, r0
    1770:	2080      	movs	r0, #128	; 0x80
    1772:	9b07      	ldr	r3, [sp, #28]
    1774:	00c0      	lsls	r0, r0, #3
    1776:	ba1b      	rev	r3, r3
    1778:	4063      	eors	r3, r4
    177a:	005b      	lsls	r3, r3, #1
    177c:	085b      	lsrs	r3, r3, #1
    177e:	9307      	str	r3, [sp, #28]
    1780:	4281      	cmp	r1, r0
    1782:	d1bc      	bne.n	16fe <lfs_dir_getslice.constprop.38+0x5e>
    1784:	0320      	lsls	r0, r4, #12
    1786:	0311      	lsls	r1, r2, #12
    1788:	0d80      	lsrs	r0, r0, #22
    178a:	0d89      	lsrs	r1, r1, #22
    178c:	4288      	cmp	r0, r1
    178e:	d8b6      	bhi.n	16fe <lfs_dir_getslice.constprop.38+0x5e>
    1790:	492f      	ldr	r1, [pc, #188]	; (1850 <lfs_dir_getslice.constprop.38+0x1b0>)
    1792:	4011      	ands	r1, r2
    1794:	4a2f      	ldr	r2, [pc, #188]	; (1854 <lfs_dir_getslice.constprop.38+0x1b4>)
    1796:	430a      	orrs	r2, r1
    1798:	42a2      	cmp	r2, r4
    179a:	d045      	beq.n	1828 <lfs_dir_getslice.constprop.38+0x188>
    179c:	4662      	mov	r2, ip
    179e:	b252      	sxtb	r2, r2
    17a0:	0292      	lsls	r2, r2, #10
    17a2:	4491      	add	r9, r2
    17a4:	4649      	mov	r1, r9
    17a6:	465a      	mov	r2, fp
    17a8:	1a52      	subs	r2, r2, r1
    17aa:	4928      	ldr	r1, [pc, #160]	; (184c <lfs_dir_getslice.constprop.38+0x1ac>)
    17ac:	4062      	eors	r2, r4
    17ae:	420a      	tst	r2, r1
    17b0:	d1a9      	bne.n	1706 <lfs_dir_getslice.constprop.38+0x66>
    17b2:	0033      	movs	r3, r6
    17b4:	4646      	mov	r6, r8
    17b6:	46b8      	mov	r8, r7
    17b8:	001f      	movs	r7, r3
    17ba:	4643      	mov	r3, r8
    17bc:	3301      	adds	r3, #1
    17be:	d033      	beq.n	1828 <lfs_dir_getslice.constprop.38+0x188>
    17c0:	9b13      	ldr	r3, [sp, #76]	; 0x4c
    17c2:	0dbf      	lsrs	r7, r7, #22
    17c4:	429f      	cmp	r7, r3
    17c6:	d835      	bhi.n	1834 <lfs_dir_getslice.constprop.38+0x194>
    17c8:	4653      	mov	r3, sl
    17ca:	681a      	ldr	r2, [r3, #0]
    17cc:	9b05      	ldr	r3, [sp, #20]
    17ce:	6eb1      	ldr	r1, [r6, #104]	; 0x68
    17d0:	3304      	adds	r3, #4
    17d2:	195d      	adds	r5, r3, r5
    17d4:	6a0b      	ldr	r3, [r1, #32]
    17d6:	429a      	cmp	r2, r3
    17d8:	d229      	bcs.n	182e <lfs_dir_getslice.constprop.38+0x18e>
    17da:	69c9      	ldr	r1, [r1, #28]
    17dc:	197b      	adds	r3, r7, r5
    17de:	428b      	cmp	r3, r1
    17e0:	d825      	bhi.n	182e <lfs_dir_getslice.constprop.38+0x18e>
    17e2:	9b12      	ldr	r3, [sp, #72]	; 0x48
    17e4:	9200      	str	r2, [sp, #0]
    17e6:	9302      	str	r3, [sp, #8]
    17e8:	9703      	str	r7, [sp, #12]
    17ea:	9501      	str	r5, [sp, #4]
    17ec:	003b      	movs	r3, r7
    17ee:	0032      	movs	r2, r6
    17f0:	2100      	movs	r1, #0
    17f2:	9804      	ldr	r0, [sp, #16]
    17f4:	f7fe fcd4 	bl	1a0 <lfs_bd_read.isra.21.part.22>
    17f8:	2800      	cmp	r0, #0
    17fa:	d01d      	beq.n	1838 <lfs_dir_getslice.constprop.38+0x198>
    17fc:	b009      	add	sp, #36	; 0x24
    17fe:	bc3c      	pop	{r2, r3, r4, r5}
    1800:	4690      	mov	r8, r2
    1802:	4699      	mov	r9, r3
    1804:	46a2      	mov	sl, r4
    1806:	46ab      	mov	fp, r5
    1808:	bdf0      	pop	{r4, r5, r6, r7, pc}
    180a:	465a      	mov	r2, fp
    180c:	031b      	lsls	r3, r3, #12
    180e:	0312      	lsls	r2, r2, #12
    1810:	0d92      	lsrs	r2, r2, #22
    1812:	0d9b      	lsrs	r3, r3, #22
    1814:	429a      	cmp	r2, r3
    1816:	419b      	sbcs	r3, r3
    1818:	2280      	movs	r2, #128	; 0x80
    181a:	00d2      	lsls	r2, r2, #3
    181c:	4013      	ands	r3, r2
    181e:	4699      	mov	r9, r3
    1820:	4b0d      	ldr	r3, [pc, #52]	; (1858 <lfs_dir_getslice.constprop.38+0x1b8>)
    1822:	469c      	mov	ip, r3
    1824:	44e1      	add	r9, ip
    1826:	e763      	b.n	16f0 <lfs_dir_getslice.constprop.38+0x50>
    1828:	2002      	movs	r0, #2
    182a:	4240      	negs	r0, r0
    182c:	e7e6      	b.n	17fc <lfs_dir_getslice.constprop.38+0x15c>
    182e:	2054      	movs	r0, #84	; 0x54
    1830:	4240      	negs	r0, r0
    1832:	e7e3      	b.n	17fc <lfs_dir_getslice.constprop.38+0x15c>
    1834:	001f      	movs	r7, r3
    1836:	e7c7      	b.n	17c8 <lfs_dir_getslice.constprop.38+0x128>
    1838:	9b13      	ldr	r3, [sp, #76]	; 0x4c
    183a:	2100      	movs	r1, #0
    183c:	1bda      	subs	r2, r3, r7
    183e:	9b12      	ldr	r3, [sp, #72]	; 0x48
    1840:	19d8      	adds	r0, r3, r7
    1842:	f7ff fffe 	bl	0 <memset>
    1846:	0020      	movs	r0, r4
    1848:	4448      	add	r0, r9
    184a:	e7d7      	b.n	17fc <lfs_dir_getslice.constprop.38+0x15c>
    184c:	fff7fc00 	.word	0xfff7fc00
    1850:	000ffc00 	.word	0x000ffc00
    1854:	40100000 	.word	0x40100000
    1858:	fffffc00 	.word	0xfffffc00

0000185c <lfs_dir_getslice.constprop.39>:
    185c:	b5f0      	push	{r4, r5, r6, r7, lr}
    185e:	46de      	mov	lr, fp
    1860:	4657      	mov	r7, sl
    1862:	464e      	mov	r6, r9
    1864:	4645      	mov	r5, r8
    1866:	b5e0      	push	{r5, r6, r7, lr}
    1868:	b08b      	sub	sp, #44	; 0x2c
    186a:	9205      	str	r2, [sp, #20]
    186c:	22e0      	movs	r2, #224	; 0xe0
    186e:	0006      	movs	r6, r0
    1870:	9307      	str	r3, [sp, #28]
    1872:	6bc3      	ldr	r3, [r0, #60]	; 0x3c
    1874:	2000      	movs	r0, #0
    1876:	690c      	ldr	r4, [r1, #16]
    1878:	468b      	mov	fp, r1
    187a:	68cd      	ldr	r5, [r1, #12]
    187c:	00d2      	lsls	r2, r2, #3
    187e:	0d19      	lsrs	r1, r3, #20
    1880:	9409      	str	r4, [sp, #36]	; 0x24
    1882:	4682      	mov	sl, r0
    1884:	4211      	tst	r1, r2
    1886:	d011      	beq.n	18ac <lfs_dir_getslice.constprop.39+0x50>
    1888:	4659      	mov	r1, fp
    188a:	6c32      	ldr	r2, [r6, #64]	; 0x40
    188c:	6809      	ldr	r1, [r1, #0]
    188e:	428a      	cmp	r2, r1
    1890:	d100      	bne.n	1894 <lfs_dir_getslice.constprop.39+0x38>
    1892:	e098      	b.n	19c6 <lfs_dir_getslice.constprop.39+0x16a>
    1894:	4658      	mov	r0, fp
    1896:	6c77      	ldr	r7, [r6, #68]	; 0x44
    1898:	6840      	ldr	r0, [r0, #4]
    189a:	4287      	cmp	r7, r0
    189c:	d100      	bne.n	18a0 <lfs_dir_getslice.constprop.39+0x44>
    189e:	e092      	b.n	19c6 <lfs_dir_getslice.constprop.39+0x16a>
    18a0:	4282      	cmp	r2, r0
    18a2:	d100      	bne.n	18a6 <lfs_dir_getslice.constprop.39+0x4a>
    18a4:	e08f      	b.n	19c6 <lfs_dir_getslice.constprop.39+0x16a>
    18a6:	42b9      	cmp	r1, r7
    18a8:	d100      	bne.n	18ac <lfs_dir_getslice.constprop.39+0x50>
    18aa:	e08c      	b.n	19c6 <lfs_dir_getslice.constprop.39+0x16a>
    18ac:	2368      	movs	r3, #104	; 0x68
    18ae:	469c      	mov	ip, r3
    18b0:	44b4      	add	ip, r6
    18b2:	4663      	mov	r3, ip
    18b4:	46b0      	mov	r8, r6
    18b6:	9306      	str	r3, [sp, #24]
    18b8:	e004      	b.n	18c4 <lfs_dir_getslice.constprop.39+0x68>
    18ba:	4953      	ldr	r1, [pc, #332]	; (1a08 <lfs_dir_getslice.constprop.39+0x1ac>)
    18bc:	4062      	eors	r2, r4
    18be:	420a      	tst	r2, r1
    18c0:	d056      	beq.n	1970 <lfs_dir_getslice.constprop.39+0x114>
    18c2:	001c      	movs	r4, r3
    18c4:	05a6      	lsls	r6, r4, #22
    18c6:	15b7      	asrs	r7, r6, #22
    18c8:	1c7b      	adds	r3, r7, #1
    18ca:	425a      	negs	r2, r3
    18cc:	4153      	adcs	r3, r2
    18ce:	2204      	movs	r2, #4
    18d0:	191b      	adds	r3, r3, r4
    18d2:	059b      	lsls	r3, r3, #22
    18d4:	0d9b      	lsrs	r3, r3, #22
    18d6:	4252      	negs	r2, r2
    18d8:	1ad2      	subs	r2, r2, r3
    18da:	3308      	adds	r3, #8
    18dc:	429d      	cmp	r5, r3
    18de:	d200      	bcs.n	18e2 <lfs_dir_getslice.constprop.39+0x86>
    18e0:	e080      	b.n	19e4 <lfs_dir_getslice.constprop.39+0x188>
    18e2:	465b      	mov	r3, fp
    18e4:	18ad      	adds	r5, r5, r2
    18e6:	681a      	ldr	r2, [r3, #0]
    18e8:	4643      	mov	r3, r8
    18ea:	6e9b      	ldr	r3, [r3, #104]	; 0x68
    18ec:	6a19      	ldr	r1, [r3, #32]
    18ee:	428a      	cmp	r2, r1
    18f0:	d300      	bcc.n	18f4 <lfs_dir_getslice.constprop.39+0x98>
    18f2:	e07a      	b.n	19ea <lfs_dir_getslice.constprop.39+0x18e>
    18f4:	69db      	ldr	r3, [r3, #28]
    18f6:	1d29      	adds	r1, r5, #4
    18f8:	4689      	mov	r9, r1
    18fa:	4299      	cmp	r1, r3
    18fc:	d900      	bls.n	1900 <lfs_dir_getslice.constprop.39+0xa4>
    18fe:	e074      	b.n	19ea <lfs_dir_getslice.constprop.39+0x18e>
    1900:	2304      	movs	r3, #4
    1902:	9303      	str	r3, [sp, #12]
    1904:	ab09      	add	r3, sp, #36	; 0x24
    1906:	9302      	str	r3, [sp, #8]
    1908:	9200      	str	r2, [sp, #0]
    190a:	9501      	str	r5, [sp, #4]
    190c:	2304      	movs	r3, #4
    190e:	4642      	mov	r2, r8
    1910:	2100      	movs	r1, #0
    1912:	9806      	ldr	r0, [sp, #24]
    1914:	f7fe fc44 	bl	1a0 <lfs_bd_read.isra.21.part.22>
    1918:	2800      	cmp	r0, #0
    191a:	d14d      	bne.n	19b8 <lfs_dir_getslice.constprop.39+0x15c>
    191c:	0d22      	lsrs	r2, r4, #20
    191e:	4651      	mov	r1, sl
    1920:	4694      	mov	ip, r2
    1922:	9a05      	ldr	r2, [sp, #20]
    1924:	4660      	mov	r0, ip
    1926:	1a52      	subs	r2, r2, r1
    1928:	21e0      	movs	r1, #224	; 0xe0
    192a:	00c9      	lsls	r1, r1, #3
    192c:	4001      	ands	r1, r0
    192e:	2080      	movs	r0, #128	; 0x80
    1930:	9b09      	ldr	r3, [sp, #36]	; 0x24
    1932:	00c0      	lsls	r0, r0, #3
    1934:	ba1b      	rev	r3, r3
    1936:	4063      	eors	r3, r4
    1938:	005b      	lsls	r3, r3, #1
    193a:	085b      	lsrs	r3, r3, #1
    193c:	9309      	str	r3, [sp, #36]	; 0x24
    193e:	4281      	cmp	r1, r0
    1940:	d1bb      	bne.n	18ba <lfs_dir_getslice.constprop.39+0x5e>
    1942:	0320      	lsls	r0, r4, #12
    1944:	0311      	lsls	r1, r2, #12
    1946:	0d80      	lsrs	r0, r0, #22
    1948:	0d89      	lsrs	r1, r1, #22
    194a:	4288      	cmp	r0, r1
    194c:	d8b5      	bhi.n	18ba <lfs_dir_getslice.constprop.39+0x5e>
    194e:	492f      	ldr	r1, [pc, #188]	; (1a0c <lfs_dir_getslice.constprop.39+0x1b0>)
    1950:	4011      	ands	r1, r2
    1952:	4a2f      	ldr	r2, [pc, #188]	; (1a10 <lfs_dir_getslice.constprop.39+0x1b4>)
    1954:	430a      	orrs	r2, r1
    1956:	42a2      	cmp	r2, r4
    1958:	d044      	beq.n	19e4 <lfs_dir_getslice.constprop.39+0x188>
    195a:	4662      	mov	r2, ip
    195c:	b252      	sxtb	r2, r2
    195e:	0292      	lsls	r2, r2, #10
    1960:	4492      	add	sl, r2
    1962:	4651      	mov	r1, sl
    1964:	9a05      	ldr	r2, [sp, #20]
    1966:	1a52      	subs	r2, r2, r1
    1968:	4927      	ldr	r1, [pc, #156]	; (1a08 <lfs_dir_getslice.constprop.39+0x1ac>)
    196a:	4062      	eors	r2, r4
    196c:	420a      	tst	r2, r1
    196e:	d1a8      	bne.n	18c2 <lfs_dir_getslice.constprop.39+0x66>
    1970:	0033      	movs	r3, r6
    1972:	4646      	mov	r6, r8
    1974:	46b8      	mov	r8, r7
    1976:	001f      	movs	r7, r3
    1978:	4643      	mov	r3, r8
    197a:	3301      	adds	r3, #1
    197c:	d032      	beq.n	19e4 <lfs_dir_getslice.constprop.39+0x188>
    197e:	9b14      	ldr	r3, [sp, #80]	; 0x50
    1980:	0dbf      	lsrs	r7, r7, #22
    1982:	429f      	cmp	r7, r3
    1984:	d834      	bhi.n	19f0 <lfs_dir_getslice.constprop.39+0x194>
    1986:	465b      	mov	r3, fp
    1988:	6eb1      	ldr	r1, [r6, #104]	; 0x68
    198a:	681a      	ldr	r2, [r3, #0]
    198c:	6a0b      	ldr	r3, [r1, #32]
    198e:	429a      	cmp	r2, r3
    1990:	d22b      	bcs.n	19ea <lfs_dir_getslice.constprop.39+0x18e>
    1992:	464b      	mov	r3, r9
    1994:	69c9      	ldr	r1, [r1, #28]
    1996:	18fb      	adds	r3, r7, r3
    1998:	428b      	cmp	r3, r1
    199a:	d826      	bhi.n	19ea <lfs_dir_getslice.constprop.39+0x18e>
    199c:	9b07      	ldr	r3, [sp, #28]
    199e:	9200      	str	r2, [sp, #0]
    19a0:	9302      	str	r3, [sp, #8]
    19a2:	464b      	mov	r3, r9
    19a4:	9703      	str	r7, [sp, #12]
    19a6:	9301      	str	r3, [sp, #4]
    19a8:	0032      	movs	r2, r6
    19aa:	003b      	movs	r3, r7
    19ac:	2100      	movs	r1, #0
    19ae:	9806      	ldr	r0, [sp, #24]
    19b0:	f7fe fbf6 	bl	1a0 <lfs_bd_read.isra.21.part.22>
    19b4:	2800      	cmp	r0, #0
    19b6:	d01d      	beq.n	19f4 <lfs_dir_getslice.constprop.39+0x198>
    19b8:	b00b      	add	sp, #44	; 0x2c
    19ba:	bc3c      	pop	{r2, r3, r4, r5}
    19bc:	4690      	mov	r8, r2
    19be:	4699      	mov	r9, r3
    19c0:	46a2      	mov	sl, r4
    19c2:	46ab      	mov	fp, r5
    19c4:	bdf0      	pop	{r4, r5, r6, r7, pc}
    19c6:	9a05      	ldr	r2, [sp, #20]
    19c8:	031b      	lsls	r3, r3, #12
    19ca:	0312      	lsls	r2, r2, #12
    19cc:	0d92      	lsrs	r2, r2, #22
    19ce:	0d9b      	lsrs	r3, r3, #22
    19d0:	429a      	cmp	r2, r3
    19d2:	419b      	sbcs	r3, r3
    19d4:	2280      	movs	r2, #128	; 0x80
    19d6:	00d2      	lsls	r2, r2, #3
    19d8:	4013      	ands	r3, r2
    19da:	469a      	mov	sl, r3
    19dc:	4b0d      	ldr	r3, [pc, #52]	; (1a14 <lfs_dir_getslice.constprop.39+0x1b8>)
    19de:	469c      	mov	ip, r3
    19e0:	44e2      	add	sl, ip
    19e2:	e763      	b.n	18ac <lfs_dir_getslice.constprop.39+0x50>
    19e4:	2002      	movs	r0, #2
    19e6:	4240      	negs	r0, r0
    19e8:	e7e6      	b.n	19b8 <lfs_dir_getslice.constprop.39+0x15c>
    19ea:	2054      	movs	r0, #84	; 0x54
    19ec:	4240      	negs	r0, r0
    19ee:	e7e3      	b.n	19b8 <lfs_dir_getslice.constprop.39+0x15c>
    19f0:	001f      	movs	r7, r3
    19f2:	e7c8      	b.n	1986 <lfs_dir_getslice.constprop.39+0x12a>
    19f4:	9b14      	ldr	r3, [sp, #80]	; 0x50
    19f6:	2100      	movs	r1, #0
    19f8:	1bda      	subs	r2, r3, r7
    19fa:	9b07      	ldr	r3, [sp, #28]
    19fc:	19d8      	adds	r0, r3, r7
    19fe:	f7ff fffe 	bl	0 <memset>
    1a02:	0020      	movs	r0, r4
    1a04:	4450      	add	r0, sl
    1a06:	e7d7      	b.n	19b8 <lfs_dir_getslice.constprop.39+0x15c>
    1a08:	700ffc00 	.word	0x700ffc00
    1a0c:	000ffc00 	.word	0x000ffc00
    1a10:	40100000 	.word	0x40100000
    1a14:	fffffc00 	.word	0xfffffc00

00001a18 <lfs_fs_rawtraverse.constprop.37>:
    1a18:	b5f0      	push	{r4, r5, r6, r7, lr}
    1a1a:	464e      	mov	r6, r9
    1a1c:	4645      	mov	r5, r8
    1a1e:	46de      	mov	lr, fp
    1a20:	4657      	mov	r7, sl
    1a22:	b5e0      	push	{r5, r6, r7, lr}
    1a24:	b091      	sub	sp, #68	; 0x44
    1a26:	ad08      	add	r5, sp, #32
    1a28:	0006      	movs	r6, r0
    1a2a:	4689      	mov	r9, r1
    1a2c:	221c      	movs	r2, #28
    1a2e:	2100      	movs	r1, #0
    1a30:	0028      	movs	r0, r5
    1a32:	f7ff fffe 	bl	0 <memset>
    1a36:	2301      	movs	r3, #1
    1a38:	61eb      	str	r3, [r5, #28]
    1a3a:	6eb3      	ldr	r3, [r6, #104]	; 0x68
    1a3c:	6a1b      	ldr	r3, [r3, #32]
    1a3e:	085b      	lsrs	r3, r3, #1
    1a40:	d042      	beq.n	1ac8 <lfs_fs_rawtraverse.constprop.37+0xb0>
    1a42:	2300      	movs	r3, #0
    1a44:	9304      	str	r3, [sp, #16]
    1a46:	3b01      	subs	r3, #1
    1a48:	469b      	mov	fp, r3
    1a4a:	4b4d      	ldr	r3, [pc, #308]	; (1b80 <lfs_fs_rawtraverse.constprop.37+0x168>)
    1a4c:	469a      	mov	sl, r3
    1a4e:	464b      	mov	r3, r9
    1a50:	464a      	mov	r2, r9
    1a52:	681b      	ldr	r3, [r3, #0]
    1a54:	0029      	movs	r1, r5
    1a56:	3302      	adds	r3, #2
    1a58:	6013      	str	r3, [r2, #0]
    1a5a:	2300      	movs	r3, #0
    1a5c:	9303      	str	r3, [sp, #12]
    1a5e:	9302      	str	r3, [sp, #8]
    1a60:	9301      	str	r3, [sp, #4]
    1a62:	465b      	mov	r3, fp
    1a64:	9300      	str	r3, [sp, #0]
    1a66:	2301      	movs	r3, #1
    1a68:	aa0e      	add	r2, sp, #56	; 0x38
    1a6a:	425b      	negs	r3, r3
    1a6c:	0030      	movs	r0, r6
    1a6e:	f7ff f9fb 	bl	e68 <lfs_dir_fetchmatch>
    1a72:	2800      	cmp	r0, #0
    1a74:	d12d      	bne.n	1ad2 <lfs_fs_rawtraverse.constprop.37+0xba>
    1a76:	8aab      	ldrh	r3, [r5, #20]
    1a78:	2400      	movs	r4, #0
    1a7a:	2b00      	cmp	r3, #0
    1a7c:	d015      	beq.n	1aaa <lfs_fs_rawtraverse.constprop.37+0x92>
    1a7e:	4b41      	ldr	r3, [pc, #260]	; (1b84 <lfs_fs_rawtraverse.constprop.37+0x16c>)
    1a80:	2708      	movs	r7, #8
    1a82:	4698      	mov	r8, r3
    1a84:	4643      	mov	r3, r8
    1a86:	02a2      	lsls	r2, r4, #10
    1a88:	431a      	orrs	r2, r3
    1a8a:	9700      	str	r7, [sp, #0]
    1a8c:	ab06      	add	r3, sp, #24
    1a8e:	0029      	movs	r1, r5
    1a90:	0030      	movs	r0, r6
    1a92:	f7ff fee3 	bl	185c <lfs_dir_getslice.constprop.39>
    1a96:	2800      	cmp	r0, #0
    1a98:	db19      	blt.n	1ace <lfs_fs_rawtraverse.constprop.37+0xb6>
    1a9a:	0d00      	lsrs	r0, r0, #20
    1a9c:	4550      	cmp	r0, sl
    1a9e:	d01f      	beq.n	1ae0 <lfs_fs_rawtraverse.constprop.37+0xc8>
    1aa0:	3401      	adds	r4, #1
    1aa2:	8aab      	ldrh	r3, [r5, #20]
    1aa4:	b2a4      	uxth	r4, r4
    1aa6:	42a3      	cmp	r3, r4
    1aa8:	d8ec      	bhi.n	1a84 <lfs_fs_rawtraverse.constprop.37+0x6c>
    1aaa:	9b04      	ldr	r3, [sp, #16]
    1aac:	3301      	adds	r3, #1
    1aae:	9304      	str	r3, [sp, #16]
    1ab0:	9b0e      	ldr	r3, [sp, #56]	; 0x38
    1ab2:	3301      	adds	r3, #1
    1ab4:	d025      	beq.n	1b02 <lfs_fs_rawtraverse.constprop.37+0xea>
    1ab6:	9b0f      	ldr	r3, [sp, #60]	; 0x3c
    1ab8:	3301      	adds	r3, #1
    1aba:	d022      	beq.n	1b02 <lfs_fs_rawtraverse.constprop.37+0xea>
    1abc:	6eb3      	ldr	r3, [r6, #104]	; 0x68
    1abe:	9a04      	ldr	r2, [sp, #16]
    1ac0:	6a1b      	ldr	r3, [r3, #32]
    1ac2:	085b      	lsrs	r3, r3, #1
    1ac4:	4293      	cmp	r3, r2
    1ac6:	d8c2      	bhi.n	1a4e <lfs_fs_rawtraverse.constprop.37+0x36>
    1ac8:	2054      	movs	r0, #84	; 0x54
    1aca:	4240      	negs	r0, r0
    1acc:	e001      	b.n	1ad2 <lfs_fs_rawtraverse.constprop.37+0xba>
    1ace:	1c83      	adds	r3, r0, #2
    1ad0:	d0e6      	beq.n	1aa0 <lfs_fs_rawtraverse.constprop.37+0x88>
    1ad2:	b011      	add	sp, #68	; 0x44
    1ad4:	bc3c      	pop	{r2, r3, r4, r5}
    1ad6:	4690      	mov	r8, r2
    1ad8:	4699      	mov	r9, r3
    1ada:	46a2      	mov	sl, r4
    1adc:	46ab      	mov	fp, r5
    1ade:	bdf0      	pop	{r4, r5, r6, r7, pc}
    1ae0:	9b07      	ldr	r3, [sp, #28]
    1ae2:	2b00      	cmp	r3, #0
    1ae4:	d0dc      	beq.n	1aa0 <lfs_fs_rawtraverse.constprop.37+0x88>
    1ae6:	9a06      	ldr	r2, [sp, #24]
    1ae8:	9300      	str	r3, [sp, #0]
    1aea:	9205      	str	r2, [sp, #20]
    1aec:	464a      	mov	r2, r9
    1aee:	9b05      	ldr	r3, [sp, #20]
    1af0:	9201      	str	r2, [sp, #4]
    1af2:	2100      	movs	r1, #0
    1af4:	0032      	movs	r2, r6
    1af6:	0030      	movs	r0, r6
    1af8:	f7fe fc78 	bl	3ec <lfs_ctz_traverse.part.23.constprop.40>
    1afc:	2800      	cmp	r0, #0
    1afe:	d0cf      	beq.n	1aa0 <lfs_fs_rawtraverse.constprop.37+0x88>
    1b00:	e7e7      	b.n	1ad2 <lfs_fs_rawtraverse.constprop.37+0xba>
    1b02:	6ab4      	ldr	r4, [r6, #40]	; 0x28
    1b04:	2c00      	cmp	r4, #0
    1b06:	d039      	beq.n	1b7c <lfs_fs_rawtraverse.constprop.37+0x164>
    1b08:	2390      	movs	r3, #144	; 0x90
    1b0a:	2788      	movs	r7, #136	; 0x88
    1b0c:	2580      	movs	r5, #128	; 0x80
    1b0e:	035b      	lsls	r3, r3, #13
    1b10:	037f      	lsls	r7, r7, #13
    1b12:	026d      	lsls	r5, r5, #9
    1b14:	4698      	mov	r8, r3
    1b16:	e008      	b.n	1b2a <lfs_fs_rawtraverse.constprop.37+0x112>
    1b18:	4642      	mov	r2, r8
    1b1a:	4013      	ands	r3, r2
    1b1c:	2280      	movs	r2, #128	; 0x80
    1b1e:	0292      	lsls	r2, r2, #10
    1b20:	4293      	cmp	r3, r2
    1b22:	d01b      	beq.n	1b5c <lfs_fs_rawtraverse.constprop.37+0x144>
    1b24:	6824      	ldr	r4, [r4, #0]
    1b26:	2c00      	cmp	r4, #0
    1b28:	d028      	beq.n	1b7c <lfs_fs_rawtraverse.constprop.37+0x164>
    1b2a:	79a3      	ldrb	r3, [r4, #6]
    1b2c:	2b01      	cmp	r3, #1
    1b2e:	d1f9      	bne.n	1b24 <lfs_fs_rawtraverse.constprop.37+0x10c>
    1b30:	6b23      	ldr	r3, [r4, #48]	; 0x30
    1b32:	001a      	movs	r2, r3
    1b34:	403a      	ands	r2, r7
    1b36:	42aa      	cmp	r2, r5
    1b38:	d1ee      	bne.n	1b18 <lfs_fs_rawtraverse.constprop.37+0x100>
    1b3a:	6ae2      	ldr	r2, [r4, #44]	; 0x2c
    1b3c:	2a00      	cmp	r2, #0
    1b3e:	d0eb      	beq.n	1b18 <lfs_fs_rawtraverse.constprop.37+0x100>
    1b40:	4649      	mov	r1, r9
    1b42:	6aa3      	ldr	r3, [r4, #40]	; 0x28
    1b44:	9101      	str	r1, [sp, #4]
    1b46:	0021      	movs	r1, r4
    1b48:	9200      	str	r2, [sp, #0]
    1b4a:	3140      	adds	r1, #64	; 0x40
    1b4c:	0032      	movs	r2, r6
    1b4e:	0030      	movs	r0, r6
    1b50:	f7fe fc4c 	bl	3ec <lfs_ctz_traverse.part.23.constprop.40>
    1b54:	2800      	cmp	r0, #0
    1b56:	d1bc      	bne.n	1ad2 <lfs_fs_rawtraverse.constprop.37+0xba>
    1b58:	6b23      	ldr	r3, [r4, #48]	; 0x30
    1b5a:	e7dd      	b.n	1b18 <lfs_fs_rawtraverse.constprop.37+0x100>
    1b5c:	6b62      	ldr	r2, [r4, #52]	; 0x34
    1b5e:	2a00      	cmp	r2, #0
    1b60:	d0e0      	beq.n	1b24 <lfs_fs_rawtraverse.constprop.37+0x10c>
    1b62:	4649      	mov	r1, r9
    1b64:	6ba3      	ldr	r3, [r4, #56]	; 0x38
    1b66:	9101      	str	r1, [sp, #4]
    1b68:	0021      	movs	r1, r4
    1b6a:	9200      	str	r2, [sp, #0]
    1b6c:	3140      	adds	r1, #64	; 0x40
    1b6e:	0032      	movs	r2, r6
    1b70:	0030      	movs	r0, r6
    1b72:	f7fe fc3b 	bl	3ec <lfs_ctz_traverse.part.23.constprop.40>
    1b76:	2800      	cmp	r0, #0
    1b78:	d0d4      	beq.n	1b24 <lfs_fs_rawtraverse.constprop.37+0x10c>
    1b7a:	e7aa      	b.n	1ad2 <lfs_fs_rawtraverse.constprop.37+0xba>
    1b7c:	2000      	movs	r0, #0
    1b7e:	e7a8      	b.n	1ad2 <lfs_fs_rawtraverse.constprop.37+0xba>
    1b80:	00000202 	.word	0x00000202
    1b84:	20000008 	.word	0x20000008

00001b88 <lfs_dir_find>:
    1b88:	b5f0      	push	{r4, r5, r6, r7, lr}
    1b8a:	4657      	mov	r7, sl
    1b8c:	464e      	mov	r6, r9
    1b8e:	46de      	mov	lr, fp
    1b90:	4645      	mov	r5, r8
    1b92:	b5e0      	push	{r5, r6, r7, lr}
    1b94:	4689      	mov	r9, r1
    1b96:	6811      	ldr	r1, [r2, #0]
    1b98:	b08d      	sub	sp, #52	; 0x34
    1b9a:	9207      	str	r2, [sp, #28]
    1b9c:	4682      	mov	sl, r0
    1b9e:	9306      	str	r3, [sp, #24]
    1ba0:	9105      	str	r1, [sp, #20]
    1ba2:	1e1a      	subs	r2, r3, #0
    1ba4:	d001      	beq.n	1baa <lfs_dir_find+0x22>
    1ba6:	4b51      	ldr	r3, [pc, #324]	; (1cec <lfs_dir_find+0x164>)
    1ba8:	8013      	strh	r3, [r2, #0]
    1baa:	4653      	mov	r3, sl
    1bac:	4651      	mov	r1, sl
    1bae:	464a      	mov	r2, r9
    1bb0:	6a5b      	ldr	r3, [r3, #36]	; 0x24
    1bb2:	6a09      	ldr	r1, [r1, #32]
    1bb4:	4e4e      	ldr	r6, [pc, #312]	; (1cf0 <lfs_dir_find+0x168>)
    1bb6:	4d4f      	ldr	r5, [pc, #316]	; (1cf4 <lfs_dir_find+0x16c>)
    1bb8:	6191      	str	r1, [r2, #24]
    1bba:	61d3      	str	r3, [r2, #28]
    1bbc:	9c05      	ldr	r4, [sp, #20]
    1bbe:	0029      	movs	r1, r5
    1bc0:	0020      	movs	r0, r4
    1bc2:	f7ff fffe 	bl	0 <strspn>
    1bc6:	1827      	adds	r7, r4, r0
    1bc8:	0029      	movs	r1, r5
    1bca:	0038      	movs	r0, r7
    1bcc:	f7ff fffe 	bl	0 <strcspn>
    1bd0:	4680      	mov	r8, r0
    1bd2:	2801      	cmp	r0, #1
    1bd4:	d100      	bne.n	1bd8 <lfs_dir_find+0x50>
    1bd6:	e074      	b.n	1cc2 <lfs_dir_find+0x13a>
    1bd8:	2802      	cmp	r0, #2
    1bda:	d103      	bne.n	1be4 <lfs_dir_find+0x5c>
    1bdc:	783b      	ldrb	r3, [r7, #0]
    1bde:	2b2e      	cmp	r3, #46	; 0x2e
    1be0:	d100      	bne.n	1be4 <lfs_dir_find+0x5c>
    1be2:	e076      	b.n	1cd2 <lfs_dir_find+0x14a>
    1be4:	003b      	movs	r3, r7
    1be6:	4443      	add	r3, r8
    1be8:	9305      	str	r3, [sp, #20]
    1bea:	001c      	movs	r4, r3
    1bec:	2301      	movs	r3, #1
    1bee:	469b      	mov	fp, r3
    1bf0:	003b      	movs	r3, r7
    1bf2:	465f      	mov	r7, fp
    1bf4:	469b      	mov	fp, r3
    1bf6:	0029      	movs	r1, r5
    1bf8:	0020      	movs	r0, r4
    1bfa:	f7ff fffe 	bl	0 <strspn>
    1bfe:	1824      	adds	r4, r4, r0
    1c00:	0029      	movs	r1, r5
    1c02:	0020      	movs	r0, r4
    1c04:	f7ff fffe 	bl	0 <strcspn>
    1c08:	2800      	cmp	r0, #0
    1c0a:	d010      	beq.n	1c2e <lfs_dir_find+0xa6>
    1c0c:	2802      	cmp	r0, #2
    1c0e:	d002      	beq.n	1c16 <lfs_dir_find+0x8e>
    1c10:	3701      	adds	r7, #1
    1c12:	1824      	adds	r4, r4, r0
    1c14:	e7ef      	b.n	1bf6 <lfs_dir_find+0x6e>
    1c16:	7823      	ldrb	r3, [r4, #0]
    1c18:	2b2e      	cmp	r3, #46	; 0x2e
    1c1a:	d1f9      	bne.n	1c10 <lfs_dir_find+0x88>
    1c1c:	7863      	ldrb	r3, [r4, #1]
    1c1e:	2b2e      	cmp	r3, #46	; 0x2e
    1c20:	d1f6      	bne.n	1c10 <lfs_dir_find+0x88>
    1c22:	3f01      	subs	r7, #1
    1c24:	2f00      	cmp	r7, #0
    1c26:	d1f4      	bne.n	1c12 <lfs_dir_find+0x8a>
    1c28:	1ca3      	adds	r3, r4, #2
    1c2a:	9305      	str	r3, [sp, #20]
    1c2c:	e7c6      	b.n	1bbc <lfs_dir_find+0x34>
    1c2e:	465f      	mov	r7, fp
    1c30:	783b      	ldrb	r3, [r7, #0]
    1c32:	2b00      	cmp	r3, #0
    1c34:	d03d      	beq.n	1cb2 <lfs_dir_find+0x12a>
    1c36:	9b07      	ldr	r3, [sp, #28]
    1c38:	601f      	str	r7, [r3, #0]
    1c3a:	0d33      	lsrs	r3, r6, #20
    1c3c:	2b02      	cmp	r3, #2
    1c3e:	d151      	bne.n	1ce4 <lfs_dir_find+0x15c>
    1c40:	3316      	adds	r3, #22
    1c42:	444b      	add	r3, r9
    1c44:	469b      	mov	fp, r3
    1c46:	4b29      	ldr	r3, [pc, #164]	; (1cec <lfs_dir_find+0x164>)
    1c48:	0336      	lsls	r6, r6, #12
    1c4a:	0db6      	lsrs	r6, r6, #22
    1c4c:	429e      	cmp	r6, r3
    1c4e:	d00b      	beq.n	1c68 <lfs_dir_find+0xe0>
    1c50:	2308      	movs	r3, #8
    1c52:	4a29      	ldr	r2, [pc, #164]	; (1cf8 <lfs_dir_find+0x170>)
    1c54:	02b6      	lsls	r6, r6, #10
    1c56:	4332      	orrs	r2, r6
    1c58:	9300      	str	r3, [sp, #0]
    1c5a:	4649      	mov	r1, r9
    1c5c:	465b      	mov	r3, fp
    1c5e:	4650      	mov	r0, sl
    1c60:	f7ff fdfc 	bl	185c <lfs_dir_getslice.constprop.39>
    1c64:	1e06      	subs	r6, r0, #0
    1c66:	db24      	blt.n	1cb2 <lfs_dir_find+0x12a>
    1c68:	ac09      	add	r4, sp, #36	; 0x24
    1c6a:	4646      	mov	r6, r8
    1c6c:	e017      	b.n	1c9e <lfs_dir_find+0x116>
    1c6e:	2300      	movs	r3, #0
    1c70:	4652      	mov	r2, sl
    1c72:	6067      	str	r7, [r4, #4]
    1c74:	6022      	str	r2, [r4, #0]
    1c76:	60a6      	str	r6, [r4, #8]
    1c78:	9301      	str	r3, [sp, #4]
    1c7a:	23f0      	movs	r3, #240	; 0xf0
    1c7c:	4a1f      	ldr	r2, [pc, #124]	; (1cfc <lfs_dir_find+0x174>)
    1c7e:	9403      	str	r4, [sp, #12]
    1c80:	9202      	str	r2, [sp, #8]
    1c82:	9600      	str	r6, [sp, #0]
    1c84:	05db      	lsls	r3, r3, #23
    1c86:	465a      	mov	r2, fp
    1c88:	4649      	mov	r1, r9
    1c8a:	4650      	mov	r0, sl
    1c8c:	f7ff f8ec 	bl	e68 <lfs_dir_fetchmatch>
    1c90:	2800      	cmp	r0, #0
    1c92:	db23      	blt.n	1cdc <lfs_dir_find+0x154>
    1c94:	d124      	bne.n	1ce0 <lfs_dir_find+0x158>
    1c96:	464b      	mov	r3, r9
    1c98:	7ddb      	ldrb	r3, [r3, #23]
    1c9a:	2b00      	cmp	r3, #0
    1c9c:	d007      	beq.n	1cae <lfs_dir_find+0x126>
    1c9e:	212f      	movs	r1, #47	; 0x2f
    1ca0:	0038      	movs	r0, r7
    1ca2:	f7ff fffe 	bl	0 <strchr>
    1ca6:	2800      	cmp	r0, #0
    1ca8:	d1e1      	bne.n	1c6e <lfs_dir_find+0xe6>
    1caa:	9b06      	ldr	r3, [sp, #24]
    1cac:	e7e0      	b.n	1c70 <lfs_dir_find+0xe8>
    1cae:	2602      	movs	r6, #2
    1cb0:	4276      	negs	r6, r6
    1cb2:	0030      	movs	r0, r6
    1cb4:	b00d      	add	sp, #52	; 0x34
    1cb6:	bc3c      	pop	{r2, r3, r4, r5}
    1cb8:	4690      	mov	r8, r2
    1cba:	4699      	mov	r9, r3
    1cbc:	46a2      	mov	sl, r4
    1cbe:	46ab      	mov	fp, r5
    1cc0:	bdf0      	pop	{r4, r5, r6, r7, pc}
    1cc2:	783b      	ldrb	r3, [r7, #0]
    1cc4:	2b2e      	cmp	r3, #46	; 0x2e
    1cc6:	d000      	beq.n	1cca <lfs_dir_find+0x142>
    1cc8:	e78c      	b.n	1be4 <lfs_dir_find+0x5c>
    1cca:	003b      	movs	r3, r7
    1ccc:	4443      	add	r3, r8
    1cce:	9305      	str	r3, [sp, #20]
    1cd0:	e774      	b.n	1bbc <lfs_dir_find+0x34>
    1cd2:	787b      	ldrb	r3, [r7, #1]
    1cd4:	2b2e      	cmp	r3, #46	; 0x2e
    1cd6:	d000      	beq.n	1cda <lfs_dir_find+0x152>
    1cd8:	e784      	b.n	1be4 <lfs_dir_find+0x5c>
    1cda:	e7f6      	b.n	1cca <lfs_dir_find+0x142>
    1cdc:	0006      	movs	r6, r0
    1cde:	e7e8      	b.n	1cb2 <lfs_dir_find+0x12a>
    1ce0:	0006      	movs	r6, r0
    1ce2:	e76b      	b.n	1bbc <lfs_dir_find+0x34>
    1ce4:	2614      	movs	r6, #20
    1ce6:	4276      	negs	r6, r6
    1ce8:	e7e3      	b.n	1cb2 <lfs_dir_find+0x12a>
    1cea:	46c0      	nop			; (mov r8, r8)
    1cec:	000003ff 	.word	0x000003ff
    1cf0:	002ffc00 	.word	0x002ffc00
    1cf4:	00000078 	.word	0x00000078
    1cf8:	20000008 	.word	0x20000008
    1cfc:	00000000 	.word	0x00000000

00001d00 <lfs_dir_commitcrc>:
    1d00:	b5f0      	push	{r4, r5, r6, r7, lr}
    1d02:	6e83      	ldr	r3, [r0, #104]	; 0x68
    1d04:	46de      	mov	lr, fp
    1d06:	4657      	mov	r7, sl
    1d08:	464e      	mov	r6, r9
    1d0a:	4645      	mov	r5, r8
    1d0c:	469a      	mov	sl, r3
    1d0e:	b5e0      	push	{r5, r6, r7, lr}
    1d10:	699b      	ldr	r3, [r3, #24]
    1d12:	684e      	ldr	r6, [r1, #4]
    1d14:	b093      	sub	sp, #76	; 0x4c
    1d16:	18f4      	adds	r4, r6, r3
    1d18:	4653      	mov	r3, sl
    1d1a:	3407      	adds	r4, #7
    1d1c:	0007      	movs	r7, r0
    1d1e:	4689      	mov	r9, r1
    1d20:	0020      	movs	r0, r4
    1d22:	6999      	ldr	r1, [r3, #24]
    1d24:	f7ff fffe 	bl	0 <__aeabi_uidivmod>
    1d28:	1a63      	subs	r3, r4, r1
    1d2a:	469b      	mov	fp, r3
    1d2c:	429e      	cmp	r6, r3
    1d2e:	d300      	bcc.n	1d32 <lfs_dir_commitcrc+0x32>
    1d30:	e17d      	b.n	202e <lfs_dir_commitcrc+0x32e>
    1d32:	2368      	movs	r3, #104	; 0x68
    1d34:	469c      	mov	ip, r3
    1d36:	44bc      	add	ip, r7
    1d38:	4663      	mov	r3, ip
    1d3a:	9307      	str	r3, [sp, #28]
    1d3c:	2300      	movs	r3, #0
    1d3e:	0035      	movs	r5, r6
    1d40:	464c      	mov	r4, r9
    1d42:	4656      	mov	r6, sl
    1d44:	9309      	str	r3, [sp, #36]	; 0x24
    1d46:	9306      	str	r3, [sp, #24]
    1d48:	3b08      	subs	r3, #8
    1d4a:	445b      	add	r3, fp
    1d4c:	930a      	str	r3, [sp, #40]	; 0x28
    1d4e:	1d2b      	adds	r3, r5, #4
    1d50:	4698      	mov	r8, r3
    1d52:	465b      	mov	r3, fp
    1d54:	4642      	mov	r2, r8
    1d56:	1a9d      	subs	r5, r3, r2
    1d58:	4bb7      	ldr	r3, [pc, #732]	; (2038 <lfs_dir_commitcrc+0x338>)
    1d5a:	429d      	cmp	r5, r3
    1d5c:	d900      	bls.n	1d60 <lfs_dir_commitcrc+0x60>
    1d5e:	001d      	movs	r5, r3
    1d60:	4445      	add	r5, r8
    1d62:	455d      	cmp	r5, fp
    1d64:	d203      	bcs.n	1d6e <lfs_dir_commitcrc+0x6e>
    1d66:	9b0a      	ldr	r3, [sp, #40]	; 0x28
    1d68:	429d      	cmp	r5, r3
    1d6a:	d900      	bls.n	1d6e <lfs_dir_commitcrc+0x6e>
    1d6c:	001d      	movs	r5, r3
    1d6e:	2301      	movs	r3, #1
    1d70:	425b      	negs	r3, r3
    1d72:	930f      	str	r3, [sp, #60]	; 0x3c
    1d74:	6822      	ldr	r2, [r4, #0]
    1d76:	6a33      	ldr	r3, [r6, #32]
    1d78:	429a      	cmp	r2, r3
    1d7a:	d300      	bcc.n	1d7e <lfs_dir_commitcrc+0x7e>
    1d7c:	e144      	b.n	2008 <lfs_dir_commitcrc+0x308>
    1d7e:	69f1      	ldr	r1, [r6, #28]
    1d80:	1d2b      	adds	r3, r5, #4
    1d82:	428b      	cmp	r3, r1
    1d84:	d900      	bls.n	1d88 <lfs_dir_commitcrc+0x88>
    1d86:	e13f      	b.n	2008 <lfs_dir_commitcrc+0x308>
    1d88:	2304      	movs	r3, #4
    1d8a:	9303      	str	r3, [sp, #12]
    1d8c:	ab0f      	add	r3, sp, #60	; 0x3c
    1d8e:	9302      	str	r3, [sp, #8]
    1d90:	9200      	str	r2, [sp, #0]
    1d92:	9501      	str	r5, [sp, #4]
    1d94:	2304      	movs	r3, #4
    1d96:	003a      	movs	r2, r7
    1d98:	2100      	movs	r1, #0
    1d9a:	9807      	ldr	r0, [sp, #28]
    1d9c:	f7fe fa00 	bl	1a0 <lfs_bd_read.isra.21.part.22>
    1da0:	2800      	cmp	r0, #0
    1da2:	d003      	beq.n	1dac <lfs_dir_commitcrc+0xac>
    1da4:	0003      	movs	r3, r0
    1da6:	3354      	adds	r3, #84	; 0x54
    1da8:	d000      	beq.n	1dac <lfs_dir_commitcrc+0xac>
    1daa:	e124      	b.n	1ff6 <lfs_dir_commitcrc+0x2f6>
    1dac:	22a0      	movs	r2, #160	; 0xa0
    1dae:	9b0f      	ldr	r3, [sp, #60]	; 0x3c
    1db0:	00d2      	lsls	r2, r2, #3
    1db2:	ba1b      	rev	r3, r3
    1db4:	43db      	mvns	r3, r3
    1db6:	4694      	mov	ip, r2
    1db8:	9305      	str	r3, [sp, #20]
    1dba:	0fdb      	lsrs	r3, r3, #31
    1dbc:	4463      	add	r3, ip
    1dbe:	051b      	lsls	r3, r3, #20
    1dc0:	4642      	mov	r2, r8
    1dc2:	1aad      	subs	r5, r5, r2
    1dc4:	431d      	orrs	r5, r3
    1dc6:	4b9d      	ldr	r3, [pc, #628]	; (203c <lfs_dir_commitcrc+0x33c>)
    1dc8:	68e0      	ldr	r0, [r4, #12]
    1dca:	431d      	orrs	r5, r3
    1dcc:	68a3      	ldr	r3, [r4, #8]
    1dce:	950f      	str	r5, [sp, #60]	; 0x3c
    1dd0:	405d      	eors	r5, r3
    1dd2:	ba2d      	rev	r5, r5
    1dd4:	2204      	movs	r2, #4
    1dd6:	a910      	add	r1, sp, #64	; 0x40
    1dd8:	9510      	str	r5, [sp, #64]	; 0x40
    1dda:	f7ff fffe 	bl	0 <lfs_crc>
    1dde:	6823      	ldr	r3, [r4, #0]
    1de0:	60e0      	str	r0, [r4, #12]
    1de2:	469a      	mov	sl, r3
    1de4:	ab10      	add	r3, sp, #64	; 0x40
    1de6:	4699      	mov	r9, r3
    1de8:	2308      	movs	r3, #8
    1dea:	4698      	mov	r8, r3
    1dec:	0023      	movs	r3, r4
    1dee:	6865      	ldr	r5, [r4, #4]
    1df0:	9011      	str	r0, [sp, #68]	; 0x44
    1df2:	4644      	mov	r4, r8
    1df4:	6ebe      	ldr	r6, [r7, #104]	; 0x68
    1df6:	46c8      	mov	r8, r9
    1df8:	4699      	mov	r9, r3
    1dfa:	e00b      	b.n	1e14 <lfs_dir_commitcrc+0x114>
    1dfc:	4653      	mov	r3, sl
    1dfe:	69b1      	ldr	r1, [r6, #24]
    1e00:	613b      	str	r3, [r7, #16]
    1e02:	0028      	movs	r0, r5
    1e04:	f7ff fffe 	bl	0 <__aeabi_uidivmod>
    1e08:	2300      	movs	r3, #0
    1e0a:	1a69      	subs	r1, r5, r1
    1e0c:	6179      	str	r1, [r7, #20]
    1e0e:	61bb      	str	r3, [r7, #24]
    1e10:	2c00      	cmp	r4, #0
    1e12:	d04d      	beq.n	1eb0 <lfs_dir_commitcrc+0x1b0>
    1e14:	693b      	ldr	r3, [r7, #16]
    1e16:	459a      	cmp	sl, r3
    1e18:	d1f0      	bne.n	1dfc <lfs_dir_commitcrc+0xfc>
    1e1a:	6978      	ldr	r0, [r7, #20]
    1e1c:	42a8      	cmp	r0, r5
    1e1e:	d8ed      	bhi.n	1dfc <lfs_dir_commitcrc+0xfc>
    1e20:	6ab3      	ldr	r3, [r6, #40]	; 0x28
    1e22:	18c3      	adds	r3, r0, r3
    1e24:	42ab      	cmp	r3, r5
    1e26:	d9e9      	bls.n	1dfc <lfs_dir_commitcrc+0xfc>
    1e28:	1b5e      	subs	r6, r3, r5
    1e2a:	42a6      	cmp	r6, r4
    1e2c:	d900      	bls.n	1e30 <lfs_dir_commitcrc+0x130>
    1e2e:	0026      	movs	r6, r4
    1e30:	69fb      	ldr	r3, [r7, #28]
    1e32:	1a28      	subs	r0, r5, r0
    1e34:	469c      	mov	ip, r3
    1e36:	4641      	mov	r1, r8
    1e38:	4460      	add	r0, ip
    1e3a:	0032      	movs	r2, r6
    1e3c:	f7ff fffe 	bl	0 <memcpy>
    1e40:	697b      	ldr	r3, [r7, #20]
    1e42:	69b9      	ldr	r1, [r7, #24]
    1e44:	19ad      	adds	r5, r5, r6
    1e46:	9308      	str	r3, [sp, #32]
    1e48:	44b0      	add	r8, r6
    1e4a:	1ba4      	subs	r4, r4, r6
    1e4c:	1aeb      	subs	r3, r5, r3
    1e4e:	4299      	cmp	r1, r3
    1e50:	d200      	bcs.n	1e54 <lfs_dir_commitcrc+0x154>
    1e52:	0019      	movs	r1, r3
    1e54:	6ebe      	ldr	r6, [r7, #104]	; 0x68
    1e56:	61b9      	str	r1, [r7, #24]
    1e58:	6ab3      	ldr	r3, [r6, #40]	; 0x28
    1e5a:	4299      	cmp	r1, r3
    1e5c:	d1d8      	bne.n	1e10 <lfs_dir_commitcrc+0x110>
    1e5e:	693b      	ldr	r3, [r7, #16]
    1e60:	930b      	str	r3, [sp, #44]	; 0x2c
    1e62:	3302      	adds	r3, #2
    1e64:	2b01      	cmp	r3, #1
    1e66:	d9d3      	bls.n	1e10 <lfs_dir_commitcrc+0x110>
    1e68:	69b2      	ldr	r2, [r6, #24]
    1e6a:	69f8      	ldr	r0, [r7, #28]
    1e6c:	1e53      	subs	r3, r2, #1
    1e6e:	185a      	adds	r2, r3, r1
    1e70:	900d      	str	r0, [sp, #52]	; 0x34
    1e72:	69b1      	ldr	r1, [r6, #24]
    1e74:	0010      	movs	r0, r2
    1e76:	920c      	str	r2, [sp, #48]	; 0x30
    1e78:	f7ff fffe 	bl	0 <__aeabi_uidivmod>
    1e7c:	9a0c      	ldr	r2, [sp, #48]	; 0x30
    1e7e:	0030      	movs	r0, r6
    1e80:	1a51      	subs	r1, r2, r1
    1e82:	9100      	str	r1, [sp, #0]
    1e84:	68b2      	ldr	r2, [r6, #8]
    1e86:	9b0d      	ldr	r3, [sp, #52]	; 0x34
    1e88:	920c      	str	r2, [sp, #48]	; 0x30
    1e8a:	990b      	ldr	r1, [sp, #44]	; 0x2c
    1e8c:	9a08      	ldr	r2, [sp, #32]
    1e8e:	9e0c      	ldr	r6, [sp, #48]	; 0x30
    1e90:	47b0      	blx	r6
    1e92:	2800      	cmp	r0, #0
    1e94:	d000      	beq.n	1e98 <lfs_dir_commitcrc+0x198>
    1e96:	e0ae      	b.n	1ff6 <lfs_dir_commitcrc+0x2f6>
    1e98:	6ebb      	ldr	r3, [r7, #104]	; 0x68
    1e9a:	21ff      	movs	r1, #255	; 0xff
    1e9c:	6a9a      	ldr	r2, [r3, #40]	; 0x28
    1e9e:	69f8      	ldr	r0, [r7, #28]
    1ea0:	f7ff fffe 	bl	0 <memset>
    1ea4:	2301      	movs	r3, #1
    1ea6:	425b      	negs	r3, r3
    1ea8:	613b      	str	r3, [r7, #16]
    1eaa:	6ebe      	ldr	r6, [r7, #104]	; 0x68
    1eac:	2c00      	cmp	r4, #0
    1eae:	d1b1      	bne.n	1e14 <lfs_dir_commitcrc+0x114>
    1eb0:	464c      	mov	r4, r9
    1eb2:	9b06      	ldr	r3, [sp, #24]
    1eb4:	6865      	ldr	r5, [r4, #4]
    1eb6:	2b00      	cmp	r3, #0
    1eb8:	d103      	bne.n	1ec2 <lfs_dir_commitcrc+0x1c2>
    1eba:	1d2b      	adds	r3, r5, #4
    1ebc:	9306      	str	r3, [sp, #24]
    1ebe:	68e3      	ldr	r3, [r4, #12]
    1ec0:	9309      	str	r3, [sp, #36]	; 0x24
    1ec2:	9a0f      	ldr	r2, [sp, #60]	; 0x3c
    1ec4:	0593      	lsls	r3, r2, #22
    1ec6:	0d9b      	lsrs	r3, r3, #22
    1ec8:	3304      	adds	r3, #4
    1eca:	195d      	adds	r5, r3, r5
    1ecc:	9b05      	ldr	r3, [sp, #20]
    1ece:	6065      	str	r5, [r4, #4]
    1ed0:	0fdb      	lsrs	r3, r3, #31
    1ed2:	07db      	lsls	r3, r3, #31
    1ed4:	4053      	eors	r3, r2
    1ed6:	60a3      	str	r3, [r4, #8]
    1ed8:	2301      	movs	r3, #1
    1eda:	425b      	negs	r3, r3
    1edc:	60e3      	str	r3, [r4, #12]
    1ede:	455d      	cmp	r5, fp
    1ee0:	d200      	bcs.n	1ee4 <lfs_dir_commitcrc+0x1e4>
    1ee2:	e734      	b.n	1d4e <lfs_dir_commitcrc+0x4e>
    1ee4:	46b2      	mov	sl, r6
    1ee6:	46a1      	mov	r9, r4
    1ee8:	2601      	movs	r6, #1
    1eea:	693d      	ldr	r5, [r7, #16]
    1eec:	4276      	negs	r6, r6
    1eee:	1cab      	adds	r3, r5, #2
    1ef0:	603e      	str	r6, [r7, #0]
    1ef2:	2b01      	cmp	r3, #1
    1ef4:	d922      	bls.n	1f3c <lfs_dir_commitcrc+0x23c>
    1ef6:	69bb      	ldr	r3, [r7, #24]
    1ef8:	697a      	ldr	r2, [r7, #20]
    1efa:	199c      	adds	r4, r3, r6
    1efc:	4653      	mov	r3, sl
    1efe:	699b      	ldr	r3, [r3, #24]
    1f00:	4690      	mov	r8, r2
    1f02:	469c      	mov	ip, r3
    1f04:	69fb      	ldr	r3, [r7, #28]
    1f06:	4464      	add	r4, ip
    1f08:	4661      	mov	r1, ip
    1f0a:	0020      	movs	r0, r4
    1f0c:	9305      	str	r3, [sp, #20]
    1f0e:	f7ff fffe 	bl	0 <__aeabi_uidivmod>
    1f12:	4652      	mov	r2, sl
    1f14:	1a64      	subs	r4, r4, r1
    1f16:	9400      	str	r4, [sp, #0]
    1f18:	6894      	ldr	r4, [r2, #8]
    1f1a:	4650      	mov	r0, sl
    1f1c:	9b05      	ldr	r3, [sp, #20]
    1f1e:	4642      	mov	r2, r8
    1f20:	0029      	movs	r1, r5
    1f22:	47a0      	blx	r4
    1f24:	4682      	mov	sl, r0
    1f26:	2800      	cmp	r0, #0
    1f28:	d166      	bne.n	1ff8 <lfs_dir_commitcrc+0x2f8>
    1f2a:	6ebb      	ldr	r3, [r7, #104]	; 0x68
    1f2c:	21ff      	movs	r1, #255	; 0xff
    1f2e:	6a9a      	ldr	r2, [r3, #40]	; 0x28
    1f30:	69f8      	ldr	r0, [r7, #28]
    1f32:	f7ff fffe 	bl	0 <memset>
    1f36:	6ebb      	ldr	r3, [r7, #104]	; 0x68
    1f38:	613e      	str	r6, [r7, #16]
    1f3a:	469a      	mov	sl, r3
    1f3c:	4653      	mov	r3, sl
    1f3e:	4650      	mov	r0, sl
    1f40:	691b      	ldr	r3, [r3, #16]
    1f42:	4798      	blx	r3
    1f44:	4682      	mov	sl, r0
    1f46:	2800      	cmp	r0, #0
    1f48:	d156      	bne.n	1ff8 <lfs_dir_commitcrc+0x2f8>
    1f4a:	464b      	mov	r3, r9
    1f4c:	691a      	ldr	r2, [r3, #16]
    1f4e:	9b06      	ldr	r3, [sp, #24]
    1f50:	9307      	str	r3, [sp, #28]
    1f52:	2368      	movs	r3, #104	; 0x68
    1f54:	469c      	mov	ip, r3
    1f56:	44bc      	add	ip, r7
    1f58:	4663      	mov	r3, ip
    1f5a:	9305      	str	r3, [sp, #20]
    1f5c:	4593      	cmp	fp, r2
    1f5e:	d94b      	bls.n	1ff8 <lfs_dir_commitcrc+0x2f8>
    1f60:	465b      	mov	r3, fp
    1f62:	9308      	str	r3, [sp, #32]
    1f64:	9b06      	ldr	r3, [sp, #24]
    1f66:	46b8      	mov	r8, r7
    1f68:	469b      	mov	fp, r3
    1f6a:	9006      	str	r0, [sp, #24]
    1f6c:	9b07      	ldr	r3, [sp, #28]
    1f6e:	1d1e      	adds	r6, r3, #4
    1f70:	42b2      	cmp	r2, r6
    1f72:	d24e      	bcs.n	2012 <lfs_dir_commitcrc+0x312>
    1f74:	2301      	movs	r3, #1
    1f76:	469a      	mov	sl, r3
    1f78:	4643      	mov	r3, r8
    1f7a:	2501      	movs	r5, #1
    1f7c:	46b0      	mov	r8, r6
    1f7e:	001e      	movs	r6, r3
    1f80:	426d      	negs	r5, r5
    1f82:	af10      	add	r7, sp, #64	; 0x40
    1f84:	455a      	cmp	r2, fp
    1f86:	d102      	bne.n	1f8e <lfs_dir_commitcrc+0x28e>
    1f88:	9b09      	ldr	r3, [sp, #36]	; 0x24
    1f8a:	429d      	cmp	r5, r3
    1f8c:	d141      	bne.n	2012 <lfs_dir_commitcrc+0x312>
    1f8e:	4649      	mov	r1, r9
    1f90:	4643      	mov	r3, r8
    1f92:	6808      	ldr	r0, [r1, #0]
    1f94:	6eb1      	ldr	r1, [r6, #104]	; 0x68
    1f96:	1a9b      	subs	r3, r3, r2
    1f98:	6a0c      	ldr	r4, [r1, #32]
    1f9a:	42a0      	cmp	r0, r4
    1f9c:	d239      	bcs.n	2012 <lfs_dir_commitcrc+0x312>
    1f9e:	69c9      	ldr	r1, [r1, #28]
    1fa0:	1c54      	adds	r4, r2, #1
    1fa2:	428c      	cmp	r4, r1
    1fa4:	d835      	bhi.n	2012 <lfs_dir_commitcrc+0x312>
    1fa6:	4651      	mov	r1, sl
    1fa8:	9201      	str	r2, [sp, #4]
    1faa:	9103      	str	r1, [sp, #12]
    1fac:	9000      	str	r0, [sp, #0]
    1fae:	9702      	str	r7, [sp, #8]
    1fb0:	0032      	movs	r2, r6
    1fb2:	2100      	movs	r1, #0
    1fb4:	9805      	ldr	r0, [sp, #20]
    1fb6:	f7fe f8f3 	bl	1a0 <lfs_bd_read.isra.21.part.22>
    1fba:	2800      	cmp	r0, #0
    1fbc:	d11b      	bne.n	1ff6 <lfs_dir_commitcrc+0x2f6>
    1fbe:	2201      	movs	r2, #1
    1fc0:	0028      	movs	r0, r5
    1fc2:	0039      	movs	r1, r7
    1fc4:	f7ff fffe 	bl	0 <lfs_crc>
    1fc8:	0022      	movs	r2, r4
    1fca:	0005      	movs	r5, r0
    1fcc:	4544      	cmp	r4, r8
    1fce:	d3d9      	bcc.n	1f84 <lfs_dir_commitcrc+0x284>
    1fd0:	46b0      	mov	r8, r6
    1fd2:	2800      	cmp	r0, #0
    1fd4:	d11d      	bne.n	2012 <lfs_dir_commitcrc+0x312>
    1fd6:	9a07      	ldr	r2, [sp, #28]
    1fd8:	9b08      	ldr	r3, [sp, #32]
    1fda:	1a9b      	subs	r3, r3, r2
    1fdc:	4a16      	ldr	r2, [pc, #88]	; (2038 <lfs_dir_commitcrc+0x338>)
    1fde:	4293      	cmp	r3, r2
    1fe0:	d900      	bls.n	1fe4 <lfs_dir_commitcrc+0x2e4>
    1fe2:	0013      	movs	r3, r2
    1fe4:	9a07      	ldr	r2, [sp, #28]
    1fe6:	4694      	mov	ip, r2
    1fe8:	9a08      	ldr	r2, [sp, #32]
    1fea:	4463      	add	r3, ip
    1fec:	429a      	cmp	r2, r3
    1fee:	d814      	bhi.n	201a <lfs_dir_commitcrc+0x31a>
    1ff0:	9b06      	ldr	r3, [sp, #24]
    1ff2:	469a      	mov	sl, r3
    1ff4:	e000      	b.n	1ff8 <lfs_dir_commitcrc+0x2f8>
    1ff6:	4682      	mov	sl, r0
    1ff8:	4650      	mov	r0, sl
    1ffa:	b013      	add	sp, #76	; 0x4c
    1ffc:	bc3c      	pop	{r2, r3, r4, r5}
    1ffe:	4690      	mov	r8, r2
    2000:	4699      	mov	r9, r3
    2002:	46a2      	mov	sl, r4
    2004:	46ab      	mov	fp, r5
    2006:	bdf0      	pop	{r4, r5, r6, r7, pc}
    2008:	23a0      	movs	r3, #160	; 0xa0
    200a:	2200      	movs	r2, #0
    200c:	05db      	lsls	r3, r3, #23
    200e:	9205      	str	r2, [sp, #20]
    2010:	e6d6      	b.n	1dc0 <lfs_dir_commitcrc+0xc0>
    2012:	2354      	movs	r3, #84	; 0x54
    2014:	425b      	negs	r3, r3
    2016:	469a      	mov	sl, r3
    2018:	e7ee      	b.n	1ff8 <lfs_dir_commitcrc+0x2f8>
    201a:	3a08      	subs	r2, #8
    201c:	429a      	cmp	r2, r3
    201e:	d900      	bls.n	2022 <lfs_dir_commitcrc+0x322>
    2020:	001a      	movs	r2, r3
    2022:	1d13      	adds	r3, r2, #4
    2024:	9307      	str	r3, [sp, #28]
    2026:	9b08      	ldr	r3, [sp, #32]
    2028:	4293      	cmp	r3, r2
    202a:	d89f      	bhi.n	1f6c <lfs_dir_commitcrc+0x26c>
    202c:	e7e0      	b.n	1ff0 <lfs_dir_commitcrc+0x2f0>
    202e:	2300      	movs	r3, #0
    2030:	9309      	str	r3, [sp, #36]	; 0x24
    2032:	9306      	str	r3, [sp, #24]
    2034:	e758      	b.n	1ee8 <lfs_dir_commitcrc+0x1e8>
    2036:	46c0      	nop			; (mov r8, r8)
    2038:	000003fe 	.word	0x000003fe
    203c:	000ffc00 	.word	0x000ffc00

00002040 <lfs_alloc>:
    2040:	b5f0      	push	{r4, r5, r6, r7, lr}
    2042:	231f      	movs	r3, #31
    2044:	46de      	mov	lr, fp
    2046:	4657      	mov	r7, sl
    2048:	464e      	mov	r6, r9
    204a:	4645      	mov	r5, r8
    204c:	469b      	mov	fp, r3
    204e:	b5e0      	push	{r5, r6, r7, lr}
    2050:	0007      	movs	r7, r0
    2052:	b097      	sub	sp, #92	; 0x5c
    2054:	9105      	str	r1, [sp, #20]
    2056:	6dbe      	ldr	r6, [r7, #88]	; 0x58
    2058:	6dfb      	ldr	r3, [r7, #92]	; 0x5c
    205a:	6e3d      	ldr	r5, [r7, #96]	; 0x60
    205c:	429e      	cmp	r6, r3
    205e:	d02a      	beq.n	20b6 <lfs_alloc+0x76>
    2060:	0959      	lsrs	r1, r3, #5
    2062:	008a      	lsls	r2, r1, #2
    2064:	4690      	mov	r8, r2
    2066:	465a      	mov	r2, fp
    2068:	401a      	ands	r2, r3
    206a:	4694      	mov	ip, r2
    206c:	2201      	movs	r2, #1
    206e:	4661      	mov	r1, ip
    2070:	408a      	lsls	r2, r1
    2072:	4641      	mov	r1, r8
    2074:	1c58      	adds	r0, r3, #1
    2076:	3d01      	subs	r5, #1
    2078:	6e7c      	ldr	r4, [r7, #100]	; 0x64
    207a:	65f8      	str	r0, [r7, #92]	; 0x5c
    207c:	663d      	str	r5, [r7, #96]	; 0x60
    207e:	5909      	ldr	r1, [r1, r4]
    2080:	4211      	tst	r1, r2
    2082:	d100      	bne.n	2086 <lfs_alloc+0x46>
    2084:	e0be      	b.n	2204 <lfs_alloc+0x1c4>
    2086:	2301      	movs	r3, #1
    2088:	46a0      	mov	r8, r4
    208a:	469c      	mov	ip, r3
    208c:	e010      	b.n	20b0 <lfs_alloc+0x70>
    208e:	4659      	mov	r1, fp
    2090:	4664      	mov	r4, ip
    2092:	4001      	ands	r1, r0
    2094:	408c      	lsls	r4, r1
    2096:	0021      	movs	r1, r4
    2098:	4644      	mov	r4, r8
    209a:	1c42      	adds	r2, r0, #1
    209c:	3d01      	subs	r5, #1
    209e:	0943      	lsrs	r3, r0, #5
    20a0:	65fa      	str	r2, [r7, #92]	; 0x5c
    20a2:	663d      	str	r5, [r7, #96]	; 0x60
    20a4:	009b      	lsls	r3, r3, #2
    20a6:	591b      	ldr	r3, [r3, r4]
    20a8:	420b      	tst	r3, r1
    20aa:	d100      	bne.n	20ae <lfs_alloc+0x6e>
    20ac:	e0ab      	b.n	2206 <lfs_alloc+0x1c6>
    20ae:	0010      	movs	r0, r2
    20b0:	4286      	cmp	r6, r0
    20b2:	d1ec      	bne.n	208e <lfs_alloc+0x4e>
    20b4:	0033      	movs	r3, r6
    20b6:	6d78      	ldr	r0, [r7, #84]	; 0x54
    20b8:	2d00      	cmp	r5, #0
    20ba:	d100      	bne.n	20be <lfs_alloc+0x7e>
    20bc:	e2e4      	b.n	2688 <lfs_alloc+0x648>
    20be:	6ebc      	ldr	r4, [r7, #104]	; 0x68
    20c0:	1830      	adds	r0, r6, r0
    20c2:	6a21      	ldr	r1, [r4, #32]
    20c4:	f7ff fffe 	bl	0 <__aeabi_uidivmod>
    20c8:	6ae2      	ldr	r2, [r4, #44]	; 0x2c
    20ca:	6579      	str	r1, [r7, #84]	; 0x54
    20cc:	00d3      	lsls	r3, r2, #3
    20ce:	42ab      	cmp	r3, r5
    20d0:	d900      	bls.n	20d4 <lfs_alloc+0x94>
    20d2:	e158      	b.n	2386 <lfs_alloc+0x346>
    20d4:	65bb      	str	r3, [r7, #88]	; 0x58
    20d6:	2300      	movs	r3, #0
    20d8:	2100      	movs	r1, #0
    20da:	65fb      	str	r3, [r7, #92]	; 0x5c
    20dc:	6e78      	ldr	r0, [r7, #100]	; 0x64
    20de:	f7ff fffe 	bl	0 <memset>
    20e2:	221c      	movs	r2, #28
    20e4:	2100      	movs	r1, #0
    20e6:	a80e      	add	r0, sp, #56	; 0x38
    20e8:	f7ff fffe 	bl	0 <memset>
    20ec:	2301      	movs	r3, #1
    20ee:	9315      	str	r3, [sp, #84]	; 0x54
    20f0:	6ebb      	ldr	r3, [r7, #104]	; 0x68
    20f2:	6a1e      	ldr	r6, [r3, #32]
    20f4:	4698      	mov	r8, r3
    20f6:	0873      	lsrs	r3, r6, #1
    20f8:	d071      	beq.n	21de <lfs_alloc+0x19e>
    20fa:	2300      	movs	r3, #0
    20fc:	9307      	str	r3, [sp, #28]
    20fe:	003b      	movs	r3, r7
    2100:	2000      	movs	r0, #0
    2102:	0037      	movs	r7, r6
    2104:	2501      	movs	r5, #1
    2106:	001e      	movs	r6, r3
    2108:	6d73      	ldr	r3, [r6, #84]	; 0x54
    210a:	0039      	movs	r1, r7
    210c:	1afc      	subs	r4, r7, r3
    210e:	1820      	adds	r0, r4, r0
    2110:	f7ff fffe 	bl	0 <__aeabi_uidivmod>
    2114:	6db3      	ldr	r3, [r6, #88]	; 0x58
    2116:	4699      	mov	r9, r3
    2118:	428b      	cmp	r3, r1
    211a:	d912      	bls.n	2142 <lfs_alloc+0x102>
    211c:	6e72      	ldr	r2, [r6, #100]	; 0x64
    211e:	094b      	lsrs	r3, r1, #5
    2120:	4694      	mov	ip, r2
    2122:	465a      	mov	r2, fp
    2124:	4011      	ands	r1, r2
    2126:	2201      	movs	r2, #1
    2128:	408a      	lsls	r2, r1
    212a:	009b      	lsls	r3, r3, #2
    212c:	4463      	add	r3, ip
    212e:	6819      	ldr	r1, [r3, #0]
    2130:	430a      	orrs	r2, r1
    2132:	601a      	str	r2, [r3, #0]
    2134:	4643      	mov	r3, r8
    2136:	6a1f      	ldr	r7, [r3, #32]
    2138:	6db3      	ldr	r3, [r6, #88]	; 0x58
    213a:	9d15      	ldr	r5, [sp, #84]	; 0x54
    213c:	4699      	mov	r9, r3
    213e:	6d73      	ldr	r3, [r6, #84]	; 0x54
    2140:	1afc      	subs	r4, r7, r3
    2142:	1928      	adds	r0, r5, r4
    2144:	0039      	movs	r1, r7
    2146:	f7ff fffe 	bl	0 <__aeabi_uidivmod>
    214a:	4549      	cmp	r1, r9
    214c:	d200      	bcs.n	2150 <lfs_alloc+0x110>
    214e:	e10d      	b.n	236c <lfs_alloc+0x32c>
    2150:	2301      	movs	r3, #1
    2152:	2200      	movs	r2, #0
    2154:	425b      	negs	r3, r3
    2156:	9203      	str	r2, [sp, #12]
    2158:	9202      	str	r2, [sp, #8]
    215a:	9201      	str	r2, [sp, #4]
    215c:	9300      	str	r3, [sp, #0]
    215e:	aa14      	add	r2, sp, #80	; 0x50
    2160:	a90e      	add	r1, sp, #56	; 0x38
    2162:	0030      	movs	r0, r6
    2164:	f7fe fe80 	bl	e68 <lfs_dir_fetchmatch>
    2168:	2800      	cmp	r0, #0
    216a:	d13d      	bne.n	21e8 <lfs_alloc+0x1a8>
    216c:	2200      	movs	r2, #0
    216e:	ab06      	add	r3, sp, #24
    2170:	8e9b      	ldrh	r3, [r3, #52]	; 0x34
    2172:	4692      	mov	sl, r2
    2174:	2b00      	cmp	r3, #0
    2176:	d01d      	beq.n	21b4 <lfs_alloc+0x174>
    2178:	4653      	mov	r3, sl
    217a:	4aa8      	ldr	r2, [pc, #672]	; (241c <lfs_alloc+0x3dc>)
    217c:	029b      	lsls	r3, r3, #10
    217e:	431a      	orrs	r2, r3
    2180:	2308      	movs	r3, #8
    2182:	a90e      	add	r1, sp, #56	; 0x38
    2184:	9300      	str	r3, [sp, #0]
    2186:	0030      	movs	r0, r6
    2188:	ab0a      	add	r3, sp, #40	; 0x28
    218a:	f7ff fb67 	bl	185c <lfs_dir_getslice.constprop.39>
    218e:	2800      	cmp	r0, #0
    2190:	db28      	blt.n	21e4 <lfs_alloc+0x1a4>
    2192:	4ba3      	ldr	r3, [pc, #652]	; (2420 <lfs_alloc+0x3e0>)
    2194:	0d00      	lsrs	r0, r0, #20
    2196:	4298      	cmp	r0, r3
    2198:	d067      	beq.n	226a <lfs_alloc+0x22a>
    219a:	2380      	movs	r3, #128	; 0x80
    219c:	009b      	lsls	r3, r3, #2
    219e:	4298      	cmp	r0, r3
    21a0:	d100      	bne.n	21a4 <lfs_alloc+0x164>
    21a2:	e100      	b.n	23a6 <lfs_alloc+0x366>
    21a4:	4653      	mov	r3, sl
    21a6:	3301      	adds	r3, #1
    21a8:	b29b      	uxth	r3, r3
    21aa:	469a      	mov	sl, r3
    21ac:	ab06      	add	r3, sp, #24
    21ae:	8e9b      	ldrh	r3, [r3, #52]	; 0x34
    21b0:	4553      	cmp	r3, sl
    21b2:	d8e1      	bhi.n	2178 <lfs_alloc+0x138>
    21b4:	9b07      	ldr	r3, [sp, #28]
    21b6:	9814      	ldr	r0, [sp, #80]	; 0x50
    21b8:	3301      	adds	r3, #1
    21ba:	9307      	str	r3, [sp, #28]
    21bc:	1c43      	adds	r3, r0, #1
    21be:	d100      	bne.n	21c2 <lfs_alloc+0x182>
    21c0:	e127      	b.n	2412 <lfs_alloc+0x3d2>
    21c2:	9d15      	ldr	r5, [sp, #84]	; 0x54
    21c4:	1c6b      	adds	r3, r5, #1
    21c6:	d100      	bne.n	21ca <lfs_alloc+0x18a>
    21c8:	e123      	b.n	2412 <lfs_alloc+0x3d2>
    21ca:	6eb3      	ldr	r3, [r6, #104]	; 0x68
    21cc:	9a07      	ldr	r2, [sp, #28]
    21ce:	6a1f      	ldr	r7, [r3, #32]
    21d0:	4698      	mov	r8, r3
    21d2:	087b      	lsrs	r3, r7, #1
    21d4:	4293      	cmp	r3, r2
    21d6:	d897      	bhi.n	2108 <lfs_alloc+0xc8>
    21d8:	0033      	movs	r3, r6
    21da:	003e      	movs	r6, r7
    21dc:	001f      	movs	r7, r3
    21de:	2054      	movs	r0, #84	; 0x54
    21e0:	4240      	negs	r0, r0
    21e2:	e004      	b.n	21ee <lfs_alloc+0x1ae>
    21e4:	1c83      	adds	r3, r0, #2
    21e6:	d0dd      	beq.n	21a4 <lfs_alloc+0x164>
    21e8:	6eb3      	ldr	r3, [r6, #104]	; 0x68
    21ea:	0037      	movs	r7, r6
    21ec:	6a1e      	ldr	r6, [r3, #32]
    21ee:	2300      	movs	r3, #0
    21f0:	663e      	str	r6, [r7, #96]	; 0x60
    21f2:	65bb      	str	r3, [r7, #88]	; 0x58
    21f4:	65fb      	str	r3, [r7, #92]	; 0x5c
    21f6:	b017      	add	sp, #92	; 0x5c
    21f8:	bc3c      	pop	{r2, r3, r4, r5}
    21fa:	4690      	mov	r8, r2
    21fc:	4699      	mov	r9, r3
    21fe:	46a2      	mov	sl, r4
    2200:	46ab      	mov	fp, r5
    2202:	bdf0      	pop	{r4, r5, r6, r7, pc}
    2204:	0018      	movs	r0, r3
    2206:	6d7b      	ldr	r3, [r7, #84]	; 0x54
    2208:	469c      	mov	ip, r3
    220a:	6ebb      	ldr	r3, [r7, #104]	; 0x68
    220c:	4460      	add	r0, ip
    220e:	6a19      	ldr	r1, [r3, #32]
    2210:	f7ff fffe 	bl	0 <__aeabi_uidivmod>
    2214:	9b05      	ldr	r3, [sp, #20]
    2216:	6019      	str	r1, [r3, #0]
    2218:	6df8      	ldr	r0, [r7, #92]	; 0x5c
    221a:	6dbd      	ldr	r5, [r7, #88]	; 0x58
    221c:	4285      	cmp	r5, r0
    221e:	d022      	beq.n	2266 <lfs_alloc+0x226>
    2220:	211f      	movs	r1, #31
    2222:	2301      	movs	r3, #1
    2224:	4001      	ands	r1, r0
    2226:	408b      	lsls	r3, r1
    2228:	0942      	lsrs	r2, r0, #5
    222a:	0092      	lsls	r2, r2, #2
    222c:	5912      	ldr	r2, [r2, r4]
    222e:	421a      	tst	r2, r3
    2230:	d019      	beq.n	2266 <lfs_alloc+0x226>
    2232:	6e3a      	ldr	r2, [r7, #96]	; 0x60
    2234:	1c43      	adds	r3, r0, #1
    2236:	4694      	mov	ip, r2
    2238:	221f      	movs	r2, #31
    223a:	4460      	add	r0, ip
    223c:	2601      	movs	r6, #1
    223e:	4694      	mov	ip, r2
    2240:	46a0      	mov	r8, r4
    2242:	e00b      	b.n	225c <lfs_alloc+0x21c>
    2244:	4661      	mov	r1, ip
    2246:	0034      	movs	r4, r6
    2248:	4019      	ands	r1, r3
    224a:	408c      	lsls	r4, r1
    224c:	0021      	movs	r1, r4
    224e:	4644      	mov	r4, r8
    2250:	095a      	lsrs	r2, r3, #5
    2252:	0092      	lsls	r2, r2, #2
    2254:	5912      	ldr	r2, [r2, r4]
    2256:	3301      	adds	r3, #1
    2258:	420a      	tst	r2, r1
    225a:	d004      	beq.n	2266 <lfs_alloc+0x226>
    225c:	1ac2      	subs	r2, r0, r3
    225e:	65fb      	str	r3, [r7, #92]	; 0x5c
    2260:	663a      	str	r2, [r7, #96]	; 0x60
    2262:	429d      	cmp	r5, r3
    2264:	d1ee      	bne.n	2244 <lfs_alloc+0x204>
    2266:	2000      	movs	r0, #0
    2268:	e7c5      	b.n	21f6 <lfs_alloc+0x1b6>
    226a:	9c0b      	ldr	r4, [sp, #44]	; 0x2c
    226c:	2c00      	cmp	r4, #0
    226e:	d099      	beq.n	21a4 <lfs_alloc+0x164>
    2270:	6eb3      	ldr	r3, [r6, #104]	; 0x68
    2272:	3c01      	subs	r4, #1
    2274:	69dd      	ldr	r5, [r3, #28]
    2276:	4698      	mov	r8, r3
    2278:	3d08      	subs	r5, #8
    227a:	42ac      	cmp	r4, r5
    227c:	d200      	bcs.n	2280 <lfs_alloc+0x240>
    227e:	e0c5      	b.n	240c <lfs_alloc+0x3cc>
    2280:	0029      	movs	r1, r5
    2282:	0020      	movs	r0, r4
    2284:	f7ff fffe 	bl	0 <__aeabi_uidiv>
    2288:	3801      	subs	r0, #1
    228a:	f7ff fffe 	bl	0 <__popcountsi2>
    228e:	3002      	adds	r0, #2
    2290:	0080      	lsls	r0, r0, #2
    2292:	1a20      	subs	r0, r4, r0
    2294:	0029      	movs	r1, r5
    2296:	f7ff fffe 	bl	0 <__aeabi_uidiv>
    229a:	9006      	str	r0, [sp, #24]
    229c:	4643      	mov	r3, r8
    229e:	4652      	mov	r2, sl
    22a0:	6a1c      	ldr	r4, [r3, #32]
    22a2:	9f0a      	ldr	r7, [sp, #40]	; 0x28
    22a4:	6d75      	ldr	r5, [r6, #84]	; 0x54
    22a6:	6db3      	ldr	r3, [r6, #88]	; 0x58
    22a8:	1938      	adds	r0, r7, r4
    22aa:	1b40      	subs	r0, r0, r5
    22ac:	0021      	movs	r1, r4
    22ae:	4699      	mov	r9, r3
    22b0:	9209      	str	r2, [sp, #36]	; 0x24
    22b2:	f7ff fffe 	bl	0 <__aeabi_uidivmod>
    22b6:	4549      	cmp	r1, r9
    22b8:	d20b      	bcs.n	22d2 <lfs_alloc+0x292>
    22ba:	6e72      	ldr	r2, [r6, #100]	; 0x64
    22bc:	094b      	lsrs	r3, r1, #5
    22be:	4694      	mov	ip, r2
    22c0:	465a      	mov	r2, fp
    22c2:	4011      	ands	r1, r2
    22c4:	2201      	movs	r2, #1
    22c6:	408a      	lsls	r2, r1
    22c8:	009b      	lsls	r3, r3, #2
    22ca:	4463      	add	r3, ip
    22cc:	6819      	ldr	r1, [r3, #0]
    22ce:	430a      	orrs	r2, r1
    22d0:	601a      	str	r2, [r3, #0]
    22d2:	9a06      	ldr	r2, [sp, #24]
    22d4:	2a00      	cmp	r2, #0
    22d6:	d100      	bne.n	22da <lfs_alloc+0x29a>
    22d8:	e1e1      	b.n	269e <lfs_alloc+0x65e>
    22da:	2301      	movs	r3, #1
    22dc:	4013      	ands	r3, r2
    22de:	4642      	mov	r2, r8
    22e0:	2402      	movs	r4, #2
    22e2:	0030      	movs	r0, r6
    22e4:	6a12      	ldr	r2, [r2, #32]
    22e6:	1ae4      	subs	r4, r4, r3
    22e8:	9308      	str	r3, [sp, #32]
    22ea:	3068      	adds	r0, #104	; 0x68
    22ec:	00a3      	lsls	r3, r4, #2
    22ee:	4297      	cmp	r7, r2
    22f0:	d300      	bcc.n	22f4 <lfs_alloc+0x2b4>
    22f2:	e1dd      	b.n	26b0 <lfs_alloc+0x670>
    22f4:	4641      	mov	r1, r8
    22f6:	69c9      	ldr	r1, [r1, #28]
    22f8:	428b      	cmp	r3, r1
    22fa:	d900      	bls.n	22fe <lfs_alloc+0x2be>
    22fc:	e1d8      	b.n	26b0 <lfs_alloc+0x670>
    22fe:	aa0c      	add	r2, sp, #48	; 0x30
    2300:	4692      	mov	sl, r2
    2302:	9202      	str	r2, [sp, #8]
    2304:	2200      	movs	r2, #0
    2306:	9303      	str	r3, [sp, #12]
    2308:	9201      	str	r2, [sp, #4]
    230a:	9700      	str	r7, [sp, #0]
    230c:	0032      	movs	r2, r6
    230e:	2100      	movs	r1, #0
    2310:	f7fd ff46 	bl	1a0 <lfs_bd_read.isra.21.part.22>
    2314:	2800      	cmp	r0, #0
    2316:	d000      	beq.n	231a <lfs_alloc+0x2da>
    2318:	e766      	b.n	21e8 <lfs_alloc+0x1a8>
    231a:	6eb3      	ldr	r3, [r6, #104]	; 0x68
    231c:	1e67      	subs	r7, r4, #1
    231e:	4698      	mov	r8, r3
    2320:	46b9      	mov	r9, r7
    2322:	0002      	movs	r2, r0
    2324:	4641      	mov	r1, r8
    2326:	4653      	mov	r3, sl
    2328:	6d75      	ldr	r5, [r6, #84]	; 0x54
    232a:	6a0c      	ldr	r4, [r1, #32]
    232c:	681b      	ldr	r3, [r3, #0]
    232e:	6db7      	ldr	r7, [r6, #88]	; 0x58
    2330:	1b60      	subs	r0, r4, r5
    2332:	454a      	cmp	r2, r9
    2334:	da05      	bge.n	2342 <lfs_alloc+0x302>
    2336:	1818      	adds	r0, r3, r0
    2338:	0021      	movs	r1, r4
    233a:	f7ff fffe 	bl	0 <__aeabi_uidivmod>
    233e:	42b9      	cmp	r1, r7
    2340:	d323      	bcc.n	238a <lfs_alloc+0x34a>
    2342:	003b      	movs	r3, r7
    2344:	464f      	mov	r7, r9
    2346:	4699      	mov	r9, r3
    2348:	4653      	mov	r3, sl
    234a:	9a06      	ldr	r2, [sp, #24]
    234c:	00bf      	lsls	r7, r7, #2
    234e:	4694      	mov	ip, r2
    2350:	59df      	ldr	r7, [r3, r7]
    2352:	9b08      	ldr	r3, [sp, #32]
    2354:	1938      	adds	r0, r7, r4
    2356:	3b02      	subs	r3, #2
    2358:	449c      	add	ip, r3
    235a:	4663      	mov	r3, ip
    235c:	1b40      	subs	r0, r0, r5
    235e:	0021      	movs	r1, r4
    2360:	9306      	str	r3, [sp, #24]
    2362:	f7ff fffe 	bl	0 <__aeabi_uidivmod>
    2366:	4549      	cmp	r1, r9
    2368:	d2b3      	bcs.n	22d2 <lfs_alloc+0x292>
    236a:	e7a6      	b.n	22ba <lfs_alloc+0x27a>
    236c:	6e72      	ldr	r2, [r6, #100]	; 0x64
    236e:	094b      	lsrs	r3, r1, #5
    2370:	4694      	mov	ip, r2
    2372:	465a      	mov	r2, fp
    2374:	4011      	ands	r1, r2
    2376:	2201      	movs	r2, #1
    2378:	408a      	lsls	r2, r1
    237a:	009b      	lsls	r3, r3, #2
    237c:	4463      	add	r3, ip
    237e:	6819      	ldr	r1, [r3, #0]
    2380:	430a      	orrs	r2, r1
    2382:	601a      	str	r2, [r3, #0]
    2384:	e6e4      	b.n	2150 <lfs_alloc+0x110>
    2386:	002b      	movs	r3, r5
    2388:	e6a4      	b.n	20d4 <lfs_alloc+0x94>
    238a:	6e72      	ldr	r2, [r6, #100]	; 0x64
    238c:	094b      	lsrs	r3, r1, #5
    238e:	4694      	mov	ip, r2
    2390:	465a      	mov	r2, fp
    2392:	4011      	ands	r1, r2
    2394:	2201      	movs	r2, #1
    2396:	408a      	lsls	r2, r1
    2398:	009b      	lsls	r3, r3, #2
    239a:	4463      	add	r3, ip
    239c:	6819      	ldr	r1, [r3, #0]
    239e:	430a      	orrs	r2, r1
    23a0:	601a      	str	r2, [r3, #0]
    23a2:	2201      	movs	r2, #1
    23a4:	e7be      	b.n	2324 <lfs_alloc+0x2e4>
    23a6:	6eb3      	ldr	r3, [r6, #104]	; 0x68
    23a8:	6a1d      	ldr	r5, [r3, #32]
    23aa:	4698      	mov	r8, r3
    23ac:	6d73      	ldr	r3, [r6, #84]	; 0x54
    23ae:	0029      	movs	r1, r5
    23b0:	1aec      	subs	r4, r5, r3
    23b2:	9b0a      	ldr	r3, [sp, #40]	; 0x28
    23b4:	18e0      	adds	r0, r4, r3
    23b6:	f7ff fffe 	bl	0 <__aeabi_uidivmod>
    23ba:	6db7      	ldr	r7, [r6, #88]	; 0x58
    23bc:	42b9      	cmp	r1, r7
    23be:	d210      	bcs.n	23e2 <lfs_alloc+0x3a2>
    23c0:	6e72      	ldr	r2, [r6, #100]	; 0x64
    23c2:	094b      	lsrs	r3, r1, #5
    23c4:	4694      	mov	ip, r2
    23c6:	465a      	mov	r2, fp
    23c8:	4011      	ands	r1, r2
    23ca:	2201      	movs	r2, #1
    23cc:	408a      	lsls	r2, r1
    23ce:	009b      	lsls	r3, r3, #2
    23d0:	4463      	add	r3, ip
    23d2:	6819      	ldr	r1, [r3, #0]
    23d4:	430a      	orrs	r2, r1
    23d6:	601a      	str	r2, [r3, #0]
    23d8:	4643      	mov	r3, r8
    23da:	6a1d      	ldr	r5, [r3, #32]
    23dc:	6d73      	ldr	r3, [r6, #84]	; 0x54
    23de:	6db7      	ldr	r7, [r6, #88]	; 0x58
    23e0:	1aec      	subs	r4, r5, r3
    23e2:	9b0b      	ldr	r3, [sp, #44]	; 0x2c
    23e4:	0029      	movs	r1, r5
    23e6:	18e0      	adds	r0, r4, r3
    23e8:	f7ff fffe 	bl	0 <__aeabi_uidivmod>
    23ec:	42b9      	cmp	r1, r7
    23ee:	d300      	bcc.n	23f2 <lfs_alloc+0x3b2>
    23f0:	e6d8      	b.n	21a4 <lfs_alloc+0x164>
    23f2:	6e72      	ldr	r2, [r6, #100]	; 0x64
    23f4:	094b      	lsrs	r3, r1, #5
    23f6:	4694      	mov	ip, r2
    23f8:	465a      	mov	r2, fp
    23fa:	4011      	ands	r1, r2
    23fc:	2201      	movs	r2, #1
    23fe:	408a      	lsls	r2, r1
    2400:	009b      	lsls	r3, r3, #2
    2402:	4463      	add	r3, ip
    2404:	6819      	ldr	r1, [r3, #0]
    2406:	430a      	orrs	r2, r1
    2408:	601a      	str	r2, [r3, #0]
    240a:	e6cb      	b.n	21a4 <lfs_alloc+0x164>
    240c:	2300      	movs	r3, #0
    240e:	9306      	str	r3, [sp, #24]
    2410:	e744      	b.n	229c <lfs_alloc+0x25c>
    2412:	6ab3      	ldr	r3, [r6, #40]	; 0x28
    2414:	0037      	movs	r7, r6
    2416:	1e1c      	subs	r4, r3, #0
    2418:	d110      	bne.n	243c <lfs_alloc+0x3fc>
    241a:	e61c      	b.n	2056 <lfs_alloc+0x16>
    241c:	20000008 	.word	0x20000008
    2420:	00000202 	.word	0x00000202
    2424:	2290      	movs	r2, #144	; 0x90
    2426:	0352      	lsls	r2, r2, #13
    2428:	4013      	ands	r3, r2
    242a:	2280      	movs	r2, #128	; 0x80
    242c:	0292      	lsls	r2, r2, #10
    242e:	4293      	cmp	r3, r2
    2430:	d100      	bne.n	2434 <lfs_alloc+0x3f4>
    2432:	e09d      	b.n	2570 <lfs_alloc+0x530>
    2434:	6824      	ldr	r4, [r4, #0]
    2436:	2c00      	cmp	r4, #0
    2438:	d100      	bne.n	243c <lfs_alloc+0x3fc>
    243a:	e60c      	b.n	2056 <lfs_alloc+0x16>
    243c:	79a3      	ldrb	r3, [r4, #6]
    243e:	2b01      	cmp	r3, #1
    2440:	d1f8      	bne.n	2434 <lfs_alloc+0x3f4>
    2442:	2288      	movs	r2, #136	; 0x88
    2444:	2180      	movs	r1, #128	; 0x80
    2446:	6b23      	ldr	r3, [r4, #48]	; 0x30
    2448:	0352      	lsls	r2, r2, #13
    244a:	401a      	ands	r2, r3
    244c:	0249      	lsls	r1, r1, #9
    244e:	428a      	cmp	r2, r1
    2450:	d1e8      	bne.n	2424 <lfs_alloc+0x3e4>
    2452:	6ae5      	ldr	r5, [r4, #44]	; 0x2c
    2454:	2d00      	cmp	r5, #0
    2456:	d0e5      	beq.n	2424 <lfs_alloc+0x3e4>
    2458:	6ebb      	ldr	r3, [r7, #104]	; 0x68
    245a:	3d01      	subs	r5, #1
    245c:	69de      	ldr	r6, [r3, #28]
    245e:	4698      	mov	r8, r3
    2460:	3e08      	subs	r6, #8
    2462:	42b5      	cmp	r5, r6
    2464:	d200      	bcs.n	2468 <lfs_alloc+0x428>
    2466:	e120      	b.n	26aa <lfs_alloc+0x66a>
    2468:	0031      	movs	r1, r6
    246a:	0028      	movs	r0, r5
    246c:	f7ff fffe 	bl	0 <__aeabi_uidiv>
    2470:	3801      	subs	r0, #1
    2472:	f7ff fffe 	bl	0 <__popcountsi2>
    2476:	3002      	adds	r0, #2
    2478:	0080      	lsls	r0, r0, #2
    247a:	1a28      	subs	r0, r5, r0
    247c:	0031      	movs	r1, r6
    247e:	f7ff fffe 	bl	0 <__aeabi_uidiv>
    2482:	9006      	str	r0, [sp, #24]
    2484:	4642      	mov	r2, r8
    2486:	6aa3      	ldr	r3, [r4, #40]	; 0x28
    2488:	9407      	str	r4, [sp, #28]
    248a:	001c      	movs	r4, r3
    248c:	6a15      	ldr	r5, [r2, #32]
    248e:	6d7e      	ldr	r6, [r7, #84]	; 0x54
    2490:	6dba      	ldr	r2, [r7, #88]	; 0x58
    2492:	1960      	adds	r0, r4, r5
    2494:	1b80      	subs	r0, r0, r6
    2496:	0029      	movs	r1, r5
    2498:	4692      	mov	sl, r2
    249a:	f7ff fffe 	bl	0 <__aeabi_uidivmod>
    249e:	4551      	cmp	r1, sl
    24a0:	d20b      	bcs.n	24ba <lfs_alloc+0x47a>
    24a2:	6e7a      	ldr	r2, [r7, #100]	; 0x64
    24a4:	094b      	lsrs	r3, r1, #5
    24a6:	4694      	mov	ip, r2
    24a8:	465a      	mov	r2, fp
    24aa:	4011      	ands	r1, r2
    24ac:	2201      	movs	r2, #1
    24ae:	408a      	lsls	r2, r1
    24b0:	009b      	lsls	r3, r3, #2
    24b2:	4463      	add	r3, ip
    24b4:	6819      	ldr	r1, [r3, #0]
    24b6:	430a      	orrs	r2, r1
    24b8:	601a      	str	r2, [r3, #0]
    24ba:	9a06      	ldr	r2, [sp, #24]
    24bc:	2a00      	cmp	r2, #0
    24be:	d100      	bne.n	24c2 <lfs_alloc+0x482>
    24c0:	e100      	b.n	26c4 <lfs_alloc+0x684>
    24c2:	2301      	movs	r3, #1
    24c4:	4013      	ands	r3, r2
    24c6:	4642      	mov	r2, r8
    24c8:	2502      	movs	r5, #2
    24ca:	0038      	movs	r0, r7
    24cc:	6a12      	ldr	r2, [r2, #32]
    24ce:	1aed      	subs	r5, r5, r3
    24d0:	9308      	str	r3, [sp, #32]
    24d2:	3068      	adds	r0, #104	; 0x68
    24d4:	00ab      	lsls	r3, r5, #2
    24d6:	4294      	cmp	r4, r2
    24d8:	d300      	bcc.n	24dc <lfs_alloc+0x49c>
    24da:	e0ee      	b.n	26ba <lfs_alloc+0x67a>
    24dc:	4642      	mov	r2, r8
    24de:	69d2      	ldr	r2, [r2, #28]
    24e0:	4293      	cmp	r3, r2
    24e2:	d900      	bls.n	24e6 <lfs_alloc+0x4a6>
    24e4:	e0e9      	b.n	26ba <lfs_alloc+0x67a>
    24e6:	aa0c      	add	r2, sp, #48	; 0x30
    24e8:	9202      	str	r2, [sp, #8]
    24ea:	4691      	mov	r9, r2
    24ec:	2200      	movs	r2, #0
    24ee:	9907      	ldr	r1, [sp, #28]
    24f0:	9303      	str	r3, [sp, #12]
    24f2:	9201      	str	r2, [sp, #4]
    24f4:	9400      	str	r4, [sp, #0]
    24f6:	003a      	movs	r2, r7
    24f8:	3140      	adds	r1, #64	; 0x40
    24fa:	f7fd fe51 	bl	1a0 <lfs_bd_read.isra.21.part.22>
    24fe:	1e03      	subs	r3, r0, #0
    2500:	d000      	beq.n	2504 <lfs_alloc+0x4c4>
    2502:	e0e2      	b.n	26ca <lfs_alloc+0x68a>
    2504:	6eba      	ldr	r2, [r7, #104]	; 0x68
    2506:	1e6c      	subs	r4, r5, #1
    2508:	4690      	mov	r8, r2
    250a:	46a2      	mov	sl, r4
    250c:	464a      	mov	r2, r9
    250e:	6810      	ldr	r0, [r2, #0]
    2510:	4642      	mov	r2, r8
    2512:	6d7e      	ldr	r6, [r7, #84]	; 0x54
    2514:	6a15      	ldr	r5, [r2, #32]
    2516:	6dbc      	ldr	r4, [r7, #88]	; 0x58
    2518:	1baa      	subs	r2, r5, r6
    251a:	4553      	cmp	r3, sl
    251c:	da05      	bge.n	252a <lfs_alloc+0x4ea>
    251e:	1880      	adds	r0, r0, r2
    2520:	0029      	movs	r1, r5
    2522:	f7ff fffe 	bl	0 <__aeabi_uidivmod>
    2526:	428c      	cmp	r4, r1
    2528:	d814      	bhi.n	2554 <lfs_alloc+0x514>
    252a:	0023      	movs	r3, r4
    252c:	4654      	mov	r4, sl
    252e:	469a      	mov	sl, r3
    2530:	464b      	mov	r3, r9
    2532:	9a06      	ldr	r2, [sp, #24]
    2534:	00a4      	lsls	r4, r4, #2
    2536:	4694      	mov	ip, r2
    2538:	591c      	ldr	r4, [r3, r4]
    253a:	9b08      	ldr	r3, [sp, #32]
    253c:	1960      	adds	r0, r4, r5
    253e:	3b02      	subs	r3, #2
    2540:	449c      	add	ip, r3
    2542:	4663      	mov	r3, ip
    2544:	1b80      	subs	r0, r0, r6
    2546:	0029      	movs	r1, r5
    2548:	9306      	str	r3, [sp, #24]
    254a:	f7ff fffe 	bl	0 <__aeabi_uidivmod>
    254e:	4551      	cmp	r1, sl
    2550:	d2b3      	bcs.n	24ba <lfs_alloc+0x47a>
    2552:	e7a6      	b.n	24a2 <lfs_alloc+0x462>
    2554:	6e7a      	ldr	r2, [r7, #100]	; 0x64
    2556:	094b      	lsrs	r3, r1, #5
    2558:	4694      	mov	ip, r2
    255a:	465a      	mov	r2, fp
    255c:	4011      	ands	r1, r2
    255e:	2201      	movs	r2, #1
    2560:	408a      	lsls	r2, r1
    2562:	009b      	lsls	r3, r3, #2
    2564:	4463      	add	r3, ip
    2566:	6819      	ldr	r1, [r3, #0]
    2568:	430a      	orrs	r2, r1
    256a:	601a      	str	r2, [r3, #0]
    256c:	2301      	movs	r3, #1
    256e:	e7cd      	b.n	250c <lfs_alloc+0x4cc>
    2570:	6b65      	ldr	r5, [r4, #52]	; 0x34
    2572:	2d00      	cmp	r5, #0
    2574:	d100      	bne.n	2578 <lfs_alloc+0x538>
    2576:	e75d      	b.n	2434 <lfs_alloc+0x3f4>
    2578:	6ebb      	ldr	r3, [r7, #104]	; 0x68
    257a:	3d01      	subs	r5, #1
    257c:	69de      	ldr	r6, [r3, #28]
    257e:	4698      	mov	r8, r3
    2580:	3e08      	subs	r6, #8
    2582:	42b5      	cmp	r5, r6
    2584:	d200      	bcs.n	2588 <lfs_alloc+0x548>
    2586:	e08d      	b.n	26a4 <lfs_alloc+0x664>
    2588:	0031      	movs	r1, r6
    258a:	0028      	movs	r0, r5
    258c:	f7ff fffe 	bl	0 <__aeabi_uidiv>
    2590:	3801      	subs	r0, #1
    2592:	f7ff fffe 	bl	0 <__popcountsi2>
    2596:	3002      	adds	r0, #2
    2598:	0080      	lsls	r0, r0, #2
    259a:	1a28      	subs	r0, r5, r0
    259c:	0031      	movs	r1, r6
    259e:	f7ff fffe 	bl	0 <__aeabi_uidiv>
    25a2:	9006      	str	r0, [sp, #24]
    25a4:	4642      	mov	r2, r8
    25a6:	6ba3      	ldr	r3, [r4, #56]	; 0x38
    25a8:	9408      	str	r4, [sp, #32]
    25aa:	001c      	movs	r4, r3
    25ac:	6a15      	ldr	r5, [r2, #32]
    25ae:	6d7e      	ldr	r6, [r7, #84]	; 0x54
    25b0:	6dba      	ldr	r2, [r7, #88]	; 0x58
    25b2:	1960      	adds	r0, r4, r5
    25b4:	1b80      	subs	r0, r0, r6
    25b6:	0029      	movs	r1, r5
    25b8:	4692      	mov	sl, r2
    25ba:	f7ff fffe 	bl	0 <__aeabi_uidivmod>
    25be:	4551      	cmp	r1, sl
    25c0:	d20b      	bcs.n	25da <lfs_alloc+0x59a>
    25c2:	6e7a      	ldr	r2, [r7, #100]	; 0x64
    25c4:	094b      	lsrs	r3, r1, #5
    25c6:	4694      	mov	ip, r2
    25c8:	465a      	mov	r2, fp
    25ca:	4011      	ands	r1, r2
    25cc:	2201      	movs	r2, #1
    25ce:	408a      	lsls	r2, r1
    25d0:	009b      	lsls	r3, r3, #2
    25d2:	4463      	add	r3, ip
    25d4:	6819      	ldr	r1, [r3, #0]
    25d6:	430a      	orrs	r2, r1
    25d8:	601a      	str	r2, [r3, #0]
    25da:	9a06      	ldr	r2, [sp, #24]
    25dc:	2a00      	cmp	r2, #0
    25de:	d076      	beq.n	26ce <lfs_alloc+0x68e>
    25e0:	2301      	movs	r3, #1
    25e2:	4013      	ands	r3, r2
    25e4:	4642      	mov	r2, r8
    25e6:	2502      	movs	r5, #2
    25e8:	0038      	movs	r0, r7
    25ea:	6a12      	ldr	r2, [r2, #32]
    25ec:	1aed      	subs	r5, r5, r3
    25ee:	9307      	str	r3, [sp, #28]
    25f0:	3068      	adds	r0, #104	; 0x68
    25f2:	00ab      	lsls	r3, r5, #2
    25f4:	4294      	cmp	r4, r2
    25f6:	d260      	bcs.n	26ba <lfs_alloc+0x67a>
    25f8:	4642      	mov	r2, r8
    25fa:	69d2      	ldr	r2, [r2, #28]
    25fc:	4293      	cmp	r3, r2
    25fe:	d85c      	bhi.n	26ba <lfs_alloc+0x67a>
    2600:	aa0c      	add	r2, sp, #48	; 0x30
    2602:	9202      	str	r2, [sp, #8]
    2604:	4691      	mov	r9, r2
    2606:	2200      	movs	r2, #0
    2608:	9908      	ldr	r1, [sp, #32]
    260a:	9303      	str	r3, [sp, #12]
    260c:	9201      	str	r2, [sp, #4]
    260e:	9400      	str	r4, [sp, #0]
    2610:	003a      	movs	r2, r7
    2612:	3140      	adds	r1, #64	; 0x40
    2614:	f7fd fdc4 	bl	1a0 <lfs_bd_read.isra.21.part.22>
    2618:	1e03      	subs	r3, r0, #0
    261a:	d156      	bne.n	26ca <lfs_alloc+0x68a>
    261c:	6eba      	ldr	r2, [r7, #104]	; 0x68
    261e:	1e6c      	subs	r4, r5, #1
    2620:	4690      	mov	r8, r2
    2622:	46a2      	mov	sl, r4
    2624:	464a      	mov	r2, r9
    2626:	6810      	ldr	r0, [r2, #0]
    2628:	4642      	mov	r2, r8
    262a:	6d7e      	ldr	r6, [r7, #84]	; 0x54
    262c:	6a15      	ldr	r5, [r2, #32]
    262e:	6dbc      	ldr	r4, [r7, #88]	; 0x58
    2630:	1baa      	subs	r2, r5, r6
    2632:	4553      	cmp	r3, sl
    2634:	da05      	bge.n	2642 <lfs_alloc+0x602>
    2636:	1880      	adds	r0, r0, r2
    2638:	0029      	movs	r1, r5
    263a:	f7ff fffe 	bl	0 <__aeabi_uidivmod>
    263e:	428c      	cmp	r4, r1
    2640:	d814      	bhi.n	266c <lfs_alloc+0x62c>
    2642:	0023      	movs	r3, r4
    2644:	4654      	mov	r4, sl
    2646:	469a      	mov	sl, r3
    2648:	464b      	mov	r3, r9
    264a:	9a06      	ldr	r2, [sp, #24]
    264c:	00a4      	lsls	r4, r4, #2
    264e:	4694      	mov	ip, r2
    2650:	591c      	ldr	r4, [r3, r4]
    2652:	9b07      	ldr	r3, [sp, #28]
    2654:	1960      	adds	r0, r4, r5
    2656:	3b02      	subs	r3, #2
    2658:	449c      	add	ip, r3
    265a:	4663      	mov	r3, ip
    265c:	1b80      	subs	r0, r0, r6
    265e:	0029      	movs	r1, r5
    2660:	9306      	str	r3, [sp, #24]
    2662:	f7ff fffe 	bl	0 <__aeabi_uidivmod>
    2666:	4551      	cmp	r1, sl
    2668:	d2b7      	bcs.n	25da <lfs_alloc+0x59a>
    266a:	e7aa      	b.n	25c2 <lfs_alloc+0x582>
    266c:	6e7a      	ldr	r2, [r7, #100]	; 0x64
    266e:	094b      	lsrs	r3, r1, #5
    2670:	4694      	mov	ip, r2
    2672:	465a      	mov	r2, fp
    2674:	4011      	ands	r1, r2
    2676:	2201      	movs	r2, #1
    2678:	408a      	lsls	r2, r1
    267a:	009b      	lsls	r3, r3, #2
    267c:	4463      	add	r3, ip
    267e:	6819      	ldr	r1, [r3, #0]
    2680:	430a      	orrs	r2, r1
    2682:	601a      	str	r2, [r3, #0]
    2684:	2301      	movs	r3, #1
    2686:	e7cd      	b.n	2624 <lfs_alloc+0x5e4>
    2688:	4a12      	ldr	r2, [pc, #72]	; (26d4 <lfs_alloc+0x694>)
    268a:	181b      	adds	r3, r3, r0
    268c:	9200      	str	r2, [sp, #0]
    268e:	4912      	ldr	r1, [pc, #72]	; (26d8 <lfs_alloc+0x698>)
    2690:	4a12      	ldr	r2, [pc, #72]	; (26dc <lfs_alloc+0x69c>)
    2692:	4813      	ldr	r0, [pc, #76]	; (26e0 <lfs_alloc+0x6a0>)
    2694:	f7ff fffe 	bl	0 <printf>
    2698:	201c      	movs	r0, #28
    269a:	4240      	negs	r0, r0
    269c:	e5ab      	b.n	21f6 <lfs_alloc+0x1b6>
    269e:	9b09      	ldr	r3, [sp, #36]	; 0x24
    26a0:	469a      	mov	sl, r3
    26a2:	e57f      	b.n	21a4 <lfs_alloc+0x164>
    26a4:	2300      	movs	r3, #0
    26a6:	9306      	str	r3, [sp, #24]
    26a8:	e77c      	b.n	25a4 <lfs_alloc+0x564>
    26aa:	2300      	movs	r3, #0
    26ac:	9306      	str	r3, [sp, #24]
    26ae:	e6e9      	b.n	2484 <lfs_alloc+0x444>
    26b0:	2054      	movs	r0, #84	; 0x54
    26b2:	0037      	movs	r7, r6
    26b4:	4240      	negs	r0, r0
    26b6:	0016      	movs	r6, r2
    26b8:	e599      	b.n	21ee <lfs_alloc+0x1ae>
    26ba:	2054      	movs	r0, #84	; 0x54
    26bc:	4240      	negs	r0, r0
    26be:	6ebb      	ldr	r3, [r7, #104]	; 0x68
    26c0:	6a1e      	ldr	r6, [r3, #32]
    26c2:	e594      	b.n	21ee <lfs_alloc+0x1ae>
    26c4:	9c07      	ldr	r4, [sp, #28]
    26c6:	6b23      	ldr	r3, [r4, #48]	; 0x30
    26c8:	e6ac      	b.n	2424 <lfs_alloc+0x3e4>
    26ca:	0018      	movs	r0, r3
    26cc:	e7f7      	b.n	26be <lfs_alloc+0x67e>
    26ce:	9c08      	ldr	r4, [sp, #32]
    26d0:	e6b0      	b.n	2434 <lfs_alloc+0x3f4>
    26d2:	46c0      	nop			; (mov r8, r8)
    26d4:	00000074 	.word	0x00000074
    26d8:	00000000 	.word	0x00000000
    26dc:	00000231 	.word	0x00000231
    26e0:	00000080 	.word	0x00000080

000026e4 <lfs_dir_alloc.part.26>:
    26e4:	b5f0      	push	{r4, r5, r6, r7, lr}
    26e6:	000c      	movs	r4, r1
    26e8:	b085      	sub	sp, #20
    26ea:	3104      	adds	r1, #4
    26ec:	0006      	movs	r6, r0
    26ee:	f7ff fca7 	bl	2040 <lfs_alloc>
    26f2:	1e05      	subs	r5, r0, #0
    26f4:	d135      	bne.n	2762 <lfs_dir_alloc.part.26+0x7e>
    26f6:	0021      	movs	r1, r4
    26f8:	0030      	movs	r0, r6
    26fa:	f7ff fca1 	bl	2040 <lfs_alloc>
    26fe:	1e05      	subs	r5, r0, #0
    2700:	d12f      	bne.n	2762 <lfs_dir_alloc.part.26+0x7e>
    2702:	60a0      	str	r0, [r4, #8]
    2704:	0021      	movs	r1, r4
    2706:	0030      	movs	r0, r6
    2708:	6eb2      	ldr	r2, [r6, #104]	; 0x68
    270a:	6823      	ldr	r3, [r4, #0]
    270c:	6a17      	ldr	r7, [r2, #32]
    270e:	3108      	adds	r1, #8
    2710:	3068      	adds	r0, #104	; 0x68
    2712:	42bb      	cmp	r3, r7
    2714:	d22d      	bcs.n	2772 <lfs_dir_alloc.part.26+0x8e>
    2716:	69d7      	ldr	r7, [r2, #28]
    2718:	2f03      	cmp	r7, #3
    271a:	d92a      	bls.n	2772 <lfs_dir_alloc.part.26+0x8e>
    271c:	2204      	movs	r2, #4
    271e:	9102      	str	r1, [sp, #8]
    2720:	9203      	str	r2, [sp, #12]
    2722:	9300      	str	r3, [sp, #0]
    2724:	9501      	str	r5, [sp, #4]
    2726:	2304      	movs	r3, #4
    2728:	0032      	movs	r2, r6
    272a:	2100      	movs	r1, #0
    272c:	f7fd fd38 	bl	1a0 <lfs_bd_read.isra.21.part.22>
    2730:	68a3      	ldr	r3, [r4, #8]
    2732:	2800      	cmp	r0, #0
    2734:	d118      	bne.n	2768 <lfs_dir_alloc.part.26+0x84>
    2736:	6eb2      	ldr	r2, [r6, #104]	; 0x68
    2738:	6a51      	ldr	r1, [r2, #36]	; 0x24
    273a:	2900      	cmp	r1, #0
    273c:	dd09      	ble.n	2752 <lfs_dir_alloc.part.26+0x6e>
    273e:	2201      	movs	r2, #1
    2740:	3101      	adds	r1, #1
    2742:	4311      	orrs	r1, r2
    2744:	3b01      	subs	r3, #1
    2746:	185e      	adds	r6, r3, r1
    2748:	0030      	movs	r0, r6
    274a:	f7ff fffe 	bl	0 <__aeabi_uidivmod>
    274e:	1a76      	subs	r6, r6, r1
    2750:	60a6      	str	r6, [r4, #8]
    2752:	2304      	movs	r3, #4
    2754:	2200      	movs	r2, #0
    2756:	60e3      	str	r3, [r4, #12]
    2758:	3b05      	subs	r3, #5
    275a:	6123      	str	r3, [r4, #16]
    275c:	6162      	str	r2, [r4, #20]
    275e:	61a3      	str	r3, [r4, #24]
    2760:	61e3      	str	r3, [r4, #28]
    2762:	0028      	movs	r0, r5
    2764:	b005      	add	sp, #20
    2766:	bdf0      	pop	{r4, r5, r6, r7, pc}
    2768:	0002      	movs	r2, r0
    276a:	3254      	adds	r2, #84	; 0x54
    276c:	d0e3      	beq.n	2736 <lfs_dir_alloc.part.26+0x52>
    276e:	0005      	movs	r5, r0
    2770:	e7f7      	b.n	2762 <lfs_dir_alloc.part.26+0x7e>
    2772:	2300      	movs	r3, #0
    2774:	e7e0      	b.n	2738 <lfs_dir_alloc.part.26+0x54>
    2776:	46c0      	nop			; (mov r8, r8)

00002778 <lfs_file_relocate>:
    2778:	b5f0      	push	{r4, r5, r6, r7, lr}
    277a:	46de      	mov	lr, fp
    277c:	4657      	mov	r7, sl
    277e:	464e      	mov	r6, r9
    2780:	4645      	mov	r5, r8
    2782:	b5e0      	push	{r5, r6, r7, lr}
    2784:	0007      	movs	r7, r0
    2786:	b08d      	sub	sp, #52	; 0x34
    2788:	000e      	movs	r6, r1
    278a:	0038      	movs	r0, r7
    278c:	a90b      	add	r1, sp, #44	; 0x2c
    278e:	f7ff fc57 	bl	2040 <lfs_alloc>
    2792:	9009      	str	r0, [sp, #36]	; 0x24
    2794:	2800      	cmp	r0, #0
    2796:	d11a      	bne.n	27ce <lfs_file_relocate+0x56>
    2798:	6eb8      	ldr	r0, [r7, #104]	; 0x68
    279a:	990b      	ldr	r1, [sp, #44]	; 0x2c
    279c:	68c3      	ldr	r3, [r0, #12]
    279e:	4798      	blx	r3
    27a0:	1e03      	subs	r3, r0, #0
    27a2:	9009      	str	r0, [sp, #36]	; 0x24
    27a4:	d01b      	beq.n	27de <lfs_file_relocate+0x66>
    27a6:	3354      	adds	r3, #84	; 0x54
    27a8:	d111      	bne.n	27ce <lfs_file_relocate+0x56>
    27aa:	4b69      	ldr	r3, [pc, #420]	; (2950 <lfs_file_relocate+0x1d8>)
    27ac:	4a69      	ldr	r2, [pc, #420]	; (2954 <lfs_file_relocate+0x1dc>)
    27ae:	9300      	str	r3, [sp, #0]
    27b0:	4969      	ldr	r1, [pc, #420]	; (2958 <lfs_file_relocate+0x1e0>)
    27b2:	9b0b      	ldr	r3, [sp, #44]	; 0x2c
    27b4:	4869      	ldr	r0, [pc, #420]	; (295c <lfs_file_relocate+0x1e4>)
    27b6:	f7ff fffe 	bl	0 <printf>
    27ba:	2301      	movs	r3, #1
    27bc:	425b      	negs	r3, r3
    27be:	613b      	str	r3, [r7, #16]
    27c0:	a90b      	add	r1, sp, #44	; 0x2c
    27c2:	0038      	movs	r0, r7
    27c4:	f7ff fc3c 	bl	2040 <lfs_alloc>
    27c8:	9009      	str	r0, [sp, #36]	; 0x24
    27ca:	2800      	cmp	r0, #0
    27cc:	d0e4      	beq.n	2798 <lfs_file_relocate+0x20>
    27ce:	9809      	ldr	r0, [sp, #36]	; 0x24
    27d0:	b00d      	add	sp, #52	; 0x34
    27d2:	bc3c      	pop	{r2, r3, r4, r5}
    27d4:	4690      	mov	r8, r2
    27d6:	4699      	mov	r9, r3
    27d8:	46a2      	mov	sl, r4
    27da:	46ab      	mov	fp, r5
    27dc:	bdf0      	pop	{r4, r5, r6, r7, pc}
    27de:	6bf2      	ldr	r2, [r6, #60]	; 0x3c
    27e0:	2a00      	cmp	r2, #0
    27e2:	d07d      	beq.n	28e0 <lfs_file_relocate+0x168>
    27e4:	2301      	movs	r3, #1
    27e6:	2180      	movs	r1, #128	; 0x80
    27e8:	1e5d      	subs	r5, r3, #1
    27ea:	469b      	mov	fp, r3
    27ec:	1b53      	subs	r3, r2, r5
    27ee:	9305      	str	r3, [sp, #20]
    27f0:	6b33      	ldr	r3, [r6, #48]	; 0x30
    27f2:	0349      	lsls	r1, r1, #13
    27f4:	6eba      	ldr	r2, [r7, #104]	; 0x68
    27f6:	420b      	tst	r3, r1
    27f8:	d046      	beq.n	2888 <lfs_file_relocate+0x110>
    27fa:	2308      	movs	r3, #8
    27fc:	469c      	mov	ip, r3
    27fe:	44b4      	add	ip, r6
    2800:	4663      	mov	r3, ip
    2802:	9307      	str	r3, [sp, #28]
    2804:	88b3      	ldrh	r3, [r6, #4]
    2806:	4956      	ldr	r1, [pc, #344]	; (2960 <lfs_file_relocate+0x1e8>)
    2808:	029b      	lsls	r3, r3, #10
    280a:	4319      	orrs	r1, r3
    280c:	69d3      	ldr	r3, [r2, #28]
    280e:	9108      	str	r1, [sp, #32]
    2810:	459b      	cmp	fp, r3
    2812:	d900      	bls.n	2816 <lfs_file_relocate+0x9e>
    2814:	e097      	b.n	2946 <lfs_file_relocate+0x1ce>
    2816:	46ba      	mov	sl, r7
    2818:	6cf3      	ldr	r3, [r6, #76]	; 0x4c
    281a:	9306      	str	r3, [sp, #24]
    281c:	6c33      	ldr	r3, [r6, #64]	; 0x40
    281e:	3302      	adds	r3, #2
    2820:	d106      	bne.n	2830 <lfs_file_relocate+0xb8>
    2822:	6c71      	ldr	r1, [r6, #68]	; 0x44
    2824:	6cb3      	ldr	r3, [r6, #72]	; 0x48
    2826:	18ca      	adds	r2, r1, r3
    2828:	4295      	cmp	r5, r2
    282a:	d201      	bcs.n	2830 <lfs_file_relocate+0xb8>
    282c:	428d      	cmp	r5, r1
    282e:	d274      	bcs.n	291a <lfs_file_relocate+0x1a2>
    2830:	2302      	movs	r3, #2
    2832:	425b      	negs	r3, r3
    2834:	6433      	str	r3, [r6, #64]	; 0x40
    2836:	4653      	mov	r3, sl
    2838:	6e9b      	ldr	r3, [r3, #104]	; 0x68
    283a:	0028      	movs	r0, r5
    283c:	4699      	mov	r9, r3
    283e:	695b      	ldr	r3, [r3, #20]
    2840:	4698      	mov	r8, r3
    2842:	0019      	movs	r1, r3
    2844:	f7ff fffe 	bl	0 <__aeabi_uidivmod>
    2848:	4643      	mov	r3, r8
    284a:	1e5c      	subs	r4, r3, #1
    284c:	9b05      	ldr	r3, [sp, #20]
    284e:	1a6f      	subs	r7, r5, r1
    2850:	469c      	mov	ip, r3
    2852:	4464      	add	r4, ip
    2854:	1964      	adds	r4, r4, r5
    2856:	0020      	movs	r0, r4
    2858:	6477      	str	r7, [r6, #68]	; 0x44
    285a:	4641      	mov	r1, r8
    285c:	f7ff fffe 	bl	0 <__aeabi_uidivmod>
    2860:	464b      	mov	r3, r9
    2862:	6a9b      	ldr	r3, [r3, #40]	; 0x28
    2864:	1a64      	subs	r4, r4, r1
    2866:	429c      	cmp	r4, r3
    2868:	d900      	bls.n	286c <lfs_file_relocate+0xf4>
    286a:	001c      	movs	r4, r3
    286c:	9b06      	ldr	r3, [sp, #24]
    286e:	64b4      	str	r4, [r6, #72]	; 0x48
    2870:	9300      	str	r3, [sp, #0]
    2872:	9401      	str	r4, [sp, #4]
    2874:	003b      	movs	r3, r7
    2876:	9a08      	ldr	r2, [sp, #32]
    2878:	9907      	ldr	r1, [sp, #28]
    287a:	4650      	mov	r0, sl
    287c:	f7fe ff10 	bl	16a0 <lfs_dir_getslice.constprop.38>
    2880:	2800      	cmp	r0, #0
    2882:	dac9      	bge.n	2818 <lfs_file_relocate+0xa0>
    2884:	9009      	str	r0, [sp, #36]	; 0x24
    2886:	e7a2      	b.n	27ce <lfs_file_relocate+0x56>
    2888:	0031      	movs	r1, r6
    288a:	0038      	movs	r0, r7
    288c:	6bb3      	ldr	r3, [r6, #56]	; 0x38
    288e:	6a14      	ldr	r4, [r2, #32]
    2890:	3140      	adds	r1, #64	; 0x40
    2892:	3068      	adds	r0, #104	; 0x68
    2894:	42a3      	cmp	r3, r4
    2896:	d256      	bcs.n	2946 <lfs_file_relocate+0x1ce>
    2898:	69d2      	ldr	r2, [r2, #28]
    289a:	4593      	cmp	fp, r2
    289c:	d853      	bhi.n	2946 <lfs_file_relocate+0x1ce>
    289e:	2201      	movs	r2, #1
    28a0:	9203      	str	r2, [sp, #12]
    28a2:	aa06      	add	r2, sp, #24
    28a4:	4694      	mov	ip, r2
    28a6:	2413      	movs	r4, #19
    28a8:	4464      	add	r4, ip
    28aa:	9300      	str	r3, [sp, #0]
    28ac:	9402      	str	r4, [sp, #8]
    28ae:	9501      	str	r5, [sp, #4]
    28b0:	9b05      	ldr	r3, [sp, #20]
    28b2:	003a      	movs	r2, r7
    28b4:	f7fd fc74 	bl	1a0 <lfs_bd_read.isra.21.part.22>
    28b8:	2800      	cmp	r0, #0
    28ba:	d1e3      	bne.n	2884 <lfs_file_relocate+0x10c>
    28bc:	2301      	movs	r3, #1
    28be:	0039      	movs	r1, r7
    28c0:	9302      	str	r3, [sp, #8]
    28c2:	9401      	str	r4, [sp, #4]
    28c4:	9500      	str	r5, [sp, #0]
    28c6:	9b0b      	ldr	r3, [sp, #44]	; 0x2c
    28c8:	003a      	movs	r2, r7
    28ca:	3110      	adds	r1, #16
    28cc:	0038      	movs	r0, r7
    28ce:	f7fe f8e5 	bl	a9c <lfs_bd_prog.constprop.34>
    28d2:	2800      	cmp	r0, #0
    28d4:	d131      	bne.n	293a <lfs_file_relocate+0x1c2>
    28d6:	465b      	mov	r3, fp
    28d8:	6bf2      	ldr	r2, [r6, #60]	; 0x3c
    28da:	3301      	adds	r3, #1
    28dc:	455a      	cmp	r2, fp
    28de:	d882      	bhi.n	27e6 <lfs_file_relocate+0x6e>
    28e0:	6ebb      	ldr	r3, [r7, #104]	; 0x68
    28e2:	69f9      	ldr	r1, [r7, #28]
    28e4:	6a9a      	ldr	r2, [r3, #40]	; 0x28
    28e6:	6cf0      	ldr	r0, [r6, #76]	; 0x4c
    28e8:	f7ff fffe 	bl	0 <memcpy>
    28ec:	69bb      	ldr	r3, [r7, #24]
    28ee:	697a      	ldr	r2, [r7, #20]
    28f0:	6939      	ldr	r1, [r7, #16]
    28f2:	64b3      	str	r3, [r6, #72]	; 0x48
    28f4:	6ebb      	ldr	r3, [r7, #104]	; 0x68
    28f6:	6431      	str	r1, [r6, #64]	; 0x40
    28f8:	6472      	str	r2, [r6, #68]	; 0x44
    28fa:	6a9a      	ldr	r2, [r3, #40]	; 0x28
    28fc:	21ff      	movs	r1, #255	; 0xff
    28fe:	69f8      	ldr	r0, [r7, #28]
    2900:	f7ff fffe 	bl	0 <memset>
    2904:	2301      	movs	r3, #1
    2906:	425b      	negs	r3, r3
    2908:	613b      	str	r3, [r7, #16]
    290a:	9b0b      	ldr	r3, [sp, #44]	; 0x2c
    290c:	6b32      	ldr	r2, [r6, #48]	; 0x30
    290e:	63b3      	str	r3, [r6, #56]	; 0x38
    2910:	2380      	movs	r3, #128	; 0x80
    2912:	029b      	lsls	r3, r3, #10
    2914:	4313      	orrs	r3, r2
    2916:	6333      	str	r3, [r6, #48]	; 0x30
    2918:	e759      	b.n	27ce <lfs_file_relocate+0x56>
    291a:	ab06      	add	r3, sp, #24
    291c:	2413      	movs	r4, #19
    291e:	469c      	mov	ip, r3
    2920:	4657      	mov	r7, sl
    2922:	4464      	add	r4, ip
    2924:	1b52      	subs	r2, r2, r5
    2926:	d000      	beq.n	292a <lfs_file_relocate+0x1b2>
    2928:	2201      	movs	r2, #1
    292a:	9b06      	ldr	r3, [sp, #24]
    292c:	1a69      	subs	r1, r5, r1
    292e:	469c      	mov	ip, r3
    2930:	0020      	movs	r0, r4
    2932:	4461      	add	r1, ip
    2934:	f7ff fffe 	bl	0 <memcpy>
    2938:	e7c0      	b.n	28bc <lfs_file_relocate+0x144>
    293a:	0003      	movs	r3, r0
    293c:	3354      	adds	r3, #84	; 0x54
    293e:	d100      	bne.n	2942 <lfs_file_relocate+0x1ca>
    2940:	e733      	b.n	27aa <lfs_file_relocate+0x32>
    2942:	9009      	str	r0, [sp, #36]	; 0x24
    2944:	e743      	b.n	27ce <lfs_file_relocate+0x56>
    2946:	2054      	movs	r0, #84	; 0x54
    2948:	4240      	negs	r0, r0
    294a:	9009      	str	r0, [sp, #36]	; 0x24
    294c:	e73f      	b.n	27ce <lfs_file_relocate+0x56>
    294e:	46c0      	nop			; (mov r8, r8)
    2950:	00000074 	.word	0x00000074
    2954:	00000a97 	.word	0x00000a97
    2958:	00000000 	.word	0x00000000
    295c:	000000a8 	.word	0x000000a8
    2960:	20100000 	.word	0x20100000

00002964 <lfs_file_rawwrite>:
    2964:	b5f0      	push	{r4, r5, r6, r7, lr}
    2966:	46de      	mov	lr, fp
    2968:	4657      	mov	r7, sl
    296a:	464e      	mov	r6, r9
    296c:	4645      	mov	r5, r8
    296e:	b5e0      	push	{r5, r6, r7, lr}
    2970:	b091      	sub	sp, #68	; 0x44
    2972:	9308      	str	r3, [sp, #32]
    2974:	6b0b      	ldr	r3, [r1, #48]	; 0x30
    2976:	4683      	mov	fp, r0
    2978:	000f      	movs	r7, r1
    297a:	9206      	str	r2, [sp, #24]
    297c:	035a      	lsls	r2, r3, #13
    297e:	d500      	bpl.n	2982 <lfs_file_rawwrite+0x1e>
    2980:	e196      	b.n	2cb0 <lfs_file_rawwrite+0x34c>
    2982:	6b7d      	ldr	r5, [r7, #52]	; 0x34
    2984:	051a      	lsls	r2, r3, #20
    2986:	d504      	bpl.n	2992 <lfs_file_rawwrite+0x2e>
    2988:	6afa      	ldr	r2, [r7, #44]	; 0x2c
    298a:	42aa      	cmp	r2, r5
    298c:	d901      	bls.n	2992 <lfs_file_rawwrite+0x2e>
    298e:	0015      	movs	r5, r2
    2990:	637a      	str	r2, [r7, #52]	; 0x34
    2992:	4659      	mov	r1, fp
    2994:	9a08      	ldr	r2, [sp, #32]
    2996:	6f09      	ldr	r1, [r1, #112]	; 0x70
    2998:	1952      	adds	r2, r2, r5
    299a:	428a      	cmp	r2, r1
    299c:	d900      	bls.n	29a0 <lfs_file_rawwrite+0x3c>
    299e:	e233      	b.n	2e08 <lfs_file_rawwrite+0x4a4>
    29a0:	039a      	lsls	r2, r3, #14
    29a2:	d41a      	bmi.n	29da <lfs_file_rawwrite+0x76>
    29a4:	6afa      	ldr	r2, [r7, #44]	; 0x2c
    29a6:	42aa      	cmp	r2, r5
    29a8:	d217      	bcs.n	29da <lfs_file_rawwrite+0x76>
    29aa:	ab08      	add	r3, sp, #32
    29ac:	2417      	movs	r4, #23
    29ae:	469c      	mov	ip, r3
    29b0:	46a8      	mov	r8, r5
    29b2:	2600      	movs	r6, #0
    29b4:	465d      	mov	r5, fp
    29b6:	637a      	str	r2, [r7, #52]	; 0x34
    29b8:	4464      	add	r4, ip
    29ba:	2301      	movs	r3, #1
    29bc:	0022      	movs	r2, r4
    29be:	0039      	movs	r1, r7
    29c0:	0028      	movs	r0, r5
    29c2:	7026      	strb	r6, [r4, #0]
    29c4:	f7ff ffce 	bl	2964 <lfs_file_rawwrite>
    29c8:	2800      	cmp	r0, #0
    29ca:	da00      	bge.n	29ce <lfs_file_rawwrite+0x6a>
    29cc:	e13e      	b.n	2c4c <lfs_file_rawwrite+0x2e8>
    29ce:	6b7a      	ldr	r2, [r7, #52]	; 0x34
    29d0:	4542      	cmp	r2, r8
    29d2:	d3f2      	bcc.n	29ba <lfs_file_rawwrite+0x56>
    29d4:	46ab      	mov	fp, r5
    29d6:	0015      	movs	r5, r2
    29d8:	6b3b      	ldr	r3, [r7, #48]	; 0x30
    29da:	02da      	lsls	r2, r3, #11
    29dc:	d500      	bpl.n	29e0 <lfs_file_rawwrite+0x7c>
    29de:	e081      	b.n	2ae4 <lfs_file_rawwrite+0x180>
    29e0:	2240      	movs	r2, #64	; 0x40
    29e2:	4694      	mov	ip, r2
    29e4:	44bc      	add	ip, r7
    29e6:	4662      	mov	r2, ip
    29e8:	2168      	movs	r1, #104	; 0x68
    29ea:	9207      	str	r2, [sp, #28]
    29ec:	9a08      	ldr	r2, [sp, #32]
    29ee:	4459      	add	r1, fp
    29f0:	9209      	str	r2, [sp, #36]	; 0x24
    29f2:	910a      	str	r1, [sp, #40]	; 0x28
    29f4:	465e      	mov	r6, fp
    29f6:	2a00      	cmp	r2, #0
    29f8:	d100      	bne.n	29fc <lfs_file_rawwrite+0x98>
    29fa:	e1f5      	b.n	2de8 <lfs_file_rawwrite+0x484>
    29fc:	039a      	lsls	r2, r3, #14
    29fe:	d561      	bpl.n	2ac4 <lfs_file_rawwrite+0x160>
    2a00:	6eb5      	ldr	r5, [r6, #104]	; 0x68
    2a02:	6bfc      	ldr	r4, [r7, #60]	; 0x3c
    2a04:	69ea      	ldr	r2, [r5, #28]
    2a06:	4294      	cmp	r4, r2
    2a08:	d100      	bne.n	2a0c <lfs_file_rawwrite+0xa8>
    2a0a:	e170      	b.n	2cee <lfs_file_rawwrite+0x38a>
    2a0c:	6bbb      	ldr	r3, [r7, #56]	; 0x38
    2a0e:	1b12      	subs	r2, r2, r4
    2a10:	469a      	mov	sl, r3
    2a12:	9b09      	ldr	r3, [sp, #36]	; 0x24
    2a14:	9305      	str	r3, [sp, #20]
    2a16:	4293      	cmp	r3, r2
    2a18:	d900      	bls.n	2a1c <lfs_file_rawwrite+0xb8>
    2a1a:	9205      	str	r2, [sp, #20]
    2a1c:	9b05      	ldr	r3, [sp, #20]
    2a1e:	2b00      	cmp	r3, #0
    2a20:	d03a      	beq.n	2a98 <lfs_file_rawwrite+0x134>
    2a22:	46b1      	mov	r9, r6
    2a24:	9b06      	ldr	r3, [sp, #24]
    2a26:	9e05      	ldr	r6, [sp, #20]
    2a28:	4698      	mov	r8, r3
    2a2a:	6aab      	ldr	r3, [r5, #40]	; 0x28
    2a2c:	469b      	mov	fp, r3
    2a2e:	e009      	b.n	2a44 <lfs_file_rawwrite+0xe0>
    2a30:	4653      	mov	r3, sl
    2a32:	69a9      	ldr	r1, [r5, #24]
    2a34:	643b      	str	r3, [r7, #64]	; 0x40
    2a36:	0020      	movs	r0, r4
    2a38:	f7ff fffe 	bl	0 <__aeabi_uidivmod>
    2a3c:	2300      	movs	r3, #0
    2a3e:	1a61      	subs	r1, r4, r1
    2a40:	6479      	str	r1, [r7, #68]	; 0x44
    2a42:	64bb      	str	r3, [r7, #72]	; 0x48
    2a44:	6c3b      	ldr	r3, [r7, #64]	; 0x40
    2a46:	4553      	cmp	r3, sl
    2a48:	d1f2      	bne.n	2a30 <lfs_file_rawwrite+0xcc>
    2a4a:	6c78      	ldr	r0, [r7, #68]	; 0x44
    2a4c:	42a0      	cmp	r0, r4
    2a4e:	d8ef      	bhi.n	2a30 <lfs_file_rawwrite+0xcc>
    2a50:	465b      	mov	r3, fp
    2a52:	18c3      	adds	r3, r0, r3
    2a54:	42a3      	cmp	r3, r4
    2a56:	d9eb      	bls.n	2a30 <lfs_file_rawwrite+0xcc>
    2a58:	1b1d      	subs	r5, r3, r4
    2a5a:	42b5      	cmp	r5, r6
    2a5c:	d900      	bls.n	2a60 <lfs_file_rawwrite+0xfc>
    2a5e:	0035      	movs	r5, r6
    2a60:	6cfb      	ldr	r3, [r7, #76]	; 0x4c
    2a62:	1a20      	subs	r0, r4, r0
    2a64:	469c      	mov	ip, r3
    2a66:	002a      	movs	r2, r5
    2a68:	4641      	mov	r1, r8
    2a6a:	4460      	add	r0, ip
    2a6c:	f7ff fffe 	bl	0 <memcpy>
    2a70:	6c7b      	ldr	r3, [r7, #68]	; 0x44
    2a72:	6cba      	ldr	r2, [r7, #72]	; 0x48
    2a74:	1964      	adds	r4, r4, r5
    2a76:	44a8      	add	r8, r5
    2a78:	1b76      	subs	r6, r6, r5
    2a7a:	1ae3      	subs	r3, r4, r3
    2a7c:	4293      	cmp	r3, r2
    2a7e:	d200      	bcs.n	2a82 <lfs_file_rawwrite+0x11e>
    2a80:	0013      	movs	r3, r2
    2a82:	464a      	mov	r2, r9
    2a84:	6e95      	ldr	r5, [r2, #104]	; 0x68
    2a86:	64bb      	str	r3, [r7, #72]	; 0x48
    2a88:	6aaa      	ldr	r2, [r5, #40]	; 0x28
    2a8a:	4293      	cmp	r3, r2
    2a8c:	d100      	bne.n	2a90 <lfs_file_rawwrite+0x12c>
    2a8e:	e0e4      	b.n	2c5a <lfs_file_rawwrite+0x2f6>
    2a90:	2e00      	cmp	r6, #0
    2a92:	d1ca      	bne.n	2a2a <lfs_file_rawwrite+0xc6>
    2a94:	464e      	mov	r6, r9
    2a96:	6bfc      	ldr	r4, [r7, #60]	; 0x3c
    2a98:	9a05      	ldr	r2, [sp, #20]
    2a9a:	6b7b      	ldr	r3, [r7, #52]	; 0x34
    2a9c:	4694      	mov	ip, r2
    2a9e:	4463      	add	r3, ip
    2aa0:	637b      	str	r3, [r7, #52]	; 0x34
    2aa2:	0013      	movs	r3, r2
    2aa4:	9a06      	ldr	r2, [sp, #24]
    2aa6:	4464      	add	r4, ip
    2aa8:	0011      	movs	r1, r2
    2aaa:	9a09      	ldr	r2, [sp, #36]	; 0x24
    2aac:	4461      	add	r1, ip
    2aae:	1ad3      	subs	r3, r2, r3
    2ab0:	6a2a      	ldr	r2, [r5, #32]
    2ab2:	63fc      	str	r4, [r7, #60]	; 0x3c
    2ab4:	9106      	str	r1, [sp, #24]
    2ab6:	9309      	str	r3, [sp, #36]	; 0x24
    2ab8:	6632      	str	r2, [r6, #96]	; 0x60
    2aba:	d100      	bne.n	2abe <lfs_file_rawwrite+0x15a>
    2abc:	e193      	b.n	2de6 <lfs_file_rawwrite+0x482>
    2abe:	6b3b      	ldr	r3, [r7, #48]	; 0x30
    2ac0:	039a      	lsls	r2, r3, #14
    2ac2:	d49d      	bmi.n	2a00 <lfs_file_rawwrite+0x9c>
    2ac4:	6b7c      	ldr	r4, [r7, #52]	; 0x34
    2ac6:	02da      	lsls	r2, r3, #11
    2ac8:	d534      	bpl.n	2b34 <lfs_file_rawwrite+0x1d0>
    2aca:	6eb5      	ldr	r5, [r6, #104]	; 0x68
    2acc:	69ea      	ldr	r2, [r5, #28]
    2ace:	2102      	movs	r1, #2
    2ad0:	4249      	negs	r1, r1
    2ad2:	468a      	mov	sl, r1
    2ad4:	63b9      	str	r1, [r7, #56]	; 0x38
    2ad6:	63fc      	str	r4, [r7, #60]	; 0x3c
    2ad8:	1b12      	subs	r2, r2, r4
    2ada:	2180      	movs	r1, #128	; 0x80
    2adc:	0289      	lsls	r1, r1, #10
    2ade:	430b      	orrs	r3, r1
    2ae0:	633b      	str	r3, [r7, #48]	; 0x30
    2ae2:	e796      	b.n	2a12 <lfs_file_rawwrite+0xae>
    2ae4:	9908      	ldr	r1, [sp, #32]
    2ae6:	6afa      	ldr	r2, [r7, #44]	; 0x2c
    2ae8:	194c      	adds	r4, r1, r5
    2aea:	4294      	cmp	r4, r2
    2aec:	d200      	bcs.n	2af0 <lfs_file_rawwrite+0x18c>
    2aee:	e0f6      	b.n	2cde <lfs_file_rawwrite+0x37a>
    2af0:	465a      	mov	r2, fp
    2af2:	6e90      	ldr	r0, [r2, #104]	; 0x68
    2af4:	6c81      	ldr	r1, [r0, #72]	; 0x48
    2af6:	6a82      	ldr	r2, [r0, #40]	; 0x28
    2af8:	2900      	cmp	r1, #0
    2afa:	d100      	bne.n	2afe <lfs_file_rawwrite+0x19a>
    2afc:	e0e8      	b.n	2cd0 <lfs_file_rawwrite+0x36c>
    2afe:	4ec4      	ldr	r6, [pc, #784]	; (2e10 <lfs_file_rawwrite+0x4ac>)
    2b00:	08c9      	lsrs	r1, r1, #3
    2b02:	42b2      	cmp	r2, r6
    2b04:	d900      	bls.n	2b08 <lfs_file_rawwrite+0x1a4>
    2b06:	e0de      	b.n	2cc6 <lfs_file_rawwrite+0x362>
    2b08:	428a      	cmp	r2, r1
    2b0a:	d900      	bls.n	2b0e <lfs_file_rawwrite+0x1aa>
    2b0c:	e0d6      	b.n	2cbc <lfs_file_rawwrite+0x358>
    2b0e:	42a2      	cmp	r2, r4
    2b10:	d300      	bcc.n	2b14 <lfs_file_rawwrite+0x1b0>
    2b12:	e765      	b.n	29e0 <lfs_file_rawwrite+0x7c>
    2b14:	465b      	mov	r3, fp
    2b16:	6a02      	ldr	r2, [r0, #32]
    2b18:	63fd      	str	r5, [r7, #60]	; 0x3c
    2b1a:	0039      	movs	r1, r7
    2b1c:	661a      	str	r2, [r3, #96]	; 0x60
    2b1e:	4658      	mov	r0, fp
    2b20:	f7ff fe2a 	bl	2778 <lfs_file_relocate>
    2b24:	2800      	cmp	r0, #0
    2b26:	d000      	beq.n	2b2a <lfs_file_rawwrite+0x1c6>
    2b28:	e08b      	b.n	2c42 <lfs_file_rawwrite+0x2de>
    2b2a:	6b3a      	ldr	r2, [r7, #48]	; 0x30
    2b2c:	4bb9      	ldr	r3, [pc, #740]	; (2e14 <lfs_file_rawwrite+0x4b0>)
    2b2e:	4013      	ands	r3, r2
    2b30:	633b      	str	r3, [r7, #48]	; 0x30
    2b32:	e755      	b.n	29e0 <lfs_file_rawwrite+0x7c>
    2b34:	2c00      	cmp	r4, #0
    2b36:	d000      	beq.n	2b3a <lfs_file_rawwrite+0x1d6>
    2b38:	e0de      	b.n	2cf8 <lfs_file_rawwrite+0x394>
    2b3a:	6eb5      	ldr	r5, [r6, #104]	; 0x68
    2b3c:	6a2b      	ldr	r3, [r5, #32]
    2b3e:	6633      	str	r3, [r6, #96]	; 0x60
    2b40:	6bbb      	ldr	r3, [r7, #56]	; 0x38
    2b42:	469b      	mov	fp, r3
    2b44:	6b7b      	ldr	r3, [r7, #52]	; 0x34
    2b46:	9305      	str	r3, [sp, #20]
    2b48:	003b      	movs	r3, r7
    2b4a:	465f      	mov	r7, fp
    2b4c:	469b      	mov	fp, r3
    2b4e:	a90e      	add	r1, sp, #56	; 0x38
    2b50:	0030      	movs	r0, r6
    2b52:	f7ff fa75 	bl	2040 <lfs_alloc>
    2b56:	2800      	cmp	r0, #0
    2b58:	d172      	bne.n	2c40 <lfs_file_rawwrite+0x2dc>
    2b5a:	6eb0      	ldr	r0, [r6, #104]	; 0x68
    2b5c:	990e      	ldr	r1, [sp, #56]	; 0x38
    2b5e:	68c3      	ldr	r3, [r0, #12]
    2b60:	4798      	blx	r3
    2b62:	2800      	cmp	r0, #0
    2b64:	d000      	beq.n	2b68 <lfs_file_rawwrite+0x204>
    2b66:	e093      	b.n	2c90 <lfs_file_rawwrite+0x32c>
    2b68:	6eb3      	ldr	r3, [r6, #104]	; 0x68
    2b6a:	4698      	mov	r8, r3
    2b6c:	9b05      	ldr	r3, [sp, #20]
    2b6e:	2b00      	cmp	r3, #0
    2b70:	d100      	bne.n	2b74 <lfs_file_rawwrite+0x210>
    2b72:	e13e      	b.n	2df2 <lfs_file_rawwrite+0x48e>
    2b74:	4642      	mov	r2, r8
    2b76:	69d4      	ldr	r4, [r2, #28]
    2b78:	2208      	movs	r2, #8
    2b7a:	4252      	negs	r2, r2
    2b7c:	4691      	mov	r9, r2
    2b7e:	1e5d      	subs	r5, r3, #1
    2b80:	44a1      	add	r9, r4
    2b82:	454d      	cmp	r5, r9
    2b84:	d200      	bcs.n	2b88 <lfs_file_rawwrite+0x224>
    2b86:	e0d0      	b.n	2d2a <lfs_file_rawwrite+0x3c6>
    2b88:	4649      	mov	r1, r9
    2b8a:	0028      	movs	r0, r5
    2b8c:	f7ff fffe 	bl	0 <__aeabi_uidiv>
    2b90:	3801      	subs	r0, #1
    2b92:	f7ff fffe 	bl	0 <__popcountsi2>
    2b96:	3002      	adds	r0, #2
    2b98:	0080      	lsls	r0, r0, #2
    2b9a:	4649      	mov	r1, r9
    2b9c:	1a28      	subs	r0, r5, r0
    2b9e:	f7ff fffe 	bl	0 <__aeabi_uidiv>
    2ba2:	0005      	movs	r5, r0
    2ba4:	f7ff fffe 	bl	0 <__popcountsi2>
    2ba8:	9b05      	ldr	r3, [sp, #20]
    2baa:	0080      	lsls	r0, r0, #2
    2bac:	1a18      	subs	r0, r3, r0
    2bae:	464b      	mov	r3, r9
    2bb0:	436b      	muls	r3, r5
    2bb2:	1ac3      	subs	r3, r0, r3
    2bb4:	4699      	mov	r9, r3
    2bb6:	429c      	cmp	r4, r3
    2bb8:	d100      	bne.n	2bbc <lfs_file_rawwrite+0x258>
    2bba:	e0f9      	b.n	2db0 <lfs_file_rawwrite+0x44c>
    2bbc:	2b00      	cmp	r3, #0
    2bbe:	d100      	bne.n	2bc2 <lfs_file_rawwrite+0x25e>
    2bc0:	e10d      	b.n	2dde <lfs_file_rawwrite+0x47a>
    2bc2:	4643      	mov	r3, r8
    2bc4:	6a1b      	ldr	r3, [r3, #32]
    2bc6:	429f      	cmp	r7, r3
    2bc8:	d300      	bcc.n	2bcc <lfs_file_rawwrite+0x268>
    2bca:	e104      	b.n	2dd6 <lfs_file_rawwrite+0x472>
    2bcc:	2c00      	cmp	r4, #0
    2bce:	d100      	bne.n	2bd2 <lfs_file_rawwrite+0x26e>
    2bd0:	e101      	b.n	2dd6 <lfs_file_rawwrite+0x472>
    2bd2:	2301      	movs	r3, #1
    2bd4:	469a      	mov	sl, r3
    2bd6:	464b      	mov	r3, r9
    2bd8:	9a0a      	ldr	r2, [sp, #40]	; 0x28
    2bda:	46b9      	mov	r9, r7
    2bdc:	2400      	movs	r4, #0
    2bde:	ad0f      	add	r5, sp, #60	; 0x3c
    2be0:	4690      	mov	r8, r2
    2be2:	001f      	movs	r7, r3
    2be4:	e00e      	b.n	2c04 <lfs_file_rawwrite+0x2a0>
    2be6:	1c63      	adds	r3, r4, #1
    2be8:	6eb2      	ldr	r2, [r6, #104]	; 0x68
    2bea:	42bb      	cmp	r3, r7
    2bec:	d300      	bcc.n	2bf0 <lfs_file_rawwrite+0x28c>
    2bee:	e0e7      	b.n	2dc0 <lfs_file_rawwrite+0x45c>
    2bf0:	6a11      	ldr	r1, [r2, #32]
    2bf2:	4589      	cmp	r9, r1
    2bf4:	d300      	bcc.n	2bf8 <lfs_file_rawwrite+0x294>
    2bf6:	e0ee      	b.n	2dd6 <lfs_file_rawwrite+0x472>
    2bf8:	69d2      	ldr	r2, [r2, #28]
    2bfa:	3402      	adds	r4, #2
    2bfc:	42a2      	cmp	r2, r4
    2bfe:	d200      	bcs.n	2c02 <lfs_file_rawwrite+0x29e>
    2c00:	e0e9      	b.n	2dd6 <lfs_file_rawwrite+0x472>
    2c02:	001c      	movs	r4, r3
    2c04:	4652      	mov	r2, sl
    2c06:	9203      	str	r2, [sp, #12]
    2c08:	464a      	mov	r2, r9
    2c0a:	1b3b      	subs	r3, r7, r4
    2c0c:	9200      	str	r2, [sp, #0]
    2c0e:	9502      	str	r5, [sp, #8]
    2c10:	9401      	str	r4, [sp, #4]
    2c12:	0032      	movs	r2, r6
    2c14:	2100      	movs	r1, #0
    2c16:	4640      	mov	r0, r8
    2c18:	f7fd fac2 	bl	1a0 <lfs_bd_read.isra.21.part.22>
    2c1c:	2800      	cmp	r0, #0
    2c1e:	d10f      	bne.n	2c40 <lfs_file_rawwrite+0x2dc>
    2c20:	4653      	mov	r3, sl
    2c22:	9501      	str	r5, [sp, #4]
    2c24:	9302      	str	r3, [sp, #8]
    2c26:	9400      	str	r4, [sp, #0]
    2c28:	9b0e      	ldr	r3, [sp, #56]	; 0x38
    2c2a:	0032      	movs	r2, r6
    2c2c:	9907      	ldr	r1, [sp, #28]
    2c2e:	0030      	movs	r0, r6
    2c30:	f7fd ff34 	bl	a9c <lfs_bd_prog.constprop.34>
    2c34:	2800      	cmp	r0, #0
    2c36:	d0d6      	beq.n	2be6 <lfs_file_rawwrite+0x282>
    2c38:	0003      	movs	r3, r0
    2c3a:	464f      	mov	r7, r9
    2c3c:	3354      	adds	r3, #84	; 0x54
    2c3e:	d02a      	beq.n	2c96 <lfs_file_rawwrite+0x332>
    2c40:	465f      	mov	r7, fp
    2c42:	2380      	movs	r3, #128	; 0x80
    2c44:	6b3a      	ldr	r2, [r7, #48]	; 0x30
    2c46:	031b      	lsls	r3, r3, #12
    2c48:	4313      	orrs	r3, r2
    2c4a:	633b      	str	r3, [r7, #48]	; 0x30
    2c4c:	b011      	add	sp, #68	; 0x44
    2c4e:	bc3c      	pop	{r2, r3, r4, r5}
    2c50:	4690      	mov	r8, r2
    2c52:	4699      	mov	r9, r3
    2c54:	46a2      	mov	sl, r4
    2c56:	46ab      	mov	fp, r5
    2c58:	bdf0      	pop	{r4, r5, r6, r7, pc}
    2c5a:	2301      	movs	r3, #1
    2c5c:	464a      	mov	r2, r9
    2c5e:	9907      	ldr	r1, [sp, #28]
    2c60:	4648      	mov	r0, r9
    2c62:	f7fd fe89 	bl	978 <lfs_bd_flush>
    2c66:	2800      	cmp	r0, #0
    2c68:	d102      	bne.n	2c70 <lfs_file_rawwrite+0x30c>
    2c6a:	464b      	mov	r3, r9
    2c6c:	6e9d      	ldr	r5, [r3, #104]	; 0x68
    2c6e:	e70f      	b.n	2a90 <lfs_file_rawwrite+0x12c>
    2c70:	0003      	movs	r3, r0
    2c72:	3354      	adds	r3, #84	; 0x54
    2c74:	d1e5      	bne.n	2c42 <lfs_file_rawwrite+0x2de>
    2c76:	0039      	movs	r1, r7
    2c78:	4648      	mov	r0, r9
    2c7a:	f7ff fd7d 	bl	2778 <lfs_file_relocate>
    2c7e:	2800      	cmp	r0, #0
    2c80:	d1df      	bne.n	2c42 <lfs_file_rawwrite+0x2de>
    2c82:	464b      	mov	r3, r9
    2c84:	6e9d      	ldr	r5, [r3, #104]	; 0x68
    2c86:	6bbb      	ldr	r3, [r7, #56]	; 0x38
    2c88:	6bfc      	ldr	r4, [r7, #60]	; 0x3c
    2c8a:	469a      	mov	sl, r3
    2c8c:	e6ca      	b.n	2a24 <lfs_file_rawwrite+0xc0>
    2c8e:	9f0b      	ldr	r7, [sp, #44]	; 0x2c
    2c90:	0003      	movs	r3, r0
    2c92:	3354      	adds	r3, #84	; 0x54
    2c94:	d1d4      	bne.n	2c40 <lfs_file_rawwrite+0x2dc>
    2c96:	4b60      	ldr	r3, [pc, #384]	; (2e18 <lfs_file_rawwrite+0x4b4>)
    2c98:	4a60      	ldr	r2, [pc, #384]	; (2e1c <lfs_file_rawwrite+0x4b8>)
    2c9a:	9300      	str	r3, [sp, #0]
    2c9c:	4960      	ldr	r1, [pc, #384]	; (2e20 <lfs_file_rawwrite+0x4bc>)
    2c9e:	9b0e      	ldr	r3, [sp, #56]	; 0x38
    2ca0:	4860      	ldr	r0, [pc, #384]	; (2e24 <lfs_file_rawwrite+0x4c0>)
    2ca2:	f7ff fffe 	bl	0 <printf>
    2ca6:	2301      	movs	r3, #1
    2ca8:	465a      	mov	r2, fp
    2caa:	425b      	negs	r3, r3
    2cac:	6413      	str	r3, [r2, #64]	; 0x40
    2cae:	e74e      	b.n	2b4e <lfs_file_rawwrite+0x1ea>
    2cb0:	f000 f8bc 	bl	2e2c <lfs_file_flush>
    2cb4:	2800      	cmp	r0, #0
    2cb6:	d1c9      	bne.n	2c4c <lfs_file_rawwrite+0x2e8>
    2cb8:	6b3b      	ldr	r3, [r7, #48]	; 0x30
    2cba:	e662      	b.n	2982 <lfs_file_rawwrite+0x1e>
    2cbc:	000a      	movs	r2, r1
    2cbe:	42a2      	cmp	r2, r4
    2cc0:	d300      	bcc.n	2cc4 <lfs_file_rawwrite+0x360>
    2cc2:	e68d      	b.n	29e0 <lfs_file_rawwrite+0x7c>
    2cc4:	e726      	b.n	2b14 <lfs_file_rawwrite+0x1b0>
    2cc6:	0032      	movs	r2, r6
    2cc8:	428a      	cmp	r2, r1
    2cca:	d800      	bhi.n	2cce <lfs_file_rawwrite+0x36a>
    2ccc:	e71f      	b.n	2b0e <lfs_file_rawwrite+0x1aa>
    2cce:	e7f5      	b.n	2cbc <lfs_file_rawwrite+0x358>
    2cd0:	69c1      	ldr	r1, [r0, #28]
    2cd2:	4e4f      	ldr	r6, [pc, #316]	; (2e10 <lfs_file_rawwrite+0x4ac>)
    2cd4:	08c9      	lsrs	r1, r1, #3
    2cd6:	42b2      	cmp	r2, r6
    2cd8:	d800      	bhi.n	2cdc <lfs_file_rawwrite+0x378>
    2cda:	e715      	b.n	2b08 <lfs_file_rawwrite+0x1a4>
    2cdc:	e7f3      	b.n	2cc6 <lfs_file_rawwrite+0x362>
    2cde:	0014      	movs	r4, r2
    2ce0:	465a      	mov	r2, fp
    2ce2:	6e90      	ldr	r0, [r2, #104]	; 0x68
    2ce4:	6c81      	ldr	r1, [r0, #72]	; 0x48
    2ce6:	6a82      	ldr	r2, [r0, #40]	; 0x28
    2ce8:	2900      	cmp	r1, #0
    2cea:	d0f1      	beq.n	2cd0 <lfs_file_rawwrite+0x36c>
    2cec:	e707      	b.n	2afe <lfs_file_rawwrite+0x19a>
    2cee:	02d9      	lsls	r1, r3, #11
    2cf0:	d400      	bmi.n	2cf4 <lfs_file_rawwrite+0x390>
    2cf2:	e723      	b.n	2b3c <lfs_file_rawwrite+0x1d8>
    2cf4:	6b7c      	ldr	r4, [r7, #52]	; 0x34
    2cf6:	e6ea      	b.n	2ace <lfs_file_rawwrite+0x16a>
    2cf8:	003b      	movs	r3, r7
    2cfa:	333c      	adds	r3, #60	; 0x3c
    2cfc:	9302      	str	r3, [sp, #8]
    2cfe:	3c01      	subs	r4, #1
    2d00:	3b04      	subs	r3, #4
    2d02:	9301      	str	r3, [sp, #4]
    2d04:	9400      	str	r4, [sp, #0]
    2d06:	6afb      	ldr	r3, [r7, #44]	; 0x2c
    2d08:	6aba      	ldr	r2, [r7, #40]	; 0x28
    2d0a:	9907      	ldr	r1, [sp, #28]
    2d0c:	0030      	movs	r0, r6
    2d0e:	f7fd fc87 	bl	620 <lfs_ctz_find.constprop.30>
    2d12:	2800      	cmp	r0, #0
    2d14:	d195      	bne.n	2c42 <lfs_file_rawwrite+0x2de>
    2d16:	6eb3      	ldr	r3, [r6, #104]	; 0x68
    2d18:	21ff      	movs	r1, #255	; 0xff
    2d1a:	6a9a      	ldr	r2, [r3, #40]	; 0x28
    2d1c:	6cf8      	ldr	r0, [r7, #76]	; 0x4c
    2d1e:	f7ff fffe 	bl	0 <memset>
    2d22:	2301      	movs	r3, #1
    2d24:	425b      	negs	r3, r3
    2d26:	643b      	str	r3, [r7, #64]	; 0x40
    2d28:	e707      	b.n	2b3a <lfs_file_rawwrite+0x1d6>
    2d2a:	4699      	mov	r9, r3
    2d2c:	42a3      	cmp	r3, r4
    2d2e:	d000      	beq.n	2d32 <lfs_file_rawwrite+0x3ce>
    2d30:	e747      	b.n	2bc2 <lfs_file_rawwrite+0x25e>
    2d32:	2301      	movs	r3, #1
    2d34:	001a      	movs	r2, r3
    2d36:	2300      	movs	r3, #0
    2d38:	469a      	mov	sl, r3
    2d3a:	2304      	movs	r3, #4
    2d3c:	2400      	movs	r4, #0
    2d3e:	4699      	mov	r9, r3
    2d40:	4690      	mov	r8, r2
    2d42:	970f      	str	r7, [sp, #60]	; 0x3c
    2d44:	ad0f      	add	r5, sp, #60	; 0x3c
    2d46:	970b      	str	r7, [sp, #44]	; 0x2c
    2d48:	464b      	mov	r3, r9
    2d4a:	00a7      	lsls	r7, r4, #2
    2d4c:	9302      	str	r3, [sp, #8]
    2d4e:	9501      	str	r5, [sp, #4]
    2d50:	9700      	str	r7, [sp, #0]
    2d52:	9b0e      	ldr	r3, [sp, #56]	; 0x38
    2d54:	0032      	movs	r2, r6
    2d56:	9907      	ldr	r1, [sp, #28]
    2d58:	0030      	movs	r0, r6
    2d5a:	f7fd fe9f 	bl	a9c <lfs_bd_prog.constprop.34>
    2d5e:	2800      	cmp	r0, #0
    2d60:	d195      	bne.n	2c8e <lfs_file_rawwrite+0x32a>
    2d62:	4554      	cmp	r4, sl
    2d64:	d016      	beq.n	2d94 <lfs_file_rawwrite+0x430>
    2d66:	6eb2      	ldr	r2, [r6, #104]	; 0x68
    2d68:	990f      	ldr	r1, [sp, #60]	; 0x3c
    2d6a:	6a13      	ldr	r3, [r2, #32]
    2d6c:	4299      	cmp	r1, r3
    2d6e:	d232      	bcs.n	2dd6 <lfs_file_rawwrite+0x472>
    2d70:	69d2      	ldr	r2, [r2, #28]
    2d72:	1d3b      	adds	r3, r7, #4
    2d74:	429a      	cmp	r2, r3
    2d76:	d32e      	bcc.n	2dd6 <lfs_file_rawwrite+0x472>
    2d78:	464b      	mov	r3, r9
    2d7a:	9100      	str	r1, [sp, #0]
    2d7c:	9303      	str	r3, [sp, #12]
    2d7e:	9502      	str	r5, [sp, #8]
    2d80:	9701      	str	r7, [sp, #4]
    2d82:	2304      	movs	r3, #4
    2d84:	0032      	movs	r2, r6
    2d86:	2100      	movs	r1, #0
    2d88:	980a      	ldr	r0, [sp, #40]	; 0x28
    2d8a:	f7fd fa09 	bl	1a0 <lfs_bd_read.isra.21.part.22>
    2d8e:	2800      	cmp	r0, #0
    2d90:	d000      	beq.n	2d94 <lfs_file_rawwrite+0x430>
    2d92:	e755      	b.n	2c40 <lfs_file_rawwrite+0x2dc>
    2d94:	3401      	adds	r4, #1
    2d96:	4544      	cmp	r4, r8
    2d98:	d1d6      	bne.n	2d48 <lfs_file_rawwrite+0x3e4>
    2d9a:	465f      	mov	r7, fp
    2d9c:	9b0e      	ldr	r3, [sp, #56]	; 0x38
    2d9e:	00a4      	lsls	r4, r4, #2
    2da0:	6eb5      	ldr	r5, [r6, #104]	; 0x68
    2da2:	63bb      	str	r3, [r7, #56]	; 0x38
    2da4:	63fc      	str	r4, [r7, #60]	; 0x3c
    2da6:	69ea      	ldr	r2, [r5, #28]
    2da8:	469a      	mov	sl, r3
    2daa:	1b12      	subs	r2, r2, r4
    2dac:	6b3b      	ldr	r3, [r7, #48]	; 0x30
    2dae:	e694      	b.n	2ada <lfs_file_rawwrite+0x176>
    2db0:	1c68      	adds	r0, r5, #1
    2db2:	f7ff fffe 	bl	0 <__ctzsi2>
    2db6:	0003      	movs	r3, r0
    2db8:	3301      	adds	r3, #1
    2dba:	4682      	mov	sl, r0
    2dbc:	001a      	movs	r2, r3
    2dbe:	e7bc      	b.n	2d3a <lfs_file_rawwrite+0x3d6>
    2dc0:	003c      	movs	r4, r7
    2dc2:	0015      	movs	r5, r2
    2dc4:	465f      	mov	r7, fp
    2dc6:	9b0e      	ldr	r3, [sp, #56]	; 0x38
    2dc8:	63fc      	str	r4, [r7, #60]	; 0x3c
    2dca:	63bb      	str	r3, [r7, #56]	; 0x38
    2dcc:	69ea      	ldr	r2, [r5, #28]
    2dce:	469a      	mov	sl, r3
    2dd0:	1b12      	subs	r2, r2, r4
    2dd2:	6b3b      	ldr	r3, [r7, #48]	; 0x30
    2dd4:	e681      	b.n	2ada <lfs_file_rawwrite+0x176>
    2dd6:	2054      	movs	r0, #84	; 0x54
    2dd8:	465f      	mov	r7, fp
    2dda:	4240      	negs	r0, r0
    2ddc:	e731      	b.n	2c42 <lfs_file_rawwrite+0x2de>
    2dde:	4645      	mov	r5, r8
    2de0:	001c      	movs	r4, r3
    2de2:	465f      	mov	r7, fp
    2de4:	e7ef      	b.n	2dc6 <lfs_file_rawwrite+0x462>
    2de6:	6b3b      	ldr	r3, [r7, #48]	; 0x30
    2de8:	4a0f      	ldr	r2, [pc, #60]	; (2e28 <lfs_file_rawwrite+0x4c4>)
    2dea:	9808      	ldr	r0, [sp, #32]
    2dec:	4013      	ands	r3, r2
    2dee:	633b      	str	r3, [r7, #48]	; 0x30
    2df0:	e72c      	b.n	2c4c <lfs_file_rawwrite+0x2e8>
    2df2:	465f      	mov	r7, fp
    2df4:	4645      	mov	r5, r8
    2df6:	9b0e      	ldr	r3, [sp, #56]	; 0x38
    2df8:	2400      	movs	r4, #0
    2dfa:	63bb      	str	r3, [r7, #56]	; 0x38
    2dfc:	469a      	mov	sl, r3
    2dfe:	9b05      	ldr	r3, [sp, #20]
    2e00:	63fb      	str	r3, [r7, #60]	; 0x3c
    2e02:	69ea      	ldr	r2, [r5, #28]
    2e04:	6b3b      	ldr	r3, [r7, #48]	; 0x30
    2e06:	e668      	b.n	2ada <lfs_file_rawwrite+0x176>
    2e08:	201b      	movs	r0, #27
    2e0a:	4240      	negs	r0, r0
    2e0c:	e71e      	b.n	2c4c <lfs_file_rawwrite+0x2e8>
    2e0e:	46c0      	nop			; (mov r8, r8)
    2e10:	000003fe 	.word	0x000003fe
    2e14:	ffefffff 	.word	0xffefffff
    2e18:	00000074 	.word	0x00000074
    2e1c:	00000966 	.word	0x00000966
    2e20:	00000000 	.word	0x00000000
    2e24:	000000a8 	.word	0x000000a8
    2e28:	fff7ffff 	.word	0xfff7ffff

00002e2c <lfs_file_flush>:
    2e2c:	b5f0      	push	{r4, r5, r6, r7, lr}
    2e2e:	46ce      	mov	lr, r9
    2e30:	4647      	mov	r7, r8
    2e32:	b580      	push	{r7, lr}
    2e34:	6b0b      	ldr	r3, [r1, #48]	; 0x30
    2e36:	b099      	sub	sp, #100	; 0x64
    2e38:	0005      	movs	r5, r0
    2e3a:	000c      	movs	r4, r1
    2e3c:	035a      	lsls	r2, r3, #13
    2e3e:	d505      	bpl.n	2e4c <lfs_file_flush+0x20>
    2e40:	02da      	lsls	r2, r3, #11
    2e42:	d400      	bmi.n	2e46 <lfs_file_flush+0x1a>
    2e44:	e073      	b.n	2f2e <lfs_file_flush+0x102>
    2e46:	4a3c      	ldr	r2, [pc, #240]	; (2f38 <lfs_file_flush+0x10c>)
    2e48:	4013      	ands	r3, r2
    2e4a:	6323      	str	r3, [r4, #48]	; 0x30
    2e4c:	2000      	movs	r0, #0
    2e4e:	039a      	lsls	r2, r3, #14
    2e50:	d563      	bpl.n	2f1a <lfs_file_flush+0xee>
    2e52:	6b67      	ldr	r7, [r4, #52]	; 0x34
    2e54:	6ae6      	ldr	r6, [r4, #44]	; 0x2c
    2e56:	02da      	lsls	r2, r3, #11
    2e58:	d464      	bmi.n	2f24 <lfs_file_flush+0xf8>
    2e5a:	2254      	movs	r2, #84	; 0x54
    2e5c:	2100      	movs	r1, #0
    2e5e:	a803      	add	r0, sp, #12
    2e60:	f7ff fffe 	bl	0 <memset>
    2e64:	6aa3      	ldr	r3, [r4, #40]	; 0x28
    2e66:	002a      	movs	r2, r5
    2e68:	930d      	str	r3, [sp, #52]	; 0x34
    2e6a:	2301      	movs	r3, #1
    2e6c:	960e      	str	r6, [sp, #56]	; 0x38
    2e6e:	930f      	str	r3, [sp, #60]	; 0x3c
    2e70:	9710      	str	r7, [sp, #64]	; 0x40
    2e72:	ab13      	add	r3, sp, #76	; 0x4c
    2e74:	ca43      	ldmia	r2!, {r0, r1, r6}
    2e76:	c343      	stmia	r3!, {r0, r1, r6}
    2e78:	2601      	movs	r6, #1
    2e7a:	6812      	ldr	r2, [r2, #0]
    2e7c:	4276      	negs	r6, r6
    2e7e:	601a      	str	r2, [r3, #0]
    2e80:	602e      	str	r6, [r5, #0]
    2e82:	6b63      	ldr	r3, [r4, #52]	; 0x34
    2e84:	6ae2      	ldr	r2, [r4, #44]	; 0x2c
    2e86:	4293      	cmp	r3, r2
    2e88:	d21a      	bcs.n	2ec0 <lfs_file_flush+0x94>
    2e8a:	220b      	movs	r2, #11
    2e8c:	2301      	movs	r3, #1
    2e8e:	446a      	add	r2, sp
    2e90:	a903      	add	r1, sp, #12
    2e92:	0028      	movs	r0, r5
    2e94:	f000 f85c 	bl	2f50 <lfs_file_rawread>
    2e98:	2800      	cmp	r0, #0
    2e9a:	db3e      	blt.n	2f1a <lfs_file_flush+0xee>
    2e9c:	220b      	movs	r2, #11
    2e9e:	2301      	movs	r3, #1
    2ea0:	446a      	add	r2, sp
    2ea2:	0021      	movs	r1, r4
    2ea4:	0028      	movs	r0, r5
    2ea6:	f7ff fd5d 	bl	2964 <lfs_file_rawwrite>
    2eaa:	2800      	cmp	r0, #0
    2eac:	db35      	blt.n	2f1a <lfs_file_flush+0xee>
    2eae:	682b      	ldr	r3, [r5, #0]
    2eb0:	3301      	adds	r3, #1
    2eb2:	d0e6      	beq.n	2e82 <lfs_file_flush+0x56>
    2eb4:	602e      	str	r6, [r5, #0]
    2eb6:	6ae3      	ldr	r3, [r4, #44]	; 0x2c
    2eb8:	6b62      	ldr	r2, [r4, #52]	; 0x34
    2eba:	9613      	str	r6, [sp, #76]	; 0x4c
    2ebc:	4293      	cmp	r3, r2
    2ebe:	d8e4      	bhi.n	2e8a <lfs_file_flush+0x5e>
    2ec0:	0026      	movs	r6, r4
    2ec2:	4b1e      	ldr	r3, [pc, #120]	; (2f3c <lfs_file_flush+0x110>)
    2ec4:	3640      	adds	r6, #64	; 0x40
    2ec6:	4699      	mov	r9, r3
    2ec8:	4b1d      	ldr	r3, [pc, #116]	; (2f40 <lfs_file_flush+0x114>)
    2eca:	4698      	mov	r8, r3
    2ecc:	e010      	b.n	2ef0 <lfs_file_flush+0xc4>
    2ece:	0003      	movs	r3, r0
    2ed0:	3354      	adds	r3, #84	; 0x54
    2ed2:	d122      	bne.n	2f1a <lfs_file_flush+0xee>
    2ed4:	4b1b      	ldr	r3, [pc, #108]	; (2f44 <lfs_file_flush+0x118>)
    2ed6:	4649      	mov	r1, r9
    2ed8:	9300      	str	r3, [sp, #0]
    2eda:	4a1b      	ldr	r2, [pc, #108]	; (2f48 <lfs_file_flush+0x11c>)
    2edc:	6ba3      	ldr	r3, [r4, #56]	; 0x38
    2ede:	4640      	mov	r0, r8
    2ee0:	f7ff fffe 	bl	0 <printf>
    2ee4:	0021      	movs	r1, r4
    2ee6:	0028      	movs	r0, r5
    2ee8:	f7ff fc46 	bl	2778 <lfs_file_relocate>
    2eec:	2800      	cmp	r0, #0
    2eee:	d114      	bne.n	2f1a <lfs_file_flush+0xee>
    2ef0:	2301      	movs	r3, #1
    2ef2:	002a      	movs	r2, r5
    2ef4:	0031      	movs	r1, r6
    2ef6:	0028      	movs	r0, r5
    2ef8:	f7fd fd3e 	bl	978 <lfs_bd_flush>
    2efc:	2800      	cmp	r0, #0
    2efe:	d1e6      	bne.n	2ece <lfs_file_flush+0xa2>
    2f00:	6b62      	ldr	r2, [r4, #52]	; 0x34
    2f02:	6b23      	ldr	r3, [r4, #48]	; 0x30
    2f04:	62e2      	str	r2, [r4, #44]	; 0x2c
    2f06:	4a11      	ldr	r2, [pc, #68]	; (2f4c <lfs_file_flush+0x120>)
    2f08:	2000      	movs	r0, #0
    2f0a:	4013      	ands	r3, r2
    2f0c:	2280      	movs	r2, #128	; 0x80
    2f0e:	6ba1      	ldr	r1, [r4, #56]	; 0x38
    2f10:	0252      	lsls	r2, r2, #9
    2f12:	4313      	orrs	r3, r2
    2f14:	62a1      	str	r1, [r4, #40]	; 0x28
    2f16:	6323      	str	r3, [r4, #48]	; 0x30
    2f18:	6367      	str	r7, [r4, #52]	; 0x34
    2f1a:	b019      	add	sp, #100	; 0x64
    2f1c:	bc0c      	pop	{r2, r3}
    2f1e:	4690      	mov	r8, r2
    2f20:	4699      	mov	r9, r3
    2f22:	bdf0      	pop	{r4, r5, r6, r7, pc}
    2f24:	003a      	movs	r2, r7
    2f26:	42b7      	cmp	r7, r6
    2f28:	d2ec      	bcs.n	2f04 <lfs_file_flush+0xd8>
    2f2a:	0032      	movs	r2, r6
    2f2c:	e7ea      	b.n	2f04 <lfs_file_flush+0xd8>
    2f2e:	2201      	movs	r2, #1
    2f30:	4252      	negs	r2, r2
    2f32:	640a      	str	r2, [r1, #64]	; 0x40
    2f34:	e787      	b.n	2e46 <lfs_file_flush+0x1a>
    2f36:	46c0      	nop			; (mov r8, r8)
    2f38:	fffbffff 	.word	0xfffbffff
    2f3c:	00000000 	.word	0x00000000
    2f40:	000000a8 	.word	0x000000a8
    2f44:	00000074 	.word	0x00000074
    2f48:	00000ae6 	.word	0x00000ae6
    2f4c:	fffdffff 	.word	0xfffdffff

00002f50 <lfs_file_rawread>:
    2f50:	b5f0      	push	{r4, r5, r6, r7, lr}
    2f52:	46de      	mov	lr, fp
    2f54:	4657      	mov	r7, sl
    2f56:	464e      	mov	r6, r9
    2f58:	4645      	mov	r5, r8
    2f5a:	b5e0      	push	{r5, r6, r7, lr}
    2f5c:	001c      	movs	r4, r3
    2f5e:	6b0b      	ldr	r3, [r1, #48]	; 0x30
    2f60:	b08d      	sub	sp, #52	; 0x34
    2f62:	4683      	mov	fp, r0
    2f64:	000f      	movs	r7, r1
    2f66:	9204      	str	r2, [sp, #16]
    2f68:	039b      	lsls	r3, r3, #14
    2f6a:	d500      	bpl.n	2f6e <lfs_file_rawread+0x1e>
    2f6c:	e0dd      	b.n	312a <lfs_file_rawread+0x1da>
    2f6e:	6b7a      	ldr	r2, [r7, #52]	; 0x34
    2f70:	6afb      	ldr	r3, [r7, #44]	; 0x2c
    2f72:	429a      	cmp	r2, r3
    2f74:	d300      	bcc.n	2f78 <lfs_file_rawread+0x28>
    2f76:	e0e2      	b.n	313e <lfs_file_rawread+0x1ee>
    2f78:	1a9b      	subs	r3, r3, r2
    2f7a:	930b      	str	r3, [sp, #44]	; 0x2c
    2f7c:	42a3      	cmp	r3, r4
    2f7e:	d900      	bls.n	2f82 <lfs_file_rawread+0x32>
    2f80:	e0d1      	b.n	3126 <lfs_file_rawread+0x1d6>
    2f82:	990b      	ldr	r1, [sp, #44]	; 0x2c
    2f84:	2900      	cmp	r1, #0
    2f86:	d100      	bne.n	2f8a <lfs_file_rawread+0x3a>
    2f88:	e08c      	b.n	30a4 <lfs_file_rawread+0x154>
    2f8a:	46d8      	mov	r8, fp
    2f8c:	468b      	mov	fp, r1
    2f8e:	2180      	movs	r1, #128	; 0x80
    2f90:	6b3b      	ldr	r3, [r7, #48]	; 0x30
    2f92:	02c9      	lsls	r1, r1, #11
    2f94:	420b      	tst	r3, r1
    2f96:	d100      	bne.n	2f9a <lfs_file_rawread+0x4a>
    2f98:	e086      	b.n	30a8 <lfs_file_rawread+0x158>
    2f9a:	4641      	mov	r1, r8
    2f9c:	6e89      	ldr	r1, [r1, #104]	; 0x68
    2f9e:	6bfd      	ldr	r5, [r7, #60]	; 0x3c
    2fa0:	69c8      	ldr	r0, [r1, #28]
    2fa2:	4681      	mov	r9, r0
    2fa4:	4285      	cmp	r5, r0
    2fa6:	d100      	bne.n	2faa <lfs_file_rawread+0x5a>
    2fa8:	e07e      	b.n	30a8 <lfs_file_rawread+0x158>
    2faa:	464a      	mov	r2, r9
    2fac:	1b56      	subs	r6, r2, r5
    2fae:	455e      	cmp	r6, fp
    2fb0:	d900      	bls.n	2fb4 <lfs_file_rawread+0x64>
    2fb2:	465e      	mov	r6, fp
    2fb4:	02db      	lsls	r3, r3, #11
    2fb6:	d54f      	bpl.n	3058 <lfs_file_rawread+0x108>
    2fb8:	2308      	movs	r3, #8
    2fba:	469c      	mov	ip, r3
    2fbc:	44bc      	add	ip, r7
    2fbe:	4663      	mov	r3, ip
    2fc0:	9307      	str	r3, [sp, #28]
    2fc2:	88bb      	ldrh	r3, [r7, #4]
    2fc4:	4a60      	ldr	r2, [pc, #384]	; (3148 <lfs_file_rawread+0x1f8>)
    2fc6:	029b      	lsls	r3, r3, #10
    2fc8:	431a      	orrs	r2, r3
    2fca:	1973      	adds	r3, r6, r5
    2fcc:	9208      	str	r2, [sp, #32]
    2fce:	454b      	cmp	r3, r9
    2fd0:	d900      	bls.n	2fd4 <lfs_file_rawread+0x84>
    2fd2:	e0b6      	b.n	3142 <lfs_file_rawread+0x1f2>
    2fd4:	2e00      	cmp	r6, #0
    2fd6:	d057      	beq.n	3088 <lfs_file_rawread+0x138>
    2fd8:	9b04      	ldr	r3, [sp, #16]
    2fda:	9609      	str	r6, [sp, #36]	; 0x24
    2fdc:	930a      	str	r3, [sp, #40]	; 0x28
    2fde:	464b      	mov	r3, r9
    2fe0:	46b1      	mov	r9, r6
    2fe2:	001e      	movs	r6, r3
    2fe4:	6cfb      	ldr	r3, [r7, #76]	; 0x4c
    2fe6:	9305      	str	r3, [sp, #20]
    2fe8:	6c3b      	ldr	r3, [r7, #64]	; 0x40
    2fea:	3302      	adds	r3, #2
    2fec:	d106      	bne.n	2ffc <lfs_file_rawread+0xac>
    2fee:	6c79      	ldr	r1, [r7, #68]	; 0x44
    2ff0:	6cbb      	ldr	r3, [r7, #72]	; 0x48
    2ff2:	18cc      	adds	r4, r1, r3
    2ff4:	42a5      	cmp	r5, r4
    2ff6:	d201      	bcs.n	2ffc <lfs_file_rawread+0xac>
    2ff8:	428d      	cmp	r5, r1
    2ffa:	d265      	bcs.n	30c8 <lfs_file_rawread+0x178>
    2ffc:	2302      	movs	r3, #2
    2ffe:	425b      	negs	r3, r3
    3000:	643b      	str	r3, [r7, #64]	; 0x40
    3002:	4643      	mov	r3, r8
    3004:	6e9b      	ldr	r3, [r3, #104]	; 0x68
    3006:	0028      	movs	r0, r5
    3008:	6959      	ldr	r1, [r3, #20]
    300a:	469a      	mov	sl, r3
    300c:	000c      	movs	r4, r1
    300e:	f7ff fffe 	bl	0 <__aeabi_uidivmod>
    3012:	1a6b      	subs	r3, r5, r1
    3014:	0021      	movs	r1, r4
    3016:	3c01      	subs	r4, #1
    3018:	19a4      	adds	r4, r4, r6
    301a:	1964      	adds	r4, r4, r5
    301c:	647b      	str	r3, [r7, #68]	; 0x44
    301e:	0020      	movs	r0, r4
    3020:	9306      	str	r3, [sp, #24]
    3022:	f7ff fffe 	bl	0 <__aeabi_uidivmod>
    3026:	4653      	mov	r3, sl
    3028:	6a9b      	ldr	r3, [r3, #40]	; 0x28
    302a:	1a64      	subs	r4, r4, r1
    302c:	429c      	cmp	r4, r3
    302e:	d900      	bls.n	3032 <lfs_file_rawread+0xe2>
    3030:	001c      	movs	r4, r3
    3032:	9b05      	ldr	r3, [sp, #20]
    3034:	64bc      	str	r4, [r7, #72]	; 0x48
    3036:	9300      	str	r3, [sp, #0]
    3038:	9401      	str	r4, [sp, #4]
    303a:	9b06      	ldr	r3, [sp, #24]
    303c:	9a08      	ldr	r2, [sp, #32]
    303e:	9907      	ldr	r1, [sp, #28]
    3040:	4640      	mov	r0, r8
    3042:	f7fe fb2d 	bl	16a0 <lfs_dir_getslice.constprop.38>
    3046:	2800      	cmp	r0, #0
    3048:	dacc      	bge.n	2fe4 <lfs_file_rawread+0x94>
    304a:	b00d      	add	sp, #52	; 0x34
    304c:	bc3c      	pop	{r2, r3, r4, r5}
    304e:	4690      	mov	r8, r2
    3050:	4699      	mov	r9, r3
    3052:	46a2      	mov	sl, r4
    3054:	46ab      	mov	fp, r5
    3056:	bdf0      	pop	{r4, r5, r6, r7, pc}
    3058:	003a      	movs	r2, r7
    305a:	4640      	mov	r0, r8
    305c:	6bbb      	ldr	r3, [r7, #56]	; 0x38
    305e:	6a09      	ldr	r1, [r1, #32]
    3060:	3240      	adds	r2, #64	; 0x40
    3062:	3068      	adds	r0, #104	; 0x68
    3064:	428b      	cmp	r3, r1
    3066:	d26c      	bcs.n	3142 <lfs_file_rawread+0x1f2>
    3068:	1971      	adds	r1, r6, r5
    306a:	4589      	cmp	r9, r1
    306c:	d369      	bcc.n	3142 <lfs_file_rawread+0x1f2>
    306e:	9904      	ldr	r1, [sp, #16]
    3070:	9300      	str	r3, [sp, #0]
    3072:	9102      	str	r1, [sp, #8]
    3074:	9603      	str	r6, [sp, #12]
    3076:	9501      	str	r5, [sp, #4]
    3078:	464b      	mov	r3, r9
    307a:	2100      	movs	r1, #0
    307c:	f7fd f890 	bl	1a0 <lfs_bd_read.isra.21.part.22>
    3080:	2800      	cmp	r0, #0
    3082:	d1e2      	bne.n	304a <lfs_file_rawread+0xfa>
    3084:	6bfb      	ldr	r3, [r7, #60]	; 0x3c
    3086:	18f3      	adds	r3, r6, r3
    3088:	63fb      	str	r3, [r7, #60]	; 0x3c
    308a:	9b04      	ldr	r3, [sp, #16]
    308c:	6b7a      	ldr	r2, [r7, #52]	; 0x34
    308e:	469c      	mov	ip, r3
    3090:	44b4      	add	ip, r6
    3092:	4663      	mov	r3, ip
    3094:	9304      	str	r3, [sp, #16]
    3096:	465b      	mov	r3, fp
    3098:	18b2      	adds	r2, r6, r2
    309a:	1b9b      	subs	r3, r3, r6
    309c:	637a      	str	r2, [r7, #52]	; 0x34
    309e:	469b      	mov	fp, r3
    30a0:	d000      	beq.n	30a4 <lfs_file_rawread+0x154>
    30a2:	e774      	b.n	2f8e <lfs_file_rawread+0x3e>
    30a4:	980b      	ldr	r0, [sp, #44]	; 0x2c
    30a6:	e7d0      	b.n	304a <lfs_file_rawread+0xfa>
    30a8:	02d9      	lsls	r1, r3, #11
    30aa:	d52a      	bpl.n	3102 <lfs_file_rawread+0x1b2>
    30ac:	2102      	movs	r1, #2
    30ae:	0015      	movs	r5, r2
    30b0:	4249      	negs	r1, r1
    30b2:	63b9      	str	r1, [r7, #56]	; 0x38
    30b4:	63fa      	str	r2, [r7, #60]	; 0x3c
    30b6:	2280      	movs	r2, #128	; 0x80
    30b8:	02d2      	lsls	r2, r2, #11
    30ba:	4313      	orrs	r3, r2
    30bc:	4642      	mov	r2, r8
    30be:	6e91      	ldr	r1, [r2, #104]	; 0x68
    30c0:	633b      	str	r3, [r7, #48]	; 0x30
    30c2:	69ca      	ldr	r2, [r1, #28]
    30c4:	4691      	mov	r9, r2
    30c6:	e770      	b.n	2faa <lfs_file_rawread+0x5a>
    30c8:	9b09      	ldr	r3, [sp, #36]	; 0x24
    30ca:	1b64      	subs	r4, r4, r5
    30cc:	429c      	cmp	r4, r3
    30ce:	d900      	bls.n	30d2 <lfs_file_rawread+0x182>
    30d0:	001c      	movs	r4, r3
    30d2:	9b05      	ldr	r3, [sp, #20]
    30d4:	1a69      	subs	r1, r5, r1
    30d6:	469c      	mov	ip, r3
    30d8:	9b0a      	ldr	r3, [sp, #40]	; 0x28
    30da:	4461      	add	r1, ip
    30dc:	469a      	mov	sl, r3
    30de:	0018      	movs	r0, r3
    30e0:	0022      	movs	r2, r4
    30e2:	f7ff fffe 	bl	0 <memcpy>
    30e6:	46d4      	mov	ip, sl
    30e8:	44a4      	add	ip, r4
    30ea:	4663      	mov	r3, ip
    30ec:	930a      	str	r3, [sp, #40]	; 0x28
    30ee:	9b09      	ldr	r3, [sp, #36]	; 0x24
    30f0:	192d      	adds	r5, r5, r4
    30f2:	1b1b      	subs	r3, r3, r4
    30f4:	9309      	str	r3, [sp, #36]	; 0x24
    30f6:	d000      	beq.n	30fa <lfs_file_rawread+0x1aa>
    30f8:	e774      	b.n	2fe4 <lfs_file_rawread+0x94>
    30fa:	464e      	mov	r6, r9
    30fc:	6bfb      	ldr	r3, [r7, #60]	; 0x3c
    30fe:	18f3      	adds	r3, r6, r3
    3100:	e7c2      	b.n	3088 <lfs_file_rawread+0x138>
    3102:	003b      	movs	r3, r7
    3104:	0039      	movs	r1, r7
    3106:	333c      	adds	r3, #60	; 0x3c
    3108:	9302      	str	r3, [sp, #8]
    310a:	3b04      	subs	r3, #4
    310c:	9301      	str	r3, [sp, #4]
    310e:	9200      	str	r2, [sp, #0]
    3110:	6afb      	ldr	r3, [r7, #44]	; 0x2c
    3112:	6aba      	ldr	r2, [r7, #40]	; 0x28
    3114:	3140      	adds	r1, #64	; 0x40
    3116:	4640      	mov	r0, r8
    3118:	f7fd fa82 	bl	620 <lfs_ctz_find.constprop.30>
    311c:	2800      	cmp	r0, #0
    311e:	d194      	bne.n	304a <lfs_file_rawread+0xfa>
    3120:	6b3b      	ldr	r3, [r7, #48]	; 0x30
    3122:	6bfd      	ldr	r5, [r7, #60]	; 0x3c
    3124:	e7c7      	b.n	30b6 <lfs_file_rawread+0x166>
    3126:	940b      	str	r4, [sp, #44]	; 0x2c
    3128:	e72b      	b.n	2f82 <lfs_file_rawread+0x32>
    312a:	f7ff fe7f 	bl	2e2c <lfs_file_flush>
    312e:	2800      	cmp	r0, #0
    3130:	d000      	beq.n	3134 <lfs_file_rawread+0x1e4>
    3132:	e78a      	b.n	304a <lfs_file_rawread+0xfa>
    3134:	6b7a      	ldr	r2, [r7, #52]	; 0x34
    3136:	6afb      	ldr	r3, [r7, #44]	; 0x2c
    3138:	429a      	cmp	r2, r3
    313a:	d200      	bcs.n	313e <lfs_file_rawread+0x1ee>
    313c:	e71c      	b.n	2f78 <lfs_file_rawread+0x28>
    313e:	2000      	movs	r0, #0
    3140:	e783      	b.n	304a <lfs_file_rawread+0xfa>
    3142:	2054      	movs	r0, #84	; 0x54
    3144:	4240      	negs	r0, r0
    3146:	e780      	b.n	304a <lfs_file_rawread+0xfa>
    3148:	20100000 	.word	0x20100000

0000314c <lfs_dir_traverse.constprop.33>:
    314c:	b5f0      	push	{r4, r5, r6, r7, lr}
    314e:	46de      	mov	lr, fp
    3150:	4657      	mov	r7, sl
    3152:	464e      	mov	r6, r9
    3154:	4645      	mov	r5, r8
    3156:	b5e0      	push	{r5, r6, r7, lr}
    3158:	b0c7      	sub	sp, #284	; 0x11c
    315a:	9311      	str	r3, [sp, #68]	; 0x44
    315c:	ab52      	add	r3, sp, #328	; 0x148
    315e:	881b      	ldrh	r3, [r3, #0]
    3160:	9212      	str	r2, [sp, #72]	; 0x48
    3162:	9326      	str	r3, [sp, #152]	; 0x98
    3164:	ab53      	add	r3, sp, #332	; 0x14c
    3166:	881b      	ldrh	r3, [r3, #0]
    3168:	4683      	mov	fp, r0
    316a:	932b      	str	r3, [sp, #172]	; 0xac
    316c:	ab54      	add	r3, sp, #336	; 0x150
    316e:	2200      	movs	r2, #0
    3170:	5e9a      	ldrsh	r2, [r3, r2]
    3172:	9b50      	ldr	r3, [sp, #320]	; 0x140
    3174:	922d      	str	r2, [sp, #180]	; 0xb4
    3176:	0a9b      	lsrs	r3, r3, #10
    3178:	b29b      	uxth	r3, r3
    317a:	9319      	str	r3, [sp, #100]	; 0x64
    317c:	0293      	lsls	r3, r2, #10
    317e:	9324      	str	r3, [sp, #144]	; 0x90
    3180:	2301      	movs	r3, #1
    3182:	425b      	negs	r3, r3
    3184:	930e      	str	r3, [sp, #56]	; 0x38
    3186:	2300      	movs	r3, #0
    3188:	468a      	mov	sl, r1
    318a:	68ca      	ldr	r2, [r1, #12]
    318c:	9310      	str	r3, [sp, #64]	; 0x40
    318e:	e039      	b.n	3204 <lfs_dir_traverse.constprop.33+0xb8>
    3190:	9911      	ldr	r1, [sp, #68]	; 0x44
    3192:	2900      	cmp	r1, #0
    3194:	dc01      	bgt.n	319a <lfs_dir_traverse.constprop.33+0x4e>
    3196:	f000 fde8 	bl	3d6a <lfs_dir_traverse.constprop.33+0xc1e>
    319a:	9a12      	ldr	r2, [sp, #72]	; 0x48
    319c:	3901      	subs	r1, #1
    319e:	6813      	ldr	r3, [r2, #0]
    31a0:	6850      	ldr	r0, [r2, #4]
    31a2:	3208      	adds	r2, #8
    31a4:	9334      	str	r3, [sp, #208]	; 0xd0
    31a6:	9014      	str	r0, [sp, #80]	; 0x50
    31a8:	9212      	str	r2, [sp, #72]	; 0x48
    31aa:	9111      	str	r1, [sp, #68]	; 0x44
    31ac:	9a51      	ldr	r2, [sp, #324]	; 0x144
    31ae:	9950      	ldr	r1, [sp, #320]	; 0x140
    31b0:	405a      	eors	r2, r3
    31b2:	400a      	ands	r2, r1
    31b4:	4998      	ldr	r1, [pc, #608]	; (3418 <lfs_dir_traverse.constprop.33+0x2cc>)
    31b6:	420a      	tst	r2, r1
    31b8:	d122      	bne.n	3200 <lfs_dir_traverse.constprop.33+0xb4>
    31ba:	9a19      	ldr	r2, [sp, #100]	; 0x64
    31bc:	2a00      	cmp	r2, #0
    31be:	d15f      	bne.n	3280 <lfs_dir_traverse.constprop.33+0x134>
    31c0:	005a      	lsls	r2, r3, #1
    31c2:	0d52      	lsrs	r2, r2, #21
    31c4:	d01c      	beq.n	3200 <lfs_dir_traverse.constprop.33+0xb4>
    31c6:	2102      	movs	r1, #2
    31c8:	31ff      	adds	r1, #255	; 0xff
    31ca:	428a      	cmp	r2, r1
    31cc:	d101      	bne.n	31d2 <lfs_dir_traverse.constprop.33+0x86>
    31ce:	f000 fbe1 	bl	3994 <lfs_dir_traverse.constprop.33+0x848>
    31d2:	2181      	movs	r1, #129	; 0x81
    31d4:	0049      	lsls	r1, r1, #1
    31d6:	428a      	cmp	r2, r1
    31d8:	d101      	bne.n	31de <lfs_dir_traverse.constprop.33+0x92>
    31da:	f000 fd44 	bl	3c66 <lfs_dir_traverse.constprop.33+0xb1a>
    31de:	9a24      	ldr	r2, [sp, #144]	; 0x90
    31e0:	18d1      	adds	r1, r2, r3
    31e2:	058a      	lsls	r2, r1, #22
    31e4:	1592      	asrs	r2, r2, #22
    31e6:	3201      	adds	r2, #1
    31e8:	4253      	negs	r3, r2
    31ea:	4153      	adcs	r3, r2
    31ec:	9a55      	ldr	r2, [sp, #340]	; 0x154
    31ee:	185b      	adds	r3, r3, r1
    31f0:	6812      	ldr	r2, [r2, #0]
    31f2:	059b      	lsls	r3, r3, #22
    31f4:	0d9b      	lsrs	r3, r3, #22
    31f6:	920a      	str	r2, [sp, #40]	; 0x28
    31f8:	3204      	adds	r2, #4
    31fa:	189b      	adds	r3, r3, r2
    31fc:	9a55      	ldr	r2, [sp, #340]	; 0x154
    31fe:	6013      	str	r3, [r2, #0]
    3200:	4653      	mov	r3, sl
    3202:	68da      	ldr	r2, [r3, #12]
    3204:	990e      	ldr	r1, [sp, #56]	; 0x38
    3206:	058c      	lsls	r4, r1, #22
    3208:	15a4      	asrs	r4, r4, #22
    320a:	3401      	adds	r4, #1
    320c:	4263      	negs	r3, r4
    320e:	415c      	adcs	r4, r3
    3210:	468c      	mov	ip, r1
    3212:	9b10      	ldr	r3, [sp, #64]	; 0x40
    3214:	4464      	add	r4, ip
    3216:	05a4      	lsls	r4, r4, #22
    3218:	0da4      	lsrs	r4, r4, #22
    321a:	3304      	adds	r3, #4
    321c:	18e4      	adds	r4, r4, r3
    321e:	4294      	cmp	r4, r2
    3220:	d2b6      	bcs.n	3190 <lfs_dir_traverse.constprop.33+0x44>
    3222:	4653      	mov	r3, sl
    3224:	681a      	ldr	r2, [r3, #0]
    3226:	465b      	mov	r3, fp
    3228:	4658      	mov	r0, fp
    322a:	6e9b      	ldr	r3, [r3, #104]	; 0x68
    322c:	3068      	adds	r0, #104	; 0x68
    322e:	6a19      	ldr	r1, [r3, #32]
    3230:	428a      	cmp	r2, r1
    3232:	d300      	bcc.n	3236 <lfs_dir_traverse.constprop.33+0xea>
    3234:	e1b6      	b.n	35a4 <lfs_dir_traverse.constprop.33+0x458>
    3236:	69db      	ldr	r3, [r3, #28]
    3238:	1d25      	adds	r5, r4, #4
    323a:	429d      	cmp	r5, r3
    323c:	d900      	bls.n	3240 <lfs_dir_traverse.constprop.33+0xf4>
    323e:	e1b1      	b.n	35a4 <lfs_dir_traverse.constprop.33+0x458>
    3240:	2304      	movs	r3, #4
    3242:	9303      	str	r3, [sp, #12]
    3244:	ab34      	add	r3, sp, #208	; 0xd0
    3246:	9302      	str	r3, [sp, #8]
    3248:	9200      	str	r2, [sp, #0]
    324a:	9401      	str	r4, [sp, #4]
    324c:	2304      	movs	r3, #4
    324e:	465a      	mov	r2, fp
    3250:	2100      	movs	r1, #0
    3252:	f7fc ffa5 	bl	1a0 <lfs_bd_read.isra.21.part.22>
    3256:	2800      	cmp	r0, #0
    3258:	d000      	beq.n	325c <lfs_dir_traverse.constprop.33+0x110>
    325a:	e1a5      	b.n	35a8 <lfs_dir_traverse.constprop.33+0x45c>
    325c:	9b34      	ldr	r3, [sp, #208]	; 0xd0
    325e:	9a0e      	ldr	r2, [sp, #56]	; 0x38
    3260:	ba1b      	rev	r3, r3
    3262:	405a      	eors	r2, r3
    3264:	0013      	movs	r3, r2
    3266:	2280      	movs	r2, #128	; 0x80
    3268:	0612      	lsls	r2, r2, #24
    326a:	4313      	orrs	r3, r2
    326c:	4652      	mov	r2, sl
    326e:	6812      	ldr	r2, [r2, #0]
    3270:	9334      	str	r3, [sp, #208]	; 0xd0
    3272:	923a      	str	r2, [sp, #232]	; 0xe8
    3274:	aa3a      	add	r2, sp, #232	; 0xe8
    3276:	953b      	str	r5, [sp, #236]	; 0xec
    3278:	930e      	str	r3, [sp, #56]	; 0x38
    327a:	9410      	str	r4, [sp, #64]	; 0x40
    327c:	9214      	str	r2, [sp, #80]	; 0x50
    327e:	e795      	b.n	31ac <lfs_dir_traverse.constprop.33+0x60>
    3280:	9b11      	ldr	r3, [sp, #68]	; 0x44
    3282:	465f      	mov	r7, fp
    3284:	930c      	str	r3, [sp, #48]	; 0x30
    3286:	9b12      	ldr	r3, [sp, #72]	; 0x48
    3288:	4699      	mov	r9, r3
    328a:	9b0e      	ldr	r3, [sp, #56]	; 0x38
    328c:	930a      	str	r3, [sp, #40]	; 0x28
    328e:	9b10      	ldr	r3, [sp, #64]	; 0x40
    3290:	930b      	str	r3, [sp, #44]	; 0x2c
    3292:	4653      	mov	r3, sl
    3294:	46ca      	mov	sl, r9
    3296:	4699      	mov	r9, r3
    3298:	9a0a      	ldr	r2, [sp, #40]	; 0x28
    329a:	0594      	lsls	r4, r2, #22
    329c:	15a4      	asrs	r4, r4, #22
    329e:	3401      	adds	r4, #1
    32a0:	4263      	negs	r3, r4
    32a2:	415c      	adcs	r4, r3
    32a4:	4694      	mov	ip, r2
    32a6:	9b0b      	ldr	r3, [sp, #44]	; 0x2c
    32a8:	4464      	add	r4, ip
    32aa:	05a4      	lsls	r4, r4, #22
    32ac:	3304      	adds	r3, #4
    32ae:	0da4      	lsrs	r4, r4, #22
    32b0:	18e4      	adds	r4, r4, r3
    32b2:	464b      	mov	r3, r9
    32b4:	68da      	ldr	r2, [r3, #12]
    32b6:	4294      	cmp	r4, r2
    32b8:	d348      	bcc.n	334c <lfs_dir_traverse.constprop.33+0x200>
    32ba:	990c      	ldr	r1, [sp, #48]	; 0x30
    32bc:	2900      	cmp	r1, #0
    32be:	dc00      	bgt.n	32c2 <lfs_dir_traverse.constprop.33+0x176>
    32c0:	e1b3      	b.n	362a <lfs_dir_traverse.constprop.33+0x4de>
    32c2:	4652      	mov	r2, sl
    32c4:	6852      	ldr	r2, [r2, #4]
    32c6:	4653      	mov	r3, sl
    32c8:	4693      	mov	fp, r2
    32ca:	2208      	movs	r2, #8
    32cc:	4694      	mov	ip, r2
    32ce:	681b      	ldr	r3, [r3, #0]
    32d0:	3901      	subs	r1, #1
    32d2:	9335      	str	r3, [sp, #212]	; 0xd4
    32d4:	44e2      	add	sl, ip
    32d6:	910c      	str	r1, [sp, #48]	; 0x30
    32d8:	0d19      	lsrs	r1, r3, #20
    32da:	b288      	uxth	r0, r1
    32dc:	0542      	lsls	r2, r0, #21
    32de:	0d52      	lsrs	r2, r2, #21
    32e0:	d0da      	beq.n	3298 <lfs_dir_traverse.constprop.33+0x14c>
    32e2:	2402      	movs	r4, #2
    32e4:	34ff      	adds	r4, #255	; 0xff
    32e6:	42a2      	cmp	r2, r4
    32e8:	d100      	bne.n	32ec <lfs_dir_traverse.constprop.33+0x1a0>
    32ea:	e09f      	b.n	342c <lfs_dir_traverse.constprop.33+0x2e0>
    32ec:	2481      	movs	r4, #129	; 0x81
    32ee:	0064      	lsls	r4, r4, #1
    32f0:	42a2      	cmp	r2, r4
    32f2:	d05a      	beq.n	33aa <lfs_dir_traverse.constprop.33+0x25e>
    32f4:	24ff      	movs	r4, #255	; 0xff
    32f6:	00da      	lsls	r2, r3, #3
    32f8:	0524      	lsls	r4, r4, #20
    32fa:	17d2      	asrs	r2, r2, #31
    32fc:	4022      	ands	r2, r4
    32fe:	4c47      	ldr	r4, [pc, #284]	; (341c <lfs_dir_traverse.constprop.33+0x2d0>)
    3300:	001d      	movs	r5, r3
    3302:	46a4      	mov	ip, r4
    3304:	9c34      	ldr	r4, [sp, #208]	; 0xd0
    3306:	4462      	add	r2, ip
    3308:	4065      	eors	r5, r4
    330a:	422a      	tst	r2, r5
    330c:	d100      	bne.n	3310 <lfs_dir_traverse.constprop.33+0x1c4>
    330e:	e07f      	b.n	3410 <lfs_dir_traverse.constprop.33+0x2c4>
    3310:	05a2      	lsls	r2, r4, #22
    3312:	1592      	asrs	r2, r2, #22
    3314:	3201      	adds	r2, #1
    3316:	d07b      	beq.n	3410 <lfs_dir_traverse.constprop.33+0x2c4>
    3318:	4d41      	ldr	r5, [pc, #260]	; (3420 <lfs_dir_traverse.constprop.33+0x2d4>)
    331a:	4a42      	ldr	r2, [pc, #264]	; (3424 <lfs_dir_traverse.constprop.33+0x2d8>)
    331c:	4025      	ands	r5, r4
    331e:	432a      	orrs	r2, r5
    3320:	4d41      	ldr	r5, [pc, #260]	; (3428 <lfs_dir_traverse.constprop.33+0x2dc>)
    3322:	401d      	ands	r5, r3
    3324:	4295      	cmp	r5, r2
    3326:	d073      	beq.n	3410 <lfs_dir_traverse.constprop.33+0x2c4>
    3328:	22e0      	movs	r2, #224	; 0xe0
    332a:	2580      	movs	r5, #128	; 0x80
    332c:	00d2      	lsls	r2, r2, #3
    332e:	00ed      	lsls	r5, r5, #3
    3330:	4002      	ands	r2, r0
    3332:	42aa      	cmp	r2, r5
    3334:	d1b0      	bne.n	3298 <lfs_dir_traverse.constprop.33+0x14c>
    3336:	031b      	lsls	r3, r3, #12
    3338:	0322      	lsls	r2, r4, #12
    333a:	0d9b      	lsrs	r3, r3, #22
    333c:	0d92      	lsrs	r2, r2, #22
    333e:	4293      	cmp	r3, r2
    3340:	d8aa      	bhi.n	3298 <lfs_dir_traverse.constprop.33+0x14c>
    3342:	b249      	sxtb	r1, r1
    3344:	0289      	lsls	r1, r1, #10
    3346:	1909      	adds	r1, r1, r4
    3348:	9134      	str	r1, [sp, #208]	; 0xd0
    334a:	e7a5      	b.n	3298 <lfs_dir_traverse.constprop.33+0x14c>
    334c:	0038      	movs	r0, r7
    334e:	6eba      	ldr	r2, [r7, #104]	; 0x68
    3350:	681b      	ldr	r3, [r3, #0]
    3352:	6a11      	ldr	r1, [r2, #32]
    3354:	3068      	adds	r0, #104	; 0x68
    3356:	428b      	cmp	r3, r1
    3358:	d300      	bcc.n	335c <lfs_dir_traverse.constprop.33+0x210>
    335a:	e123      	b.n	35a4 <lfs_dir_traverse.constprop.33+0x458>
    335c:	69d2      	ldr	r2, [r2, #28]
    335e:	1d25      	adds	r5, r4, #4
    3360:	4295      	cmp	r5, r2
    3362:	d900      	bls.n	3366 <lfs_dir_traverse.constprop.33+0x21a>
    3364:	e11e      	b.n	35a4 <lfs_dir_traverse.constprop.33+0x458>
    3366:	2204      	movs	r2, #4
    3368:	9203      	str	r2, [sp, #12]
    336a:	aa35      	add	r2, sp, #212	; 0xd4
    336c:	9202      	str	r2, [sp, #8]
    336e:	9300      	str	r3, [sp, #0]
    3370:	9401      	str	r4, [sp, #4]
    3372:	2304      	movs	r3, #4
    3374:	003a      	movs	r2, r7
    3376:	2100      	movs	r1, #0
    3378:	f7fc ff12 	bl	1a0 <lfs_bd_read.isra.21.part.22>
    337c:	2800      	cmp	r0, #0
    337e:	d001      	beq.n	3384 <lfs_dir_traverse.constprop.33+0x238>
    3380:	f000 fd07 	bl	3d92 <lfs_dir_traverse.constprop.33+0xc46>
    3384:	9b35      	ldr	r3, [sp, #212]	; 0xd4
    3386:	9a0a      	ldr	r2, [sp, #40]	; 0x28
    3388:	ba1b      	rev	r3, r3
    338a:	405a      	eors	r2, r3
    338c:	0013      	movs	r3, r2
    338e:	2280      	movs	r2, #128	; 0x80
    3390:	0612      	lsls	r2, r2, #24
    3392:	431a      	orrs	r2, r3
    3394:	0013      	movs	r3, r2
    3396:	920a      	str	r2, [sp, #40]	; 0x28
    3398:	9235      	str	r2, [sp, #212]	; 0xd4
    339a:	464a      	mov	r2, r9
    339c:	6812      	ldr	r2, [r2, #0]
    339e:	953d      	str	r5, [sp, #244]	; 0xf4
    33a0:	923c      	str	r2, [sp, #240]	; 0xf0
    33a2:	aa3c      	add	r2, sp, #240	; 0xf0
    33a4:	940b      	str	r4, [sp, #44]	; 0x2c
    33a6:	4693      	mov	fp, r2
    33a8:	e796      	b.n	32d8 <lfs_dir_traverse.constprop.33+0x18c>
    33aa:	059c      	lsls	r4, r3, #22
    33ac:	0da4      	lsrs	r4, r4, #22
    33ae:	d100      	bne.n	33b2 <lfs_dir_traverse.constprop.33+0x266>
    33b0:	e772      	b.n	3298 <lfs_dir_traverse.constprop.33+0x14c>
    33b2:	21c0      	movs	r1, #192	; 0xc0
    33b4:	465a      	mov	r2, fp
    33b6:	0089      	lsls	r1, r1, #2
    33b8:	468c      	mov	ip, r1
    33ba:	4659      	mov	r1, fp
    33bc:	7812      	ldrb	r2, [r2, #0]
    33be:	031b      	lsls	r3, r3, #12
    33c0:	0d9b      	lsrs	r3, r3, #22
    33c2:	4462      	add	r2, ip
    33c4:	6889      	ldr	r1, [r1, #8]
    33c6:	029b      	lsls	r3, r3, #10
    33c8:	0512      	lsls	r2, r2, #20
    33ca:	9834      	ldr	r0, [sp, #208]	; 0xd0
    33cc:	431a      	orrs	r2, r3
    33ce:	430a      	orrs	r2, r1
    33d0:	4915      	ldr	r1, [pc, #84]	; (3428 <lfs_dir_traverse.constprop.33+0x2dc>)
    33d2:	4042      	eors	r2, r0
    33d4:	420a      	tst	r2, r1
    33d6:	d01b      	beq.n	3410 <lfs_dir_traverse.constprop.33+0x2c4>
    33d8:	0582      	lsls	r2, r0, #22
    33da:	1592      	asrs	r2, r2, #22
    33dc:	3201      	adds	r2, #1
    33de:	d017      	beq.n	3410 <lfs_dir_traverse.constprop.33+0x2c4>
    33e0:	4659      	mov	r1, fp
    33e2:	0062      	lsls	r2, r4, #1
    33e4:	1914      	adds	r4, r2, r4
    33e6:	00a4      	lsls	r4, r4, #2
    33e8:	310c      	adds	r1, #12
    33ea:	445c      	add	r4, fp
    33ec:	428c      	cmp	r4, r1
    33ee:	d100      	bne.n	33f2 <lfs_dir_traverse.constprop.33+0x2a6>
    33f0:	e752      	b.n	3298 <lfs_dir_traverse.constprop.33+0x14c>
    33f2:	26c0      	movs	r6, #192	; 0xc0
    33f4:	000d      	movs	r5, r1
    33f6:	00b6      	lsls	r6, r6, #2
    33f8:	46b4      	mov	ip, r6
    33fa:	780a      	ldrb	r2, [r1, #0]
    33fc:	68ad      	ldr	r5, [r5, #8]
    33fe:	4462      	add	r2, ip
    3400:	431d      	orrs	r5, r3
    3402:	0512      	lsls	r2, r2, #20
    3404:	432a      	orrs	r2, r5
    3406:	4d08      	ldr	r5, [pc, #32]	; (3428 <lfs_dir_traverse.constprop.33+0x2dc>)
    3408:	4042      	eors	r2, r0
    340a:	310c      	adds	r1, #12
    340c:	422a      	tst	r2, r5
    340e:	d1ed      	bne.n	33ec <lfs_dir_traverse.constprop.33+0x2a0>
    3410:	46bb      	mov	fp, r7
    3412:	46ca      	mov	sl, r9
    3414:	e6f4      	b.n	3200 <lfs_dir_traverse.constprop.33+0xb4>
    3416:	46c0      	nop			; (mov r8, r8)
    3418:	7ff00000 	.word	0x7ff00000
    341c:	700ffc00 	.word	0x700ffc00
    3420:	000ffc00 	.word	0x000ffc00
    3424:	4ff00000 	.word	0x4ff00000
    3428:	7ffffc00 	.word	0x7ffffc00
    342c:	059a      	lsls	r2, r3, #22
    342e:	031b      	lsls	r3, r3, #12
    3430:	0d92      	lsrs	r2, r2, #22
    3432:	0d9b      	lsrs	r3, r3, #22
    3434:	1a9b      	subs	r3, r3, r2
    3436:	b29b      	uxth	r3, r3
    3438:	9322      	str	r3, [sp, #136]	; 0x88
    343a:	b21b      	sxth	r3, r3
    343c:	9325      	str	r3, [sp, #148]	; 0x94
    343e:	029b      	lsls	r3, r3, #10
    3440:	931b      	str	r3, [sp, #108]	; 0x6c
    3442:	465b      	mov	r3, fp
    3444:	68db      	ldr	r3, [r3, #12]
    3446:	1c51      	adds	r1, r2, #1
    3448:	921c      	str	r2, [sp, #112]	; 0x70
    344a:	911e      	str	r1, [sp, #120]	; 0x78
    344c:	2b04      	cmp	r3, #4
    344e:	d800      	bhi.n	3452 <lfs_dir_traverse.constprop.33+0x306>
    3450:	e722      	b.n	3298 <lfs_dir_traverse.constprop.33+0x14c>
    3452:	2268      	movs	r2, #104	; 0x68
    3454:	4694      	mov	ip, r2
    3456:	44bc      	add	ip, r7
    3458:	4662      	mov	r2, ip
    345a:	465b      	mov	r3, fp
    345c:	920f      	str	r2, [sp, #60]	; 0x3c
    345e:	6eba      	ldr	r2, [r7, #104]	; 0x68
    3460:	681b      	ldr	r3, [r3, #0]
    3462:	6a11      	ldr	r1, [r2, #32]
    3464:	4299      	cmp	r1, r3
    3466:	d800      	bhi.n	346a <lfs_dir_traverse.constprop.33+0x31e>
    3468:	e09c      	b.n	35a4 <lfs_dir_traverse.constprop.33+0x458>
    346a:	69d2      	ldr	r2, [r2, #28]
    346c:	2a07      	cmp	r2, #7
    346e:	d800      	bhi.n	3472 <lfs_dir_traverse.constprop.33+0x326>
    3470:	e098      	b.n	35a4 <lfs_dir_traverse.constprop.33+0x458>
    3472:	2101      	movs	r1, #1
    3474:	4249      	negs	r1, r1
    3476:	4688      	mov	r8, r1
    3478:	2204      	movs	r2, #4
    347a:	4651      	mov	r1, sl
    347c:	4646      	mov	r6, r8
    347e:	4692      	mov	sl, r2
    3480:	46b8      	mov	r8, r7
    3482:	465f      	mov	r7, fp
    3484:	3cf9      	subs	r4, #249	; 0xf9
    3486:	9113      	str	r1, [sp, #76]	; 0x4c
    3488:	2204      	movs	r2, #4
    348a:	9203      	str	r2, [sp, #12]
    348c:	aa36      	add	r2, sp, #216	; 0xd8
    348e:	9202      	str	r2, [sp, #8]
    3490:	4652      	mov	r2, sl
    3492:	9300      	str	r3, [sp, #0]
    3494:	9201      	str	r2, [sp, #4]
    3496:	2304      	movs	r3, #4
    3498:	4642      	mov	r2, r8
    349a:	2100      	movs	r1, #0
    349c:	980f      	ldr	r0, [sp, #60]	; 0x3c
    349e:	f7fc fe7f 	bl	1a0 <lfs_bd_read.isra.21.part.22>
    34a2:	2800      	cmp	r0, #0
    34a4:	d001      	beq.n	34aa <lfs_dir_traverse.constprop.33+0x35e>
    34a6:	f000 fc7e 	bl	3da6 <lfs_dir_traverse.constprop.33+0xc5a>
    34aa:	2280      	movs	r2, #128	; 0x80
    34ac:	9b36      	ldr	r3, [sp, #216]	; 0xd8
    34ae:	0612      	lsls	r2, r2, #24
    34b0:	ba1b      	rev	r3, r3
    34b2:	405e      	eors	r6, r3
    34b4:	683b      	ldr	r3, [r7, #0]
    34b6:	4316      	orrs	r6, r2
    34b8:	933e      	str	r3, [sp, #248]	; 0xf8
    34ba:	2380      	movs	r3, #128	; 0x80
    34bc:	22c0      	movs	r2, #192	; 0xc0
    34be:	059b      	lsls	r3, r3, #22
    34c0:	4073      	eors	r3, r6
    34c2:	05d2      	lsls	r2, r2, #23
    34c4:	9636      	str	r6, [sp, #216]	; 0xd8
    34c6:	943f      	str	r4, [sp, #252]	; 0xfc
    34c8:	4013      	ands	r3, r2
    34ca:	d14e      	bne.n	356a <lfs_dir_traverse.constprop.33+0x41e>
    34cc:	aa36      	add	r2, sp, #216	; 0xd8
    34ce:	9208      	str	r2, [sp, #32]
    34d0:	4ab8      	ldr	r2, [pc, #736]	; (37b4 <lfs_dir_traverse.constprop.33+0x668>)
    34d2:	9306      	str	r3, [sp, #24]
    34d4:	9207      	str	r2, [sp, #28]
    34d6:	9305      	str	r3, [sp, #20]
    34d8:	9304      	str	r3, [sp, #16]
    34da:	9303      	str	r3, [sp, #12]
    34dc:	9302      	str	r3, [sp, #8]
    34de:	9301      	str	r3, [sp, #4]
    34e0:	9300      	str	r3, [sp, #0]
    34e2:	4652      	mov	r2, sl
    34e4:	0033      	movs	r3, r6
    34e6:	0039      	movs	r1, r7
    34e8:	4640      	mov	r0, r8
    34ea:	f7fd f941 	bl	770 <lfs_dir_traverse>
    34ee:	2800      	cmp	r0, #0
    34f0:	db5a      	blt.n	35a8 <lfs_dir_traverse.constprop.33+0x45c>
    34f2:	d13a      	bne.n	356a <lfs_dir_traverse.constprop.33+0x41e>
    34f4:	9b36      	ldr	r3, [sp, #216]	; 0xd8
    34f6:	9a1c      	ldr	r2, [sp, #112]	; 0x70
    34f8:	0319      	lsls	r1, r3, #12
    34fa:	0d89      	lsrs	r1, r1, #22
    34fc:	428a      	cmp	r2, r1
    34fe:	d834      	bhi.n	356a <lfs_dir_traverse.constprop.33+0x41e>
    3500:	9a1e      	ldr	r2, [sp, #120]	; 0x78
    3502:	428a      	cmp	r2, r1
    3504:	d931      	bls.n	356a <lfs_dir_traverse.constprop.33+0x41e>
    3506:	005a      	lsls	r2, r3, #1
    3508:	0d52      	lsrs	r2, r2, #21
    350a:	d02e      	beq.n	356a <lfs_dir_traverse.constprop.33+0x41e>
    350c:	2002      	movs	r0, #2
    350e:	30ff      	adds	r0, #255	; 0xff
    3510:	4282      	cmp	r2, r0
    3512:	d100      	bne.n	3516 <lfs_dir_traverse.constprop.33+0x3ca>
    3514:	e097      	b.n	3646 <lfs_dir_traverse.constprop.33+0x4fa>
    3516:	2081      	movs	r0, #129	; 0x81
    3518:	0040      	lsls	r0, r0, #1
    351a:	4282      	cmp	r2, r0
    351c:	d04b      	beq.n	35b6 <lfs_dir_traverse.constprop.33+0x46a>
    351e:	9a1b      	ldr	r2, [sp, #108]	; 0x6c
    3520:	21ff      	movs	r1, #255	; 0xff
    3522:	4694      	mov	ip, r2
    3524:	4463      	add	r3, ip
    3526:	00da      	lsls	r2, r3, #3
    3528:	0509      	lsls	r1, r1, #20
    352a:	17d2      	asrs	r2, r2, #31
    352c:	400a      	ands	r2, r1
    352e:	49a2      	ldr	r1, [pc, #648]	; (37b8 <lfs_dir_traverse.constprop.33+0x66c>)
    3530:	0018      	movs	r0, r3
    3532:	468c      	mov	ip, r1
    3534:	9934      	ldr	r1, [sp, #208]	; 0xd0
    3536:	4462      	add	r2, ip
    3538:	4048      	eors	r0, r1
    353a:	4202      	tst	r2, r0
    353c:	d100      	bne.n	3540 <lfs_dir_traverse.constprop.33+0x3f4>
    353e:	e071      	b.n	3624 <lfs_dir_traverse.constprop.33+0x4d8>
    3540:	058a      	lsls	r2, r1, #22
    3542:	1592      	asrs	r2, r2, #22
    3544:	3201      	adds	r2, #1
    3546:	d06d      	beq.n	3624 <lfs_dir_traverse.constprop.33+0x4d8>
    3548:	489c      	ldr	r0, [pc, #624]	; (37bc <lfs_dir_traverse.constprop.33+0x670>)
    354a:	4a9d      	ldr	r2, [pc, #628]	; (37c0 <lfs_dir_traverse.constprop.33+0x674>)
    354c:	4008      	ands	r0, r1
    354e:	4302      	orrs	r2, r0
    3550:	489c      	ldr	r0, [pc, #624]	; (37c4 <lfs_dir_traverse.constprop.33+0x678>)
    3552:	4018      	ands	r0, r3
    3554:	4290      	cmp	r0, r2
    3556:	d065      	beq.n	3624 <lfs_dir_traverse.constprop.33+0x4d8>
    3558:	20e0      	movs	r0, #224	; 0xe0
    355a:	2480      	movs	r4, #128	; 0x80
    355c:	0d1a      	lsrs	r2, r3, #20
    355e:	00c0      	lsls	r0, r0, #3
    3560:	00e4      	lsls	r4, r4, #3
    3562:	4010      	ands	r0, r2
    3564:	42a0      	cmp	r0, r4
    3566:	d100      	bne.n	356a <lfs_dir_traverse.constprop.33+0x41e>
    3568:	e233      	b.n	39d2 <lfs_dir_traverse.constprop.33+0x886>
    356a:	05b3      	lsls	r3, r6, #22
    356c:	159b      	asrs	r3, r3, #22
    356e:	3301      	adds	r3, #1
    3570:	425a      	negs	r2, r3
    3572:	4153      	adcs	r3, r2
    3574:	199b      	adds	r3, r3, r6
    3576:	059b      	lsls	r3, r3, #22
    3578:	0d9b      	lsrs	r3, r3, #22
    357a:	3304      	adds	r3, #4
    357c:	449a      	add	sl, r3
    357e:	68fb      	ldr	r3, [r7, #12]
    3580:	459a      	cmp	sl, r3
    3582:	d303      	bcc.n	358c <lfs_dir_traverse.constprop.33+0x440>
    3584:	9b13      	ldr	r3, [sp, #76]	; 0x4c
    3586:	4647      	mov	r7, r8
    3588:	469a      	mov	sl, r3
    358a:	e685      	b.n	3298 <lfs_dir_traverse.constprop.33+0x14c>
    358c:	4642      	mov	r2, r8
    358e:	6e92      	ldr	r2, [r2, #104]	; 0x68
    3590:	683b      	ldr	r3, [r7, #0]
    3592:	6a11      	ldr	r1, [r2, #32]
    3594:	428b      	cmp	r3, r1
    3596:	d205      	bcs.n	35a4 <lfs_dir_traverse.constprop.33+0x458>
    3598:	4651      	mov	r1, sl
    359a:	69d2      	ldr	r2, [r2, #28]
    359c:	1d0c      	adds	r4, r1, #4
    359e:	4294      	cmp	r4, r2
    35a0:	d800      	bhi.n	35a4 <lfs_dir_traverse.constprop.33+0x458>
    35a2:	e771      	b.n	3488 <lfs_dir_traverse.constprop.33+0x33c>
    35a4:	2054      	movs	r0, #84	; 0x54
    35a6:	4240      	negs	r0, r0
    35a8:	b047      	add	sp, #284	; 0x11c
    35aa:	bc3c      	pop	{r2, r3, r4, r5}
    35ac:	4690      	mov	r8, r2
    35ae:	4699      	mov	r9, r3
    35b0:	46a2      	mov	sl, r4
    35b2:	46ab      	mov	fp, r5
    35b4:	bdf0      	pop	{r4, r5, r6, r7, pc}
    35b6:	059b      	lsls	r3, r3, #22
    35b8:	0d9b      	lsrs	r3, r3, #22
    35ba:	d0d6      	beq.n	356a <lfs_dir_traverse.constprop.33+0x41e>
    35bc:	9a25      	ldr	r2, [sp, #148]	; 0x94
    35be:	38b2      	subs	r0, #178	; 0xb2
    35c0:	4694      	mov	ip, r2
    35c2:	aa2a      	add	r2, sp, #168	; 0xa8
    35c4:	1812      	adds	r2, r2, r0
    35c6:	20c0      	movs	r0, #192	; 0xc0
    35c8:	0080      	lsls	r0, r0, #2
    35ca:	4461      	add	r1, ip
    35cc:	4684      	mov	ip, r0
    35ce:	7812      	ldrb	r2, [r2, #0]
    35d0:	9840      	ldr	r0, [sp, #256]	; 0x100
    35d2:	4462      	add	r2, ip
    35d4:	0512      	lsls	r2, r2, #20
    35d6:	4302      	orrs	r2, r0
    35d8:	0289      	lsls	r1, r1, #10
    35da:	9c34      	ldr	r4, [sp, #208]	; 0xd0
    35dc:	900d      	str	r0, [sp, #52]	; 0x34
    35de:	430a      	orrs	r2, r1
    35e0:	4878      	ldr	r0, [pc, #480]	; (37c4 <lfs_dir_traverse.constprop.33+0x678>)
    35e2:	4062      	eors	r2, r4
    35e4:	4202      	tst	r2, r0
    35e6:	d01d      	beq.n	3624 <lfs_dir_traverse.constprop.33+0x4d8>
    35e8:	05a2      	lsls	r2, r4, #22
    35ea:	1592      	asrs	r2, r2, #22
    35ec:	3201      	adds	r2, #1
    35ee:	d019      	beq.n	3624 <lfs_dir_traverse.constprop.33+0x4d8>
    35f0:	005a      	lsls	r2, r3, #1
    35f2:	18d3      	adds	r3, r2, r3
    35f4:	aa3e      	add	r2, sp, #248	; 0xf8
    35f6:	4694      	mov	ip, r2
    35f8:	009b      	lsls	r3, r3, #2
    35fa:	4463      	add	r3, ip
    35fc:	46b4      	mov	ip, r6
    35fe:	a841      	add	r0, sp, #260	; 0x104
    3600:	4283      	cmp	r3, r0
    3602:	d100      	bne.n	3606 <lfs_dir_traverse.constprop.33+0x4ba>
    3604:	e3b4      	b.n	3d70 <lfs_dir_traverse.constprop.33+0xc24>
    3606:	25c0      	movs	r5, #192	; 0xc0
    3608:	0006      	movs	r6, r0
    360a:	00ad      	lsls	r5, r5, #2
    360c:	46ab      	mov	fp, r5
    360e:	7802      	ldrb	r2, [r0, #0]
    3610:	68b5      	ldr	r5, [r6, #8]
    3612:	445a      	add	r2, fp
    3614:	430d      	orrs	r5, r1
    3616:	0512      	lsls	r2, r2, #20
    3618:	432a      	orrs	r2, r5
    361a:	4d6a      	ldr	r5, [pc, #424]	; (37c4 <lfs_dir_traverse.constprop.33+0x678>)
    361c:	4062      	eors	r2, r4
    361e:	300c      	adds	r0, #12
    3620:	422a      	tst	r2, r5
    3622:	d1ed      	bne.n	3600 <lfs_dir_traverse.constprop.33+0x4b4>
    3624:	46c3      	mov	fp, r8
    3626:	46ca      	mov	sl, r9
    3628:	e5ea      	b.n	3200 <lfs_dir_traverse.constprop.33+0xb4>
    362a:	9b34      	ldr	r3, [sp, #208]	; 0xd0
    362c:	9826      	ldr	r0, [sp, #152]	; 0x98
    362e:	0319      	lsls	r1, r3, #12
    3630:	46bb      	mov	fp, r7
    3632:	46ca      	mov	sl, r9
    3634:	0d89      	lsrs	r1, r1, #22
    3636:	4281      	cmp	r1, r0
    3638:	d200      	bcs.n	363c <lfs_dir_traverse.constprop.33+0x4f0>
    363a:	e5e3      	b.n	3204 <lfs_dir_traverse.constprop.33+0xb8>
    363c:	982b      	ldr	r0, [sp, #172]	; 0xac
    363e:	4281      	cmp	r1, r0
    3640:	d200      	bcs.n	3644 <lfs_dir_traverse.constprop.33+0x4f8>
    3642:	e5bd      	b.n	31c0 <lfs_dir_traverse.constprop.33+0x74>
    3644:	e5de      	b.n	3204 <lfs_dir_traverse.constprop.33+0xb8>
    3646:	059b      	lsls	r3, r3, #22
    3648:	0d9b      	lsrs	r3, r3, #22
    364a:	1c5a      	adds	r2, r3, #1
    364c:	1ac9      	subs	r1, r1, r3
    364e:	931f      	str	r3, [sp, #124]	; 0x7c
    3650:	9b22      	ldr	r3, [sp, #136]	; 0x88
    3652:	9221      	str	r2, [sp, #132]	; 0x84
    3654:	469c      	mov	ip, r3
    3656:	4461      	add	r1, ip
    3658:	b28b      	uxth	r3, r1
    365a:	9329      	str	r3, [sp, #164]	; 0xa4
    365c:	b21b      	sxth	r3, r3
    365e:	932c      	str	r3, [sp, #176]	; 0xb0
    3660:	029b      	lsls	r3, r3, #10
    3662:	931d      	str	r3, [sp, #116]	; 0x74
    3664:	9b41      	ldr	r3, [sp, #260]	; 0x104
    3666:	930d      	str	r3, [sp, #52]	; 0x34
    3668:	2b04      	cmp	r3, #4
    366a:	d800      	bhi.n	366e <lfs_dir_traverse.constprop.33+0x522>
    366c:	e77d      	b.n	356a <lfs_dir_traverse.constprop.33+0x41e>
    366e:	4642      	mov	r2, r8
    3670:	6e92      	ldr	r2, [r2, #104]	; 0x68
    3672:	9b3e      	ldr	r3, [sp, #248]	; 0xf8
    3674:	6a11      	ldr	r1, [r2, #32]
    3676:	428b      	cmp	r3, r1
    3678:	d294      	bcs.n	35a4 <lfs_dir_traverse.constprop.33+0x458>
    367a:	69d2      	ldr	r2, [r2, #28]
    367c:	2a07      	cmp	r2, #7
    367e:	d991      	bls.n	35a4 <lfs_dir_traverse.constprop.33+0x458>
    3680:	2101      	movs	r1, #1
    3682:	2204      	movs	r2, #4
    3684:	4249      	negs	r1, r1
    3686:	9715      	str	r7, [sp, #84]	; 0x54
    3688:	9616      	str	r6, [sp, #88]	; 0x58
    368a:	2408      	movs	r4, #8
    368c:	4646      	mov	r6, r8
    368e:	000f      	movs	r7, r1
    3690:	46c8      	mov	r8, r9
    3692:	4691      	mov	r9, r2
    3694:	2204      	movs	r2, #4
    3696:	9203      	str	r2, [sp, #12]
    3698:	aa37      	add	r2, sp, #220	; 0xdc
    369a:	9202      	str	r2, [sp, #8]
    369c:	464a      	mov	r2, r9
    369e:	9300      	str	r3, [sp, #0]
    36a0:	9201      	str	r2, [sp, #4]
    36a2:	2304      	movs	r3, #4
    36a4:	0032      	movs	r2, r6
    36a6:	2100      	movs	r1, #0
    36a8:	980f      	ldr	r0, [sp, #60]	; 0x3c
    36aa:	f7fc fd79 	bl	1a0 <lfs_bd_read.isra.21.part.22>
    36ae:	2800      	cmp	r0, #0
    36b0:	d000      	beq.n	36b4 <lfs_dir_traverse.constprop.33+0x568>
    36b2:	e37b      	b.n	3dac <lfs_dir_traverse.constprop.33+0xc60>
    36b4:	2280      	movs	r2, #128	; 0x80
    36b6:	9b37      	ldr	r3, [sp, #220]	; 0xdc
    36b8:	0612      	lsls	r2, r2, #24
    36ba:	ba1b      	rev	r3, r3
    36bc:	405f      	eors	r7, r3
    36be:	9b3e      	ldr	r3, [sp, #248]	; 0xf8
    36c0:	4317      	orrs	r7, r2
    36c2:	930d      	str	r3, [sp, #52]	; 0x34
    36c4:	9340      	str	r3, [sp, #256]	; 0x100
    36c6:	2380      	movs	r3, #128	; 0x80
    36c8:	22c0      	movs	r2, #192	; 0xc0
    36ca:	059b      	lsls	r3, r3, #22
    36cc:	407b      	eors	r3, r7
    36ce:	05d2      	lsls	r2, r2, #23
    36d0:	9737      	str	r7, [sp, #220]	; 0xdc
    36d2:	9441      	str	r4, [sp, #260]	; 0x104
    36d4:	4013      	ands	r3, r2
    36d6:	d14d      	bne.n	3774 <lfs_dir_traverse.constprop.33+0x628>
    36d8:	aa37      	add	r2, sp, #220	; 0xdc
    36da:	9208      	str	r2, [sp, #32]
    36dc:	4a35      	ldr	r2, [pc, #212]	; (37b4 <lfs_dir_traverse.constprop.33+0x668>)
    36de:	9306      	str	r3, [sp, #24]
    36e0:	9207      	str	r2, [sp, #28]
    36e2:	9305      	str	r3, [sp, #20]
    36e4:	9304      	str	r3, [sp, #16]
    36e6:	9303      	str	r3, [sp, #12]
    36e8:	9302      	str	r3, [sp, #8]
    36ea:	9301      	str	r3, [sp, #4]
    36ec:	9300      	str	r3, [sp, #0]
    36ee:	464a      	mov	r2, r9
    36f0:	003b      	movs	r3, r7
    36f2:	a93e      	add	r1, sp, #248	; 0xf8
    36f4:	0030      	movs	r0, r6
    36f6:	f7fd f83b 	bl	770 <lfs_dir_traverse>
    36fa:	2800      	cmp	r0, #0
    36fc:	da00      	bge.n	3700 <lfs_dir_traverse.constprop.33+0x5b4>
    36fe:	e753      	b.n	35a8 <lfs_dir_traverse.constprop.33+0x45c>
    3700:	d138      	bne.n	3774 <lfs_dir_traverse.constprop.33+0x628>
    3702:	9837      	ldr	r0, [sp, #220]	; 0xdc
    3704:	9b1f      	ldr	r3, [sp, #124]	; 0x7c
    3706:	0301      	lsls	r1, r0, #12
    3708:	0d89      	lsrs	r1, r1, #22
    370a:	428b      	cmp	r3, r1
    370c:	d832      	bhi.n	3774 <lfs_dir_traverse.constprop.33+0x628>
    370e:	9b21      	ldr	r3, [sp, #132]	; 0x84
    3710:	428b      	cmp	r3, r1
    3712:	d92f      	bls.n	3774 <lfs_dir_traverse.constprop.33+0x628>
    3714:	0043      	lsls	r3, r0, #1
    3716:	0d5b      	lsrs	r3, r3, #21
    3718:	d02c      	beq.n	3774 <lfs_dir_traverse.constprop.33+0x628>
    371a:	2202      	movs	r2, #2
    371c:	32ff      	adds	r2, #255	; 0xff
    371e:	4293      	cmp	r3, r2
    3720:	d100      	bne.n	3724 <lfs_dir_traverse.constprop.33+0x5d8>
    3722:	e08b      	b.n	383c <lfs_dir_traverse.constprop.33+0x6f0>
    3724:	2281      	movs	r2, #129	; 0x81
    3726:	0052      	lsls	r2, r2, #1
    3728:	4293      	cmp	r3, r2
    372a:	d04d      	beq.n	37c8 <lfs_dir_traverse.constprop.33+0x67c>
    372c:	21ff      	movs	r1, #255	; 0xff
    372e:	9b1d      	ldr	r3, [sp, #116]	; 0x74
    3730:	0509      	lsls	r1, r1, #20
    3732:	18c3      	adds	r3, r0, r3
    3734:	00da      	lsls	r2, r3, #3
    3736:	17d2      	asrs	r2, r2, #31
    3738:	400a      	ands	r2, r1
    373a:	491f      	ldr	r1, [pc, #124]	; (37b8 <lfs_dir_traverse.constprop.33+0x66c>)
    373c:	0018      	movs	r0, r3
    373e:	468c      	mov	ip, r1
    3740:	9934      	ldr	r1, [sp, #208]	; 0xd0
    3742:	4462      	add	r2, ip
    3744:	4048      	eors	r0, r1
    3746:	4202      	tst	r2, r0
    3748:	d075      	beq.n	3836 <lfs_dir_traverse.constprop.33+0x6ea>
    374a:	058a      	lsls	r2, r1, #22
    374c:	1592      	asrs	r2, r2, #22
    374e:	3201      	adds	r2, #1
    3750:	d071      	beq.n	3836 <lfs_dir_traverse.constprop.33+0x6ea>
    3752:	481a      	ldr	r0, [pc, #104]	; (37bc <lfs_dir_traverse.constprop.33+0x670>)
    3754:	4a1a      	ldr	r2, [pc, #104]	; (37c0 <lfs_dir_traverse.constprop.33+0x674>)
    3756:	4008      	ands	r0, r1
    3758:	4302      	orrs	r2, r0
    375a:	481a      	ldr	r0, [pc, #104]	; (37c4 <lfs_dir_traverse.constprop.33+0x678>)
    375c:	4018      	ands	r0, r3
    375e:	4290      	cmp	r0, r2
    3760:	d069      	beq.n	3836 <lfs_dir_traverse.constprop.33+0x6ea>
    3762:	20e0      	movs	r0, #224	; 0xe0
    3764:	2480      	movs	r4, #128	; 0x80
    3766:	0d1a      	lsrs	r2, r3, #20
    3768:	00c0      	lsls	r0, r0, #3
    376a:	00e4      	lsls	r4, r4, #3
    376c:	4010      	ands	r0, r2
    376e:	42a0      	cmp	r0, r4
    3770:	d100      	bne.n	3774 <lfs_dir_traverse.constprop.33+0x628>
    3772:	e13a      	b.n	39ea <lfs_dir_traverse.constprop.33+0x89e>
    3774:	05bb      	lsls	r3, r7, #22
    3776:	159b      	asrs	r3, r3, #22
    3778:	3301      	adds	r3, #1
    377a:	425a      	negs	r2, r3
    377c:	4153      	adcs	r3, r2
    377e:	19db      	adds	r3, r3, r7
    3780:	059b      	lsls	r3, r3, #22
    3782:	0d9b      	lsrs	r3, r3, #22
    3784:	3304      	adds	r3, #4
    3786:	4499      	add	r9, r3
    3788:	9b41      	ldr	r3, [sp, #260]	; 0x104
    378a:	930d      	str	r3, [sp, #52]	; 0x34
    378c:	4599      	cmp	r9, r3
    378e:	d304      	bcc.n	379a <lfs_dir_traverse.constprop.33+0x64e>
    3790:	46c1      	mov	r9, r8
    3792:	9f15      	ldr	r7, [sp, #84]	; 0x54
    3794:	46b0      	mov	r8, r6
    3796:	9e16      	ldr	r6, [sp, #88]	; 0x58
    3798:	e6e7      	b.n	356a <lfs_dir_traverse.constprop.33+0x41e>
    379a:	6eb2      	ldr	r2, [r6, #104]	; 0x68
    379c:	9b3e      	ldr	r3, [sp, #248]	; 0xf8
    379e:	6a11      	ldr	r1, [r2, #32]
    37a0:	428b      	cmp	r3, r1
    37a2:	d300      	bcc.n	37a6 <lfs_dir_traverse.constprop.33+0x65a>
    37a4:	e6fe      	b.n	35a4 <lfs_dir_traverse.constprop.33+0x458>
    37a6:	4649      	mov	r1, r9
    37a8:	69d2      	ldr	r2, [r2, #28]
    37aa:	1d0c      	adds	r4, r1, #4
    37ac:	4294      	cmp	r4, r2
    37ae:	d800      	bhi.n	37b2 <lfs_dir_traverse.constprop.33+0x666>
    37b0:	e770      	b.n	3694 <lfs_dir_traverse.constprop.33+0x548>
    37b2:	e6f7      	b.n	35a4 <lfs_dir_traverse.constprop.33+0x458>
    37b4:	00000000 	.word	0x00000000
    37b8:	700ffc00 	.word	0x700ffc00
    37bc:	000ffc00 	.word	0x000ffc00
    37c0:	4ff00000 	.word	0x4ff00000
    37c4:	7ffffc00 	.word	0x7ffffc00
    37c8:	0583      	lsls	r3, r0, #22
    37ca:	0d9b      	lsrs	r3, r3, #22
    37cc:	d0d2      	beq.n	3774 <lfs_dir_traverse.constprop.33+0x628>
    37ce:	2058      	movs	r0, #88	; 0x58
    37d0:	9a2c      	ldr	r2, [sp, #176]	; 0xb0
    37d2:	9c34      	ldr	r4, [sp, #208]	; 0xd0
    37d4:	4694      	mov	ip, r2
    37d6:	aa2a      	add	r2, sp, #168	; 0xa8
    37d8:	1812      	adds	r2, r2, r0
    37da:	20c0      	movs	r0, #192	; 0xc0
    37dc:	0080      	lsls	r0, r0, #2
    37de:	4461      	add	r1, ip
    37e0:	4684      	mov	ip, r0
    37e2:	7812      	ldrb	r2, [r2, #0]
    37e4:	9842      	ldr	r0, [sp, #264]	; 0x108
    37e6:	4462      	add	r2, ip
    37e8:	0512      	lsls	r2, r2, #20
    37ea:	4302      	orrs	r2, r0
    37ec:	0289      	lsls	r1, r1, #10
    37ee:	900d      	str	r0, [sp, #52]	; 0x34
    37f0:	430a      	orrs	r2, r1
    37f2:	48a8      	ldr	r0, [pc, #672]	; (3a94 <lfs_dir_traverse.constprop.33+0x948>)
    37f4:	4062      	eors	r2, r4
    37f6:	4202      	tst	r2, r0
    37f8:	d01d      	beq.n	3836 <lfs_dir_traverse.constprop.33+0x6ea>
    37fa:	05a2      	lsls	r2, r4, #22
    37fc:	1592      	asrs	r2, r2, #22
    37fe:	3201      	adds	r2, #1
    3800:	d019      	beq.n	3836 <lfs_dir_traverse.constprop.33+0x6ea>
    3802:	005a      	lsls	r2, r3, #1
    3804:	18d3      	adds	r3, r2, r3
    3806:	aa40      	add	r2, sp, #256	; 0x100
    3808:	4694      	mov	ip, r2
    380a:	009b      	lsls	r3, r3, #2
    380c:	4463      	add	r3, ip
    380e:	46bc      	mov	ip, r7
    3810:	a843      	add	r0, sp, #268	; 0x10c
    3812:	4283      	cmp	r3, r0
    3814:	d100      	bne.n	3818 <lfs_dir_traverse.constprop.33+0x6cc>
    3816:	e2ba      	b.n	3d8e <lfs_dir_traverse.constprop.33+0xc42>
    3818:	25c0      	movs	r5, #192	; 0xc0
    381a:	0007      	movs	r7, r0
    381c:	00ad      	lsls	r5, r5, #2
    381e:	46ab      	mov	fp, r5
    3820:	7802      	ldrb	r2, [r0, #0]
    3822:	68bd      	ldr	r5, [r7, #8]
    3824:	445a      	add	r2, fp
    3826:	430d      	orrs	r5, r1
    3828:	0512      	lsls	r2, r2, #20
    382a:	432a      	orrs	r2, r5
    382c:	4d99      	ldr	r5, [pc, #612]	; (3a94 <lfs_dir_traverse.constprop.33+0x948>)
    382e:	4062      	eors	r2, r4
    3830:	300c      	adds	r0, #12
    3832:	422a      	tst	r2, r5
    3834:	d1ed      	bne.n	3812 <lfs_dir_traverse.constprop.33+0x6c6>
    3836:	46b3      	mov	fp, r6
    3838:	46c2      	mov	sl, r8
    383a:	e4e1      	b.n	3200 <lfs_dir_traverse.constprop.33+0xb4>
    383c:	0580      	lsls	r0, r0, #22
    383e:	0d83      	lsrs	r3, r0, #22
    3840:	1c5a      	adds	r2, r3, #1
    3842:	1ac9      	subs	r1, r1, r3
    3844:	9323      	str	r3, [sp, #140]	; 0x8c
    3846:	9b29      	ldr	r3, [sp, #164]	; 0xa4
    3848:	9228      	str	r2, [sp, #160]	; 0xa0
    384a:	469c      	mov	ip, r3
    384c:	4461      	add	r1, ip
    384e:	b28b      	uxth	r3, r1
    3850:	932f      	str	r3, [sp, #188]	; 0xbc
    3852:	b21b      	sxth	r3, r3
    3854:	9330      	str	r3, [sp, #192]	; 0xc0
    3856:	029b      	lsls	r3, r3, #10
    3858:	9320      	str	r3, [sp, #128]	; 0x80
    385a:	9b43      	ldr	r3, [sp, #268]	; 0x10c
    385c:	930d      	str	r3, [sp, #52]	; 0x34
    385e:	2b04      	cmp	r3, #4
    3860:	d988      	bls.n	3774 <lfs_dir_traverse.constprop.33+0x628>
    3862:	6eb2      	ldr	r2, [r6, #104]	; 0x68
    3864:	9b40      	ldr	r3, [sp, #256]	; 0x100
    3866:	6a11      	ldr	r1, [r2, #32]
    3868:	4299      	cmp	r1, r3
    386a:	d800      	bhi.n	386e <lfs_dir_traverse.constprop.33+0x722>
    386c:	e69a      	b.n	35a4 <lfs_dir_traverse.constprop.33+0x458>
    386e:	69d2      	ldr	r2, [r2, #28]
    3870:	2a07      	cmp	r2, #7
    3872:	d800      	bhi.n	3876 <lfs_dir_traverse.constprop.33+0x72a>
    3874:	e696      	b.n	35a4 <lfs_dir_traverse.constprop.33+0x458>
    3876:	2204      	movs	r2, #4
    3878:	4651      	mov	r1, sl
    387a:	2501      	movs	r5, #1
    387c:	9718      	str	r7, [sp, #96]	; 0x60
    387e:	2408      	movs	r4, #8
    3880:	0017      	movs	r7, r2
    3882:	46b2      	mov	sl, r6
    3884:	426d      	negs	r5, r5
    3886:	9117      	str	r1, [sp, #92]	; 0x5c
    3888:	2204      	movs	r2, #4
    388a:	9203      	str	r2, [sp, #12]
    388c:	aa38      	add	r2, sp, #224	; 0xe0
    388e:	9202      	str	r2, [sp, #8]
    3890:	9300      	str	r3, [sp, #0]
    3892:	9701      	str	r7, [sp, #4]
    3894:	2304      	movs	r3, #4
    3896:	4652      	mov	r2, sl
    3898:	2100      	movs	r1, #0
    389a:	980f      	ldr	r0, [sp, #60]	; 0x3c
    389c:	f7fc fc80 	bl	1a0 <lfs_bd_read.isra.21.part.22>
    38a0:	2800      	cmp	r0, #0
    38a2:	d000      	beq.n	38a6 <lfs_dir_traverse.constprop.33+0x75a>
    38a4:	e1dc      	b.n	3c60 <lfs_dir_traverse.constprop.33+0xb14>
    38a6:	9b38      	ldr	r3, [sp, #224]	; 0xe0
    38a8:	22c0      	movs	r2, #192	; 0xc0
    38aa:	ba1b      	rev	r3, r3
    38ac:	405d      	eors	r5, r3
    38ae:	2380      	movs	r3, #128	; 0x80
    38b0:	061b      	lsls	r3, r3, #24
    38b2:	431d      	orrs	r5, r3
    38b4:	9b40      	ldr	r3, [sp, #256]	; 0x100
    38b6:	05d2      	lsls	r2, r2, #23
    38b8:	930d      	str	r3, [sp, #52]	; 0x34
    38ba:	9342      	str	r3, [sp, #264]	; 0x108
    38bc:	2380      	movs	r3, #128	; 0x80
    38be:	059b      	lsls	r3, r3, #22
    38c0:	406b      	eors	r3, r5
    38c2:	9538      	str	r5, [sp, #224]	; 0xe0
    38c4:	9443      	str	r4, [sp, #268]	; 0x10c
    38c6:	4013      	ands	r3, r2
    38c8:	d151      	bne.n	396e <lfs_dir_traverse.constprop.33+0x822>
    38ca:	aa38      	add	r2, sp, #224	; 0xe0
    38cc:	9208      	str	r2, [sp, #32]
    38ce:	4a72      	ldr	r2, [pc, #456]	; (3a98 <lfs_dir_traverse.constprop.33+0x94c>)
    38d0:	9306      	str	r3, [sp, #24]
    38d2:	9207      	str	r2, [sp, #28]
    38d4:	9305      	str	r3, [sp, #20]
    38d6:	9304      	str	r3, [sp, #16]
    38d8:	9303      	str	r3, [sp, #12]
    38da:	9302      	str	r3, [sp, #8]
    38dc:	9301      	str	r3, [sp, #4]
    38de:	9300      	str	r3, [sp, #0]
    38e0:	003a      	movs	r2, r7
    38e2:	002b      	movs	r3, r5
    38e4:	a940      	add	r1, sp, #256	; 0x100
    38e6:	4650      	mov	r0, sl
    38e8:	f7fc ff42 	bl	770 <lfs_dir_traverse>
    38ec:	2800      	cmp	r0, #0
    38ee:	da00      	bge.n	38f2 <lfs_dir_traverse.constprop.33+0x7a6>
    38f0:	e65a      	b.n	35a8 <lfs_dir_traverse.constprop.33+0x45c>
    38f2:	d13c      	bne.n	396e <lfs_dir_traverse.constprop.33+0x822>
    38f4:	9a38      	ldr	r2, [sp, #224]	; 0xe0
    38f6:	9b23      	ldr	r3, [sp, #140]	; 0x8c
    38f8:	0311      	lsls	r1, r2, #12
    38fa:	0d89      	lsrs	r1, r1, #22
    38fc:	428b      	cmp	r3, r1
    38fe:	d836      	bhi.n	396e <lfs_dir_traverse.constprop.33+0x822>
    3900:	9b28      	ldr	r3, [sp, #160]	; 0xa0
    3902:	428b      	cmp	r3, r1
    3904:	d933      	bls.n	396e <lfs_dir_traverse.constprop.33+0x822>
    3906:	0053      	lsls	r3, r2, #1
    3908:	0d5b      	lsrs	r3, r3, #21
    390a:	d030      	beq.n	396e <lfs_dir_traverse.constprop.33+0x822>
    390c:	2002      	movs	r0, #2
    390e:	30ff      	adds	r0, #255	; 0xff
    3910:	4283      	cmp	r3, r0
    3912:	d100      	bne.n	3916 <lfs_dir_traverse.constprop.33+0x7ca>
    3914:	e0ca      	b.n	3aac <lfs_dir_traverse.constprop.33+0x960>
    3916:	2081      	movs	r0, #129	; 0x81
    3918:	0040      	lsls	r0, r0, #1
    391a:	4283      	cmp	r3, r0
    391c:	d071      	beq.n	3a02 <lfs_dir_traverse.constprop.33+0x8b6>
    391e:	9b20      	ldr	r3, [sp, #128]	; 0x80
    3920:	21ff      	movs	r1, #255	; 0xff
    3922:	469c      	mov	ip, r3
    3924:	4462      	add	r2, ip
    3926:	00d3      	lsls	r3, r2, #3
    3928:	0509      	lsls	r1, r1, #20
    392a:	17db      	asrs	r3, r3, #31
    392c:	400b      	ands	r3, r1
    392e:	495b      	ldr	r1, [pc, #364]	; (3a9c <lfs_dir_traverse.constprop.33+0x950>)
    3930:	0010      	movs	r0, r2
    3932:	468c      	mov	ip, r1
    3934:	9934      	ldr	r1, [sp, #208]	; 0xd0
    3936:	4463      	add	r3, ip
    3938:	4048      	eors	r0, r1
    393a:	4203      	tst	r3, r0
    393c:	d100      	bne.n	3940 <lfs_dir_traverse.constprop.33+0x7f4>
    393e:	e097      	b.n	3a70 <lfs_dir_traverse.constprop.33+0x924>
    3940:	058b      	lsls	r3, r1, #22
    3942:	159b      	asrs	r3, r3, #22
    3944:	3301      	adds	r3, #1
    3946:	d100      	bne.n	394a <lfs_dir_traverse.constprop.33+0x7fe>
    3948:	e092      	b.n	3a70 <lfs_dir_traverse.constprop.33+0x924>
    394a:	4855      	ldr	r0, [pc, #340]	; (3aa0 <lfs_dir_traverse.constprop.33+0x954>)
    394c:	4b55      	ldr	r3, [pc, #340]	; (3aa4 <lfs_dir_traverse.constprop.33+0x958>)
    394e:	4008      	ands	r0, r1
    3950:	4303      	orrs	r3, r0
    3952:	4850      	ldr	r0, [pc, #320]	; (3a94 <lfs_dir_traverse.constprop.33+0x948>)
    3954:	4010      	ands	r0, r2
    3956:	4298      	cmp	r0, r3
    3958:	d100      	bne.n	395c <lfs_dir_traverse.constprop.33+0x810>
    395a:	e089      	b.n	3a70 <lfs_dir_traverse.constprop.33+0x924>
    395c:	23e0      	movs	r3, #224	; 0xe0
    395e:	2480      	movs	r4, #128	; 0x80
    3960:	0d10      	lsrs	r0, r2, #20
    3962:	00db      	lsls	r3, r3, #3
    3964:	00e4      	lsls	r4, r4, #3
    3966:	4003      	ands	r3, r0
    3968:	42a3      	cmp	r3, r4
    396a:	d100      	bne.n	396e <lfs_dir_traverse.constprop.33+0x822>
    396c:	e1f1      	b.n	3d52 <lfs_dir_traverse.constprop.33+0xc06>
    396e:	05ab      	lsls	r3, r5, #22
    3970:	159b      	asrs	r3, r3, #22
    3972:	3301      	adds	r3, #1
    3974:	425a      	negs	r2, r3
    3976:	4153      	adcs	r3, r2
    3978:	195b      	adds	r3, r3, r5
    397a:	059b      	lsls	r3, r3, #22
    397c:	0d9b      	lsrs	r3, r3, #22
    397e:	3304      	adds	r3, #4
    3980:	18ff      	adds	r7, r7, r3
    3982:	9b43      	ldr	r3, [sp, #268]	; 0x10c
    3984:	930d      	str	r3, [sp, #52]	; 0x34
    3986:	429f      	cmp	r7, r3
    3988:	d376      	bcc.n	3a78 <lfs_dir_traverse.constprop.33+0x92c>
    398a:	9b17      	ldr	r3, [sp, #92]	; 0x5c
    398c:	4656      	mov	r6, sl
    398e:	9f18      	ldr	r7, [sp, #96]	; 0x60
    3990:	469a      	mov	sl, r3
    3992:	e6ef      	b.n	3774 <lfs_dir_traverse.constprop.33+0x628>
    3994:	9955      	ldr	r1, [sp, #340]	; 0x154
    3996:	059a      	lsls	r2, r3, #22
    3998:	9105      	str	r1, [sp, #20]
    399a:	992d      	ldr	r1, [sp, #180]	; 0xb4
    399c:	031b      	lsls	r3, r3, #12
    399e:	468c      	mov	ip, r1
    39a0:	0d92      	lsrs	r2, r2, #22
    39a2:	0d9b      	lsrs	r3, r3, #22
    39a4:	1a9b      	subs	r3, r3, r2
    39a6:	4463      	add	r3, ip
    39a8:	b21b      	sxth	r3, r3
    39aa:	9304      	str	r3, [sp, #16]
    39ac:	1c53      	adds	r3, r2, #1
    39ae:	9303      	str	r3, [sp, #12]
    39b0:	2380      	movs	r3, #128	; 0x80
    39b2:	059b      	lsls	r3, r3, #22
    39b4:	9301      	str	r3, [sp, #4]
    39b6:	4b3c      	ldr	r3, [pc, #240]	; (3aa8 <lfs_dir_traverse.constprop.33+0x95c>)
    39b8:	9202      	str	r2, [sp, #8]
    39ba:	9300      	str	r3, [sp, #0]
    39bc:	2200      	movs	r2, #0
    39be:	2300      	movs	r3, #0
    39c0:	9914      	ldr	r1, [sp, #80]	; 0x50
    39c2:	4658      	mov	r0, fp
    39c4:	f7ff fbc2 	bl	314c <lfs_dir_traverse.constprop.33>
    39c8:	2800      	cmp	r0, #0
    39ca:	d101      	bne.n	39d0 <lfs_dir_traverse.constprop.33+0x884>
    39cc:	f7ff fc18 	bl	3200 <lfs_dir_traverse.constprop.33+0xb4>
    39d0:	e5ea      	b.n	35a8 <lfs_dir_traverse.constprop.33+0x45c>
    39d2:	031b      	lsls	r3, r3, #12
    39d4:	0308      	lsls	r0, r1, #12
    39d6:	0d9b      	lsrs	r3, r3, #22
    39d8:	0d80      	lsrs	r0, r0, #22
    39da:	4283      	cmp	r3, r0
    39dc:	d900      	bls.n	39e0 <lfs_dir_traverse.constprop.33+0x894>
    39de:	e5c4      	b.n	356a <lfs_dir_traverse.constprop.33+0x41e>
    39e0:	b252      	sxtb	r2, r2
    39e2:	0292      	lsls	r2, r2, #10
    39e4:	1851      	adds	r1, r2, r1
    39e6:	9134      	str	r1, [sp, #208]	; 0xd0
    39e8:	e5bf      	b.n	356a <lfs_dir_traverse.constprop.33+0x41e>
    39ea:	031b      	lsls	r3, r3, #12
    39ec:	0308      	lsls	r0, r1, #12
    39ee:	0d9b      	lsrs	r3, r3, #22
    39f0:	0d80      	lsrs	r0, r0, #22
    39f2:	4283      	cmp	r3, r0
    39f4:	d900      	bls.n	39f8 <lfs_dir_traverse.constprop.33+0x8ac>
    39f6:	e6bd      	b.n	3774 <lfs_dir_traverse.constprop.33+0x628>
    39f8:	b252      	sxtb	r2, r2
    39fa:	0292      	lsls	r2, r2, #10
    39fc:	1851      	adds	r1, r2, r1
    39fe:	9134      	str	r1, [sp, #208]	; 0xd0
    3a00:	e6b8      	b.n	3774 <lfs_dir_traverse.constprop.33+0x628>
    3a02:	0592      	lsls	r2, r2, #22
    3a04:	0d92      	lsrs	r2, r2, #22
    3a06:	d0b2      	beq.n	396e <lfs_dir_traverse.constprop.33+0x822>
    3a08:	9b30      	ldr	r3, [sp, #192]	; 0xc0
    3a0a:	38a2      	subs	r0, #162	; 0xa2
    3a0c:	469c      	mov	ip, r3
    3a0e:	ab2a      	add	r3, sp, #168	; 0xa8
    3a10:	181b      	adds	r3, r3, r0
    3a12:	20c0      	movs	r0, #192	; 0xc0
    3a14:	0080      	lsls	r0, r0, #2
    3a16:	4461      	add	r1, ip
    3a18:	4684      	mov	ip, r0
    3a1a:	781b      	ldrb	r3, [r3, #0]
    3a1c:	9844      	ldr	r0, [sp, #272]	; 0x110
    3a1e:	4463      	add	r3, ip
    3a20:	051b      	lsls	r3, r3, #20
    3a22:	4303      	orrs	r3, r0
    3a24:	0289      	lsls	r1, r1, #10
    3a26:	9c34      	ldr	r4, [sp, #208]	; 0xd0
    3a28:	900d      	str	r0, [sp, #52]	; 0x34
    3a2a:	430b      	orrs	r3, r1
    3a2c:	4819      	ldr	r0, [pc, #100]	; (3a94 <lfs_dir_traverse.constprop.33+0x948>)
    3a2e:	4063      	eors	r3, r4
    3a30:	4203      	tst	r3, r0
    3a32:	d01d      	beq.n	3a70 <lfs_dir_traverse.constprop.33+0x924>
    3a34:	05a3      	lsls	r3, r4, #22
    3a36:	159b      	asrs	r3, r3, #22
    3a38:	3301      	adds	r3, #1
    3a3a:	d019      	beq.n	3a70 <lfs_dir_traverse.constprop.33+0x924>
    3a3c:	0053      	lsls	r3, r2, #1
    3a3e:	189b      	adds	r3, r3, r2
    3a40:	aa42      	add	r2, sp, #264	; 0x108
    3a42:	4694      	mov	ip, r2
    3a44:	009b      	lsls	r3, r3, #2
    3a46:	4463      	add	r3, ip
    3a48:	46ac      	mov	ip, r5
    3a4a:	a845      	add	r0, sp, #276	; 0x114
    3a4c:	4283      	cmp	r3, r0
    3a4e:	d100      	bne.n	3a52 <lfs_dir_traverse.constprop.33+0x906>
    3a50:	e1a7      	b.n	3da2 <lfs_dir_traverse.constprop.33+0xc56>
    3a52:	26c0      	movs	r6, #192	; 0xc0
    3a54:	0005      	movs	r5, r0
    3a56:	00b6      	lsls	r6, r6, #2
    3a58:	46b3      	mov	fp, r6
    3a5a:	7802      	ldrb	r2, [r0, #0]
    3a5c:	68ae      	ldr	r6, [r5, #8]
    3a5e:	445a      	add	r2, fp
    3a60:	0512      	lsls	r2, r2, #20
    3a62:	430e      	orrs	r6, r1
    3a64:	4332      	orrs	r2, r6
    3a66:	4d0b      	ldr	r5, [pc, #44]	; (3a94 <lfs_dir_traverse.constprop.33+0x948>)
    3a68:	4062      	eors	r2, r4
    3a6a:	300c      	adds	r0, #12
    3a6c:	422a      	tst	r2, r5
    3a6e:	d1ed      	bne.n	3a4c <lfs_dir_traverse.constprop.33+0x900>
    3a70:	46d3      	mov	fp, sl
    3a72:	46c2      	mov	sl, r8
    3a74:	f7ff fbc4 	bl	3200 <lfs_dir_traverse.constprop.33+0xb4>
    3a78:	4652      	mov	r2, sl
    3a7a:	6e92      	ldr	r2, [r2, #104]	; 0x68
    3a7c:	9b40      	ldr	r3, [sp, #256]	; 0x100
    3a7e:	6a11      	ldr	r1, [r2, #32]
    3a80:	428b      	cmp	r3, r1
    3a82:	d300      	bcc.n	3a86 <lfs_dir_traverse.constprop.33+0x93a>
    3a84:	e58e      	b.n	35a4 <lfs_dir_traverse.constprop.33+0x458>
    3a86:	69d2      	ldr	r2, [r2, #28]
    3a88:	1d3c      	adds	r4, r7, #4
    3a8a:	4294      	cmp	r4, r2
    3a8c:	d800      	bhi.n	3a90 <lfs_dir_traverse.constprop.33+0x944>
    3a8e:	e6fb      	b.n	3888 <lfs_dir_traverse.constprop.33+0x73c>
    3a90:	e588      	b.n	35a4 <lfs_dir_traverse.constprop.33+0x458>
    3a92:	46c0      	nop			; (mov r8, r8)
    3a94:	7ffffc00 	.word	0x7ffffc00
    3a98:	00000000 	.word	0x00000000
    3a9c:	700ffc00 	.word	0x700ffc00
    3aa0:	000ffc00 	.word	0x000ffc00
    3aa4:	4ff00000 	.word	0x4ff00000
    3aa8:	600ffc00 	.word	0x600ffc00
    3aac:	0592      	lsls	r2, r2, #22
    3aae:	0d93      	lsrs	r3, r2, #22
    3ab0:	1c5a      	adds	r2, r3, #1
    3ab2:	1ac9      	subs	r1, r1, r3
    3ab4:	932a      	str	r3, [sp, #168]	; 0xa8
    3ab6:	9b2f      	ldr	r3, [sp, #188]	; 0xbc
    3ab8:	922e      	str	r2, [sp, #184]	; 0xb8
    3aba:	469c      	mov	ip, r3
    3abc:	4461      	add	r1, ip
    3abe:	b28b      	uxth	r3, r1
    3ac0:	9331      	str	r3, [sp, #196]	; 0xc4
    3ac2:	b21b      	sxth	r3, r3
    3ac4:	9332      	str	r3, [sp, #200]	; 0xc8
    3ac6:	029b      	lsls	r3, r3, #10
    3ac8:	9327      	str	r3, [sp, #156]	; 0x9c
    3aca:	9b45      	ldr	r3, [sp, #276]	; 0x114
    3acc:	930d      	str	r3, [sp, #52]	; 0x34
    3ace:	2b04      	cmp	r3, #4
    3ad0:	d800      	bhi.n	3ad4 <lfs_dir_traverse.constprop.33+0x988>
    3ad2:	e74c      	b.n	396e <lfs_dir_traverse.constprop.33+0x822>
    3ad4:	4652      	mov	r2, sl
    3ad6:	6e92      	ldr	r2, [r2, #104]	; 0x68
    3ad8:	9b42      	ldr	r3, [sp, #264]	; 0x108
    3ada:	6a11      	ldr	r1, [r2, #32]
    3adc:	428b      	cmp	r3, r1
    3ade:	d300      	bcc.n	3ae2 <lfs_dir_traverse.constprop.33+0x996>
    3ae0:	e560      	b.n	35a4 <lfs_dir_traverse.constprop.33+0x458>
    3ae2:	69d2      	ldr	r2, [r2, #28]
    3ae4:	2a07      	cmp	r2, #7
    3ae6:	d800      	bhi.n	3aea <lfs_dir_traverse.constprop.33+0x99e>
    3ae8:	e55c      	b.n	35a4 <lfs_dir_traverse.constprop.33+0x458>
    3aea:	2208      	movs	r2, #8
    3aec:	2401      	movs	r4, #1
    3aee:	4693      	mov	fp, r2
    3af0:	2604      	movs	r6, #4
    3af2:	4264      	negs	r4, r4
    3af4:	951a      	str	r5, [sp, #104]	; 0x68
    3af6:	2204      	movs	r2, #4
    3af8:	9203      	str	r2, [sp, #12]
    3afa:	aa39      	add	r2, sp, #228	; 0xe4
    3afc:	9202      	str	r2, [sp, #8]
    3afe:	9300      	str	r3, [sp, #0]
    3b00:	9601      	str	r6, [sp, #4]
    3b02:	2304      	movs	r3, #4
    3b04:	4652      	mov	r2, sl
    3b06:	2100      	movs	r1, #0
    3b08:	980f      	ldr	r0, [sp, #60]	; 0x3c
    3b0a:	f7fc fb49 	bl	1a0 <lfs_bd_read.isra.21.part.22>
    3b0e:	2800      	cmp	r0, #0
    3b10:	d000      	beq.n	3b14 <lfs_dir_traverse.constprop.33+0x9c8>
    3b12:	e0a5      	b.n	3c60 <lfs_dir_traverse.constprop.33+0xb14>
    3b14:	9b39      	ldr	r3, [sp, #228]	; 0xe4
    3b16:	ba1b      	rev	r3, r3
    3b18:	405c      	eors	r4, r3
    3b1a:	2380      	movs	r3, #128	; 0x80
    3b1c:	061b      	lsls	r3, r3, #24
    3b1e:	431c      	orrs	r4, r3
    3b20:	9b42      	ldr	r3, [sp, #264]	; 0x108
    3b22:	9439      	str	r4, [sp, #228]	; 0xe4
    3b24:	930d      	str	r3, [sp, #52]	; 0x34
    3b26:	9344      	str	r3, [sp, #272]	; 0x110
    3b28:	465b      	mov	r3, fp
    3b2a:	9345      	str	r3, [sp, #276]	; 0x114
    3b2c:	2380      	movs	r3, #128	; 0x80
    3b2e:	059b      	lsls	r3, r3, #22
    3b30:	001a      	movs	r2, r3
    3b32:	469b      	mov	fp, r3
    3b34:	23c0      	movs	r3, #192	; 0xc0
    3b36:	4062      	eors	r2, r4
    3b38:	05db      	lsls	r3, r3, #23
    3b3a:	421a      	tst	r2, r3
    3b3c:	d154      	bne.n	3be8 <lfs_dir_traverse.constprop.33+0xa9c>
    3b3e:	ab39      	add	r3, sp, #228	; 0xe4
    3b40:	9308      	str	r3, [sp, #32]
    3b42:	4b9c      	ldr	r3, [pc, #624]	; (3db4 <lfs_dir_traverse.constprop.33+0xc68>)
    3b44:	9006      	str	r0, [sp, #24]
    3b46:	9307      	str	r3, [sp, #28]
    3b48:	9005      	str	r0, [sp, #20]
    3b4a:	9004      	str	r0, [sp, #16]
    3b4c:	9003      	str	r0, [sp, #12]
    3b4e:	9002      	str	r0, [sp, #8]
    3b50:	9001      	str	r0, [sp, #4]
    3b52:	9000      	str	r0, [sp, #0]
    3b54:	0023      	movs	r3, r4
    3b56:	0032      	movs	r2, r6
    3b58:	a942      	add	r1, sp, #264	; 0x108
    3b5a:	4650      	mov	r0, sl
    3b5c:	f7fc fe08 	bl	770 <lfs_dir_traverse>
    3b60:	2800      	cmp	r0, #0
    3b62:	da00      	bge.n	3b66 <lfs_dir_traverse.constprop.33+0xa1a>
    3b64:	e520      	b.n	35a8 <lfs_dir_traverse.constprop.33+0x45c>
    3b66:	d13f      	bne.n	3be8 <lfs_dir_traverse.constprop.33+0xa9c>
    3b68:	9a39      	ldr	r2, [sp, #228]	; 0xe4
    3b6a:	9b2a      	ldr	r3, [sp, #168]	; 0xa8
    3b6c:	0311      	lsls	r1, r2, #12
    3b6e:	0d89      	lsrs	r1, r1, #22
    3b70:	910d      	str	r1, [sp, #52]	; 0x34
    3b72:	000d      	movs	r5, r1
    3b74:	428b      	cmp	r3, r1
    3b76:	d837      	bhi.n	3be8 <lfs_dir_traverse.constprop.33+0xa9c>
    3b78:	9b2e      	ldr	r3, [sp, #184]	; 0xb8
    3b7a:	428b      	cmp	r3, r1
    3b7c:	d934      	bls.n	3be8 <lfs_dir_traverse.constprop.33+0xa9c>
    3b7e:	0053      	lsls	r3, r2, #1
    3b80:	0d5b      	lsrs	r3, r3, #21
    3b82:	d031      	beq.n	3be8 <lfs_dir_traverse.constprop.33+0xa9c>
    3b84:	2102      	movs	r1, #2
    3b86:	31ff      	adds	r1, #255	; 0xff
    3b88:	428b      	cmp	r3, r1
    3b8a:	d04b      	beq.n	3c24 <lfs_dir_traverse.constprop.33+0xad8>
    3b8c:	2081      	movs	r0, #129	; 0x81
    3b8e:	0040      	lsls	r0, r0, #1
    3b90:	4283      	cmp	r3, r0
    3b92:	d100      	bne.n	3b96 <lfs_dir_traverse.constprop.33+0xa4a>
    3b94:	e093      	b.n	3cbe <lfs_dir_traverse.constprop.33+0xb72>
    3b96:	9b27      	ldr	r3, [sp, #156]	; 0x9c
    3b98:	21ff      	movs	r1, #255	; 0xff
    3b9a:	469c      	mov	ip, r3
    3b9c:	4462      	add	r2, ip
    3b9e:	00d3      	lsls	r3, r2, #3
    3ba0:	0509      	lsls	r1, r1, #20
    3ba2:	17db      	asrs	r3, r3, #31
    3ba4:	400b      	ands	r3, r1
    3ba6:	4984      	ldr	r1, [pc, #528]	; (3db8 <lfs_dir_traverse.constprop.33+0xc6c>)
    3ba8:	0010      	movs	r0, r2
    3baa:	468c      	mov	ip, r1
    3bac:	9934      	ldr	r1, [sp, #208]	; 0xd0
    3bae:	4463      	add	r3, ip
    3bb0:	4048      	eors	r0, r1
    3bb2:	4203      	tst	r3, r0
    3bb4:	d100      	bne.n	3bb8 <lfs_dir_traverse.constprop.33+0xa6c>
    3bb6:	e75b      	b.n	3a70 <lfs_dir_traverse.constprop.33+0x924>
    3bb8:	058b      	lsls	r3, r1, #22
    3bba:	159b      	asrs	r3, r3, #22
    3bbc:	3301      	adds	r3, #1
    3bbe:	d100      	bne.n	3bc2 <lfs_dir_traverse.constprop.33+0xa76>
    3bc0:	e756      	b.n	3a70 <lfs_dir_traverse.constprop.33+0x924>
    3bc2:	487e      	ldr	r0, [pc, #504]	; (3dbc <lfs_dir_traverse.constprop.33+0xc70>)
    3bc4:	4b7e      	ldr	r3, [pc, #504]	; (3dc0 <lfs_dir_traverse.constprop.33+0xc74>)
    3bc6:	4008      	ands	r0, r1
    3bc8:	4303      	orrs	r3, r0
    3bca:	487e      	ldr	r0, [pc, #504]	; (3dc4 <lfs_dir_traverse.constprop.33+0xc78>)
    3bcc:	4010      	ands	r0, r2
    3bce:	4298      	cmp	r0, r3
    3bd0:	d100      	bne.n	3bd4 <lfs_dir_traverse.constprop.33+0xa88>
    3bd2:	e74d      	b.n	3a70 <lfs_dir_traverse.constprop.33+0x924>
    3bd4:	2080      	movs	r0, #128	; 0x80
    3bd6:	00c0      	lsls	r0, r0, #3
    3bd8:	4684      	mov	ip, r0
    3bda:	20e0      	movs	r0, #224	; 0xe0
    3bdc:	0d13      	lsrs	r3, r2, #20
    3bde:	00c0      	lsls	r0, r0, #3
    3be0:	4018      	ands	r0, r3
    3be2:	4560      	cmp	r0, ip
    3be4:	d100      	bne.n	3be8 <lfs_dir_traverse.constprop.33+0xa9c>
    3be6:	e0c6      	b.n	3d76 <lfs_dir_traverse.constprop.33+0xc2a>
    3be8:	05a3      	lsls	r3, r4, #22
    3bea:	159b      	asrs	r3, r3, #22
    3bec:	3301      	adds	r3, #1
    3bee:	425a      	negs	r2, r3
    3bf0:	4153      	adcs	r3, r2
    3bf2:	191b      	adds	r3, r3, r4
    3bf4:	059b      	lsls	r3, r3, #22
    3bf6:	0d9b      	lsrs	r3, r3, #22
    3bf8:	3304      	adds	r3, #4
    3bfa:	18f6      	adds	r6, r6, r3
    3bfc:	9b45      	ldr	r3, [sp, #276]	; 0x114
    3bfe:	930d      	str	r3, [sp, #52]	; 0x34
    3c00:	429e      	cmp	r6, r3
    3c02:	d301      	bcc.n	3c08 <lfs_dir_traverse.constprop.33+0xabc>
    3c04:	9d1a      	ldr	r5, [sp, #104]	; 0x68
    3c06:	e6b2      	b.n	396e <lfs_dir_traverse.constprop.33+0x822>
    3c08:	4652      	mov	r2, sl
    3c0a:	6e92      	ldr	r2, [r2, #104]	; 0x68
    3c0c:	9b42      	ldr	r3, [sp, #264]	; 0x108
    3c0e:	6a11      	ldr	r1, [r2, #32]
    3c10:	428b      	cmp	r3, r1
    3c12:	d300      	bcc.n	3c16 <lfs_dir_traverse.constprop.33+0xaca>
    3c14:	e4c6      	b.n	35a4 <lfs_dir_traverse.constprop.33+0x458>
    3c16:	69d2      	ldr	r2, [r2, #28]
    3c18:	1d31      	adds	r1, r6, #4
    3c1a:	468b      	mov	fp, r1
    3c1c:	4291      	cmp	r1, r2
    3c1e:	d800      	bhi.n	3c22 <lfs_dir_traverse.constprop.33+0xad6>
    3c20:	e769      	b.n	3af6 <lfs_dir_traverse.constprop.33+0x9aa>
    3c22:	e4bf      	b.n	35a4 <lfs_dir_traverse.constprop.33+0x458>
    3c24:	ab34      	add	r3, sp, #208	; 0xd0
    3c26:	9308      	str	r3, [sp, #32]
    3c28:	4b62      	ldr	r3, [pc, #392]	; (3db4 <lfs_dir_traverse.constprop.33+0xc68>)
    3c2a:	0592      	lsls	r2, r2, #22
    3c2c:	9307      	str	r3, [sp, #28]
    3c2e:	9b31      	ldr	r3, [sp, #196]	; 0xc4
    3c30:	0d92      	lsrs	r2, r2, #22
    3c32:	469c      	mov	ip, r3
    3c34:	1c53      	adds	r3, r2, #1
    3c36:	9305      	str	r3, [sp, #20]
    3c38:	465b      	mov	r3, fp
    3c3a:	9303      	str	r3, [sp, #12]
    3c3c:	4b62      	ldr	r3, [pc, #392]	; (3dc8 <lfs_dir_traverse.constprop.33+0xc7c>)
    3c3e:	1aa9      	subs	r1, r5, r2
    3c40:	9302      	str	r3, [sp, #8]
    3c42:	2301      	movs	r3, #1
    3c44:	4461      	add	r1, ip
    3c46:	b209      	sxth	r1, r1
    3c48:	9106      	str	r1, [sp, #24]
    3c4a:	9204      	str	r2, [sp, #16]
    3c4c:	9001      	str	r0, [sp, #4]
    3c4e:	9000      	str	r0, [sp, #0]
    3c50:	425b      	negs	r3, r3
    3c52:	2200      	movs	r2, #0
    3c54:	a944      	add	r1, sp, #272	; 0x110
    3c56:	4650      	mov	r0, sl
    3c58:	f7fc fd8a 	bl	770 <lfs_dir_traverse>
    3c5c:	2800      	cmp	r0, #0
    3c5e:	d0c3      	beq.n	3be8 <lfs_dir_traverse.constprop.33+0xa9c>
    3c60:	46d3      	mov	fp, sl
    3c62:	46c2      	mov	sl, r8
    3c64:	e097      	b.n	3d96 <lfs_dir_traverse.constprop.33+0xc4a>
    3c66:	059a      	lsls	r2, r3, #22
    3c68:	0d92      	lsrs	r2, r2, #22
    3c6a:	d101      	bne.n	3c70 <lfs_dir_traverse.constprop.33+0xb24>
    3c6c:	f7ff fac8 	bl	3200 <lfs_dir_traverse.constprop.33+0xb4>
    3c70:	992d      	ldr	r1, [sp, #180]	; 0xb4
    3c72:	031b      	lsls	r3, r3, #12
    3c74:	468c      	mov	ip, r1
    3c76:	9955      	ldr	r1, [sp, #340]	; 0x154
    3c78:	0054      	lsls	r4, r2, #1
    3c7a:	0d9b      	lsrs	r3, r3, #22
    3c7c:	6808      	ldr	r0, [r1, #0]
    3c7e:	18a4      	adds	r4, r4, r2
    3c80:	9914      	ldr	r1, [sp, #80]	; 0x50
    3c82:	4463      	add	r3, ip
    3c84:	00a4      	lsls	r4, r4, #2
    3c86:	9e55      	ldr	r6, [sp, #340]	; 0x154
    3c88:	029b      	lsls	r3, r3, #10
    3c8a:	190c      	adds	r4, r1, r4
    3c8c:	25c0      	movs	r5, #192	; 0xc0
    3c8e:	00ad      	lsls	r5, r5, #2
    3c90:	46ac      	mov	ip, r5
    3c92:	780a      	ldrb	r2, [r1, #0]
    3c94:	688f      	ldr	r7, [r1, #8]
    3c96:	4462      	add	r2, ip
    3c98:	0512      	lsls	r2, r2, #20
    3c9a:	431f      	orrs	r7, r3
    3c9c:	4317      	orrs	r7, r2
    3c9e:	05ba      	lsls	r2, r7, #22
    3ca0:	1592      	asrs	r2, r2, #22
    3ca2:	3201      	adds	r2, #1
    3ca4:	4255      	negs	r5, r2
    3ca6:	416a      	adcs	r2, r5
    3ca8:	19d2      	adds	r2, r2, r7
    3caa:	0592      	lsls	r2, r2, #22
    3cac:	0d92      	lsrs	r2, r2, #22
    3cae:	3204      	adds	r2, #4
    3cb0:	1880      	adds	r0, r0, r2
    3cb2:	310c      	adds	r1, #12
    3cb4:	6030      	str	r0, [r6, #0]
    3cb6:	42a1      	cmp	r1, r4
    3cb8:	d1e8      	bne.n	3c8c <lfs_dir_traverse.constprop.33+0xb40>
    3cba:	f7ff faa1 	bl	3200 <lfs_dir_traverse.constprop.33+0xb4>
    3cbe:	0592      	lsls	r2, r2, #22
    3cc0:	0d92      	lsrs	r2, r2, #22
    3cc2:	d091      	beq.n	3be8 <lfs_dir_traverse.constprop.33+0xa9c>
    3cc4:	9b32      	ldr	r3, [sp, #200]	; 0xc8
    3cc6:	389a      	subs	r0, #154	; 0x9a
    3cc8:	469c      	mov	ip, r3
    3cca:	9b0d      	ldr	r3, [sp, #52]	; 0x34
    3ccc:	4463      	add	r3, ip
    3cce:	0299      	lsls	r1, r3, #10
    3cd0:	9b34      	ldr	r3, [sp, #208]	; 0xd0
    3cd2:	469c      	mov	ip, r3
    3cd4:	ab2a      	add	r3, sp, #168	; 0xa8
    3cd6:	181b      	adds	r3, r3, r0
    3cd8:	20c0      	movs	r0, #192	; 0xc0
    3cda:	0080      	lsls	r0, r0, #2
    3cdc:	4683      	mov	fp, r0
    3cde:	781b      	ldrb	r3, [r3, #0]
    3ce0:	9846      	ldr	r0, [sp, #280]	; 0x118
    3ce2:	445b      	add	r3, fp
    3ce4:	051b      	lsls	r3, r3, #20
    3ce6:	4303      	orrs	r3, r0
    3ce8:	900d      	str	r0, [sp, #52]	; 0x34
    3cea:	4660      	mov	r0, ip
    3cec:	430b      	orrs	r3, r1
    3cee:	4043      	eors	r3, r0
    3cf0:	4834      	ldr	r0, [pc, #208]	; (3dc4 <lfs_dir_traverse.constprop.33+0xc78>)
    3cf2:	4203      	tst	r3, r0
    3cf4:	d100      	bne.n	3cf8 <lfs_dir_traverse.constprop.33+0xbac>
    3cf6:	e6bb      	b.n	3a70 <lfs_dir_traverse.constprop.33+0x924>
    3cf8:	4663      	mov	r3, ip
    3cfa:	059b      	lsls	r3, r3, #22
    3cfc:	159b      	asrs	r3, r3, #22
    3cfe:	3301      	adds	r3, #1
    3d00:	d100      	bne.n	3d04 <lfs_dir_traverse.constprop.33+0xbb8>
    3d02:	e6b5      	b.n	3a70 <lfs_dir_traverse.constprop.33+0x924>
    3d04:	0053      	lsls	r3, r2, #1
    3d06:	189b      	adds	r3, r3, r2
    3d08:	009b      	lsls	r3, r3, #2
    3d0a:	001a      	movs	r2, r3
    3d0c:	ab44      	add	r3, sp, #272	; 0x110
    3d0e:	469b      	mov	fp, r3
    3d10:	9b1a      	ldr	r3, [sp, #104]	; 0x68
    3d12:	445a      	add	r2, fp
    3d14:	469b      	mov	fp, r3
    3d16:	0023      	movs	r3, r4
    3d18:	a847      	add	r0, sp, #284	; 0x11c
    3d1a:	960d      	str	r6, [sp, #52]	; 0x34
    3d1c:	4664      	mov	r4, ip
    3d1e:	9333      	str	r3, [sp, #204]	; 0xcc
    3d20:	4290      	cmp	r0, r2
    3d22:	d011      	beq.n	3d48 <lfs_dir_traverse.constprop.33+0xbfc>
    3d24:	26c0      	movs	r6, #192	; 0xc0
    3d26:	0005      	movs	r5, r0
    3d28:	00b6      	lsls	r6, r6, #2
    3d2a:	46b4      	mov	ip, r6
    3d2c:	7803      	ldrb	r3, [r0, #0]
    3d2e:	68ad      	ldr	r5, [r5, #8]
    3d30:	4463      	add	r3, ip
    3d32:	430d      	orrs	r5, r1
    3d34:	051b      	lsls	r3, r3, #20
    3d36:	432b      	orrs	r3, r5
    3d38:	4d22      	ldr	r5, [pc, #136]	; (3dc4 <lfs_dir_traverse.constprop.33+0xc78>)
    3d3a:	4063      	eors	r3, r4
    3d3c:	300c      	adds	r0, #12
    3d3e:	422b      	tst	r3, r5
    3d40:	d100      	bne.n	3d44 <lfs_dir_traverse.constprop.33+0xbf8>
    3d42:	e695      	b.n	3a70 <lfs_dir_traverse.constprop.33+0x924>
    3d44:	4290      	cmp	r0, r2
    3d46:	d1ed      	bne.n	3d24 <lfs_dir_traverse.constprop.33+0xbd8>
    3d48:	465b      	mov	r3, fp
    3d4a:	9e0d      	ldr	r6, [sp, #52]	; 0x34
    3d4c:	931a      	str	r3, [sp, #104]	; 0x68
    3d4e:	9c33      	ldr	r4, [sp, #204]	; 0xcc
    3d50:	e74a      	b.n	3be8 <lfs_dir_traverse.constprop.33+0xa9c>
    3d52:	0312      	lsls	r2, r2, #12
    3d54:	030c      	lsls	r4, r1, #12
    3d56:	0d92      	lsrs	r2, r2, #22
    3d58:	0da4      	lsrs	r4, r4, #22
    3d5a:	42a2      	cmp	r2, r4
    3d5c:	d900      	bls.n	3d60 <lfs_dir_traverse.constprop.33+0xc14>
    3d5e:	e606      	b.n	396e <lfs_dir_traverse.constprop.33+0x822>
    3d60:	b240      	sxtb	r0, r0
    3d62:	0280      	lsls	r0, r0, #10
    3d64:	1841      	adds	r1, r0, r1
    3d66:	9134      	str	r1, [sp, #208]	; 0xd0
    3d68:	e601      	b.n	396e <lfs_dir_traverse.constprop.33+0x822>
    3d6a:	2000      	movs	r0, #0
    3d6c:	f7ff fc1c 	bl	35a8 <lfs_dir_traverse.constprop.33+0x45c>
    3d70:	4666      	mov	r6, ip
    3d72:	f7ff fbfa 	bl	356a <lfs_dir_traverse.constprop.33+0x41e>
    3d76:	0312      	lsls	r2, r2, #12
    3d78:	0308      	lsls	r0, r1, #12
    3d7a:	0d92      	lsrs	r2, r2, #22
    3d7c:	0d80      	lsrs	r0, r0, #22
    3d7e:	4282      	cmp	r2, r0
    3d80:	d900      	bls.n	3d84 <lfs_dir_traverse.constprop.33+0xc38>
    3d82:	e731      	b.n	3be8 <lfs_dir_traverse.constprop.33+0xa9c>
    3d84:	b25b      	sxtb	r3, r3
    3d86:	029b      	lsls	r3, r3, #10
    3d88:	1859      	adds	r1, r3, r1
    3d8a:	9134      	str	r1, [sp, #208]	; 0xd0
    3d8c:	e72c      	b.n	3be8 <lfs_dir_traverse.constprop.33+0xa9c>
    3d8e:	4667      	mov	r7, ip
    3d90:	e4f0      	b.n	3774 <lfs_dir_traverse.constprop.33+0x628>
    3d92:	46bb      	mov	fp, r7
    3d94:	46ca      	mov	sl, r9
    3d96:	2800      	cmp	r0, #0
    3d98:	da01      	bge.n	3d9e <lfs_dir_traverse.constprop.33+0xc52>
    3d9a:	f7ff fc05 	bl	35a8 <lfs_dir_traverse.constprop.33+0x45c>
    3d9e:	f7ff fa2f 	bl	3200 <lfs_dir_traverse.constprop.33+0xb4>
    3da2:	4665      	mov	r5, ip
    3da4:	e5e3      	b.n	396e <lfs_dir_traverse.constprop.33+0x822>
    3da6:	46c3      	mov	fp, r8
    3da8:	46ca      	mov	sl, r9
    3daa:	e7f4      	b.n	3d96 <lfs_dir_traverse.constprop.33+0xc4a>
    3dac:	46b3      	mov	fp, r6
    3dae:	46c2      	mov	sl, r8
    3db0:	e7f1      	b.n	3d96 <lfs_dir_traverse.constprop.33+0xc4a>
    3db2:	46c0      	nop			; (mov r8, r8)
    3db4:	00000000 	.word	0x00000000
    3db8:	700ffc00 	.word	0x700ffc00
    3dbc:	000ffc00 	.word	0x000ffc00
    3dc0:	4ff00000 	.word	0x4ff00000
    3dc4:	7ffffc00 	.word	0x7ffffc00
    3dc8:	600ffc00 	.word	0x600ffc00

00003dcc <lfs_dir_compact>:
    3dcc:	b5f0      	push	{r4, r5, r6, r7, lr}
    3dce:	4645      	mov	r5, r8
    3dd0:	46de      	mov	lr, fp
    3dd2:	4657      	mov	r7, sl
    3dd4:	464e      	mov	r6, r9
    3dd6:	b5e0      	push	{r5, r6, r7, lr}
    3dd8:	b0d7      	sub	sp, #348	; 0x15c
    3dda:	930e      	str	r3, [sp, #56]	; 0x38
    3ddc:	ab60      	add	r3, sp, #384	; 0x180
    3dde:	920d      	str	r2, [sp, #52]	; 0x34
    3de0:	cb04      	ldmia	r3!, {r2}
    3de2:	4682      	mov	sl, r0
    3de4:	920c      	str	r2, [sp, #48]	; 0x30
    3de6:	881a      	ldrh	r2, [r3, #0]
    3de8:	ab62      	add	r3, sp, #392	; 0x188
    3dea:	881b      	ldrh	r3, [r3, #0]
    3dec:	468b      	mov	fp, r1
    3dee:	4698      	mov	r8, r3
    3df0:	680b      	ldr	r3, [r1, #0]
    3df2:	920b      	str	r2, [sp, #44]	; 0x2c
    3df4:	933b      	str	r3, [sp, #236]	; 0xec
    3df6:	684b      	ldr	r3, [r1, #4]
    3df8:	933c      	str	r3, [sp, #240]	; 0xf0
    3dfa:	4643      	mov	r3, r8
    3dfc:	1a9d      	subs	r5, r3, r2
    3dfe:	2d01      	cmp	r5, #1
    3e00:	dc00      	bgt.n	3e04 <lfs_dir_compact+0x38>
    3e02:	e398      	b.n	4536 <lfs_dir_compact+0x76a>
    3e04:	0007      	movs	r7, r0
    3e06:	46aa      	mov	sl, r5
    3e08:	4253      	negs	r3, r2
    3e0a:	b21b      	sxth	r3, r3
    3e0c:	9310      	str	r3, [sp, #64]	; 0x40
    3e0e:	ab4a      	add	r3, sp, #296	; 0x128
    3e10:	930f      	str	r3, [sp, #60]	; 0x3c
    3e12:	ae4e      	add	r6, sp, #312	; 0x138
    3e14:	9a0f      	ldr	r2, [sp, #60]	; 0x3c
    3e16:	2300      	movs	r3, #0
    3e18:	9205      	str	r2, [sp, #20]
    3e1a:	9a10      	ldr	r2, [sp, #64]	; 0x40
    3e1c:	934a      	str	r3, [sp, #296]	; 0x128
    3e1e:	9204      	str	r2, [sp, #16]
    3e20:	4642      	mov	r2, r8
    3e22:	9301      	str	r3, [sp, #4]
    3e24:	9203      	str	r2, [sp, #12]
    3e26:	4b9f      	ldr	r3, [pc, #636]	; (40a4 <lfs_dir_compact+0x2d8>)
    3e28:	9a0b      	ldr	r2, [sp, #44]	; 0x2c
    3e2a:	9300      	str	r3, [sp, #0]
    3e2c:	9202      	str	r2, [sp, #8]
    3e2e:	9b0e      	ldr	r3, [sp, #56]	; 0x38
    3e30:	9a0d      	ldr	r2, [sp, #52]	; 0x34
    3e32:	990c      	ldr	r1, [sp, #48]	; 0x30
    3e34:	0038      	movs	r0, r7
    3e36:	f7ff f989 	bl	314c <lfs_dir_traverse.constprop.33>
    3e3a:	2800      	cmp	r0, #0
    3e3c:	d000      	beq.n	3e40 <lfs_dir_compact+0x74>
    3e3e:	e0c0      	b.n	3fc2 <lfs_dir_compact+0x1f6>
    3e40:	4653      	mov	r3, sl
    3e42:	6ebd      	ldr	r5, [r7, #104]	; 0x68
    3e44:	2bfe      	cmp	r3, #254	; 0xfe
    3e46:	dc18      	bgt.n	3e7a <lfs_dir_compact+0xae>
    3e48:	2324      	movs	r3, #36	; 0x24
    3e4a:	425b      	negs	r3, r3
    3e4c:	4699      	mov	r9, r3
    3e4e:	69ec      	ldr	r4, [r5, #28]
    3e50:	6cab      	ldr	r3, [r5, #72]	; 0x48
    3e52:	44a1      	add	r9, r4
    3e54:	0864      	lsrs	r4, r4, #1
    3e56:	2b00      	cmp	r3, #0
    3e58:	d000      	beq.n	3e5c <lfs_dir_compact+0x90>
    3e5a:	085c      	lsrs	r4, r3, #1
    3e5c:	69ab      	ldr	r3, [r5, #24]
    3e5e:	1e59      	subs	r1, r3, #1
    3e60:	190c      	adds	r4, r1, r4
    3e62:	0020      	movs	r0, r4
    3e64:	0019      	movs	r1, r3
    3e66:	f7ff fffe 	bl	0 <__aeabi_uidivmod>
    3e6a:	1a64      	subs	r4, r4, r1
    3e6c:	454c      	cmp	r4, r9
    3e6e:	d900      	bls.n	3e72 <lfs_dir_compact+0xa6>
    3e70:	464c      	mov	r4, r9
    3e72:	9b4a      	ldr	r3, [sp, #296]	; 0x128
    3e74:	42a3      	cmp	r3, r4
    3e76:	d800      	bhi.n	3e7a <lfs_dir_compact+0xae>
    3e78:	e110      	b.n	409c <lfs_dir_compact+0x2d0>
    3e7a:	6a2b      	ldr	r3, [r5, #32]
    3e7c:	0031      	movs	r1, r6
    3e7e:	663b      	str	r3, [r7, #96]	; 0x60
    3e80:	0038      	movs	r0, r7
    3e82:	f7fe fc2f 	bl	26e4 <lfs_dir_alloc.part.26>
    3e86:	2800      	cmp	r0, #0
    3e88:	d045      	beq.n	3f16 <lfs_dir_compact+0x14a>
    3e8a:	0003      	movs	r3, r0
    3e8c:	0004      	movs	r4, r0
    3e8e:	46ba      	mov	sl, r7
    3e90:	331c      	adds	r3, #28
    3e92:	d138      	bne.n	3f06 <lfs_dir_compact+0x13a>
    3e94:	4653      	mov	r3, sl
    3e96:	6e9f      	ldr	r7, [r3, #104]	; 0x68
    3e98:	9a4a      	ldr	r2, [sp, #296]	; 0x128
    3e9a:	69fb      	ldr	r3, [r7, #28]
    3e9c:	3b24      	subs	r3, #36	; 0x24
    3e9e:	4293      	cmp	r3, r2
    3ea0:	d331      	bcc.n	3f06 <lfs_dir_compact+0x13a>
    3ea2:	46c1      	mov	r9, r8
    3ea4:	465b      	mov	r3, fp
    3ea6:	689b      	ldr	r3, [r3, #8]
    3ea8:	6a79      	ldr	r1, [r7, #36]	; 0x24
    3eaa:	1c58      	adds	r0, r3, #1
    3eac:	465b      	mov	r3, fp
    3eae:	6098      	str	r0, [r3, #8]
    3eb0:	2900      	cmp	r1, #0
    3eb2:	dd08      	ble.n	3ec6 <lfs_dir_compact+0xfa>
    3eb4:	2301      	movs	r3, #1
    3eb6:	3101      	adds	r1, #1
    3eb8:	4319      	orrs	r1, r3
    3eba:	f7ff fffe 	bl	0 <__aeabi_uidivmod>
    3ebe:	465b      	mov	r3, fp
    3ec0:	2900      	cmp	r1, #0
    3ec2:	d100      	bne.n	3ec6 <lfs_dir_compact+0xfa>
    3ec4:	e07f      	b.n	3fc6 <lfs_dir_compact+0x1fa>
    3ec6:	6859      	ldr	r1, [r3, #4]
    3ec8:	2300      	movs	r3, #0
    3eca:	9316      	str	r3, [sp, #88]	; 0x58
    3ecc:	ab4e      	add	r3, sp, #312	; 0x138
    3ece:	4698      	mov	r8, r3
    3ed0:	2300      	movs	r3, #0
    3ed2:	4642      	mov	r2, r8
    3ed4:	4640      	mov	r0, r8
    3ed6:	6053      	str	r3, [r2, #4]
    3ed8:	2201      	movs	r2, #1
    3eda:	6103      	str	r3, [r0, #16]
    3edc:	6cbb      	ldr	r3, [r7, #72]	; 0x48
    3ede:	4252      	negs	r2, r2
    3ee0:	914e      	str	r1, [sp, #312]	; 0x138
    3ee2:	6082      	str	r2, [r0, #8]
    3ee4:	60c2      	str	r2, [r0, #12]
    3ee6:	2b00      	cmp	r3, #0
    3ee8:	d100      	bne.n	3eec <lfs_dir_compact+0x120>
    3eea:	69fb      	ldr	r3, [r7, #28]
    3eec:	4642      	mov	r2, r8
    3eee:	3b08      	subs	r3, #8
    3ef0:	6153      	str	r3, [r2, #20]
    3ef2:	0038      	movs	r0, r7
    3ef4:	68fb      	ldr	r3, [r7, #12]
    3ef6:	4798      	blx	r3
    3ef8:	1e04      	subs	r4, r0, #0
    3efa:	d100      	bne.n	3efe <lfs_dir_compact+0x132>
    3efc:	e0dc      	b.n	40b8 <lfs_dir_compact+0x2ec>
    3efe:	0023      	movs	r3, r4
    3f00:	3354      	adds	r3, #84	; 0x54
    3f02:	d100      	bne.n	3f06 <lfs_dir_compact+0x13a>
    3f04:	e07f      	b.n	4006 <lfs_dir_compact+0x23a>
    3f06:	0020      	movs	r0, r4
    3f08:	b057      	add	sp, #348	; 0x15c
    3f0a:	bc3c      	pop	{r2, r3, r4, r5}
    3f0c:	4690      	mov	r8, r2
    3f0e:	4699      	mov	r9, r3
    3f10:	46a2      	mov	sl, r4
    3f12:	46ab      	mov	fp, r5
    3f14:	bdf0      	pop	{r4, r5, r6, r7, pc}
    3f16:	4653      	mov	r3, sl
    3f18:	105d      	asrs	r5, r3, #1
    3f1a:	9b0b      	ldr	r3, [sp, #44]	; 0x2c
    3f1c:	9a0d      	ldr	r2, [sp, #52]	; 0x34
    3f1e:	469c      	mov	ip, r3
    3f20:	465b      	mov	r3, fp
    3f22:	7ddb      	ldrb	r3, [r3, #23]
    3f24:	4465      	add	r5, ip
    3f26:	75f3      	strb	r3, [r6, #23]
    3f28:	465b      	mov	r3, fp
    3f2a:	699b      	ldr	r3, [r3, #24]
    3f2c:	b2ad      	uxth	r5, r5
    3f2e:	9354      	str	r3, [sp, #336]	; 0x150
    3f30:	465b      	mov	r3, fp
    3f32:	69db      	ldr	r3, [r3, #28]
    3f34:	0031      	movs	r1, r6
    3f36:	9355      	str	r3, [sp, #340]	; 0x154
    3f38:	4643      	mov	r3, r8
    3f3a:	9302      	str	r3, [sp, #8]
    3f3c:	9b0c      	ldr	r3, [sp, #48]	; 0x30
    3f3e:	9501      	str	r5, [sp, #4]
    3f40:	9300      	str	r3, [sp, #0]
    3f42:	0038      	movs	r0, r7
    3f44:	9b0e      	ldr	r3, [sp, #56]	; 0x38
    3f46:	f7ff ff41 	bl	3dcc <lfs_dir_compact>
    3f4a:	2800      	cmp	r0, #0
    3f4c:	d19d      	bne.n	3e8a <lfs_dir_compact+0xbe>
    3f4e:	465b      	mov	r3, fp
    3f50:	6831      	ldr	r1, [r6, #0]
    3f52:	6872      	ldr	r2, [r6, #4]
    3f54:	6199      	str	r1, [r3, #24]
    3f56:	61da      	str	r2, [r3, #28]
    3f58:	4658      	mov	r0, fp
    3f5a:	2301      	movs	r3, #1
    3f5c:	75c3      	strb	r3, [r0, #23]
    3f5e:	6803      	ldr	r3, [r0, #0]
    3f60:	6a38      	ldr	r0, [r7, #32]
    3f62:	4283      	cmp	r3, r0
    3f64:	d014      	beq.n	3f90 <lfs_dir_compact+0x1c4>
    3f66:	465c      	mov	r4, fp
    3f68:	6864      	ldr	r4, [r4, #4]
    3f6a:	46a4      	mov	ip, r4
    3f6c:	6a7c      	ldr	r4, [r7, #36]	; 0x24
    3f6e:	45a4      	cmp	ip, r4
    3f70:	d00e      	beq.n	3f90 <lfs_dir_compact+0x1c4>
    3f72:	42a3      	cmp	r3, r4
    3f74:	d00c      	beq.n	3f90 <lfs_dir_compact+0x1c4>
    3f76:	4560      	cmp	r0, ip
    3f78:	d00a      	beq.n	3f90 <lfs_dir_compact+0x1c4>
    3f7a:	9b0b      	ldr	r3, [sp, #44]	; 0x2c
    3f7c:	46a8      	mov	r8, r5
    3f7e:	1aeb      	subs	r3, r5, r3
    3f80:	469a      	mov	sl, r3
    3f82:	2b01      	cmp	r3, #1
    3f84:	dd00      	ble.n	3f88 <lfs_dir_compact+0x1bc>
    3f86:	e745      	b.n	3e14 <lfs_dir_compact+0x48>
    3f88:	46ba      	mov	sl, r7
    3f8a:	46a9      	mov	r9, r5
    3f8c:	6ebf      	ldr	r7, [r7, #104]	; 0x68
    3f8e:	e006      	b.n	3f9e <lfs_dir_compact+0x1d2>
    3f90:	2d00      	cmp	r5, #0
    3f92:	d1f2      	bne.n	3f7a <lfs_dir_compact+0x1ae>
    3f94:	46a9      	mov	r9, r5
    3f96:	46ba      	mov	sl, r7
    3f98:	6239      	str	r1, [r7, #32]
    3f9a:	627a      	str	r2, [r7, #36]	; 0x24
    3f9c:	6ebf      	ldr	r7, [r7, #104]	; 0x68
    3f9e:	465b      	mov	r3, fp
    3fa0:	689b      	ldr	r3, [r3, #8]
    3fa2:	6a79      	ldr	r1, [r7, #36]	; 0x24
    3fa4:	1c58      	adds	r0, r3, #1
    3fa6:	465b      	mov	r3, fp
    3fa8:	6098      	str	r0, [r3, #8]
    3faa:	2900      	cmp	r1, #0
    3fac:	dc00      	bgt.n	3fb0 <lfs_dir_compact+0x1e4>
    3fae:	e78a      	b.n	3ec6 <lfs_dir_compact+0xfa>
    3fb0:	2301      	movs	r3, #1
    3fb2:	3101      	adds	r1, #1
    3fb4:	4319      	orrs	r1, r3
    3fb6:	f7ff fffe 	bl	0 <__aeabi_uidivmod>
    3fba:	465b      	mov	r3, fp
    3fbc:	2900      	cmp	r1, #0
    3fbe:	d002      	beq.n	3fc6 <lfs_dir_compact+0x1fa>
    3fc0:	e781      	b.n	3ec6 <lfs_dir_compact+0xfa>
    3fc2:	0004      	movs	r4, r0
    3fc4:	e79f      	b.n	3f06 <lfs_dir_compact+0x13a>
    3fc6:	681b      	ldr	r3, [r3, #0]
    3fc8:	2b01      	cmp	r3, #1
    3fca:	d94d      	bls.n	4068 <lfs_dir_compact+0x29c>
    3fcc:	465b      	mov	r3, fp
    3fce:	685b      	ldr	r3, [r3, #4]
    3fd0:	2b01      	cmp	r3, #1
    3fd2:	d949      	bls.n	4068 <lfs_dir_compact+0x29c>
    3fd4:	2301      	movs	r3, #1
    3fd6:	4652      	mov	r2, sl
    3fd8:	425b      	negs	r3, r3
    3fda:	6113      	str	r3, [r2, #16]
    3fdc:	3302      	adds	r3, #2
    3fde:	9316      	str	r3, [sp, #88]	; 0x58
    3fe0:	e020      	b.n	4024 <lfs_dir_compact+0x258>
    3fe2:	465a      	mov	r2, fp
    3fe4:	464b      	mov	r3, r9
    3fe6:	6e92      	ldr	r2, [r2, #104]	; 0x68
    3fe8:	681b      	ldr	r3, [r3, #0]
    3fea:	6a11      	ldr	r1, [r2, #32]
    3fec:	428b      	cmp	r3, r1
    3fee:	d205      	bcs.n	3ffc <lfs_dir_compact+0x230>
    3ff0:	990f      	ldr	r1, [sp, #60]	; 0x3c
    3ff2:	69d2      	ldr	r2, [r2, #28]
    3ff4:	1d0c      	adds	r4, r1, #4
    3ff6:	4294      	cmp	r4, r2
    3ff8:	d800      	bhi.n	3ffc <lfs_dir_compact+0x230>
    3ffa:	e147      	b.n	428c <lfs_dir_compact+0x4c0>
    3ffc:	9b17      	ldr	r3, [sp, #92]	; 0x5c
    3ffe:	46da      	mov	sl, fp
    4000:	4699      	mov	r9, r3
    4002:	9b19      	ldr	r3, [sp, #100]	; 0x64
    4004:	469b      	mov	fp, r3
    4006:	2301      	movs	r3, #1
    4008:	4652      	mov	r2, sl
    400a:	425b      	negs	r3, r3
    400c:	6113      	str	r3, [r2, #16]
    400e:	4b26      	ldr	r3, [pc, #152]	; (40a8 <lfs_dir_compact+0x2dc>)
    4010:	4a26      	ldr	r2, [pc, #152]	; (40ac <lfs_dir_compact+0x2e0>)
    4012:	9300      	str	r3, [sp, #0]
    4014:	465b      	mov	r3, fp
    4016:	4926      	ldr	r1, [pc, #152]	; (40b0 <lfs_dir_compact+0x2e4>)
    4018:	685b      	ldr	r3, [r3, #4]
    401a:	4826      	ldr	r0, [pc, #152]	; (40b4 <lfs_dir_compact+0x2e8>)
    401c:	f7ff fffe 	bl	0 <printf>
    4020:	2300      	movs	r3, #0
    4022:	9316      	str	r3, [sp, #88]	; 0x58
    4024:	465a      	mov	r2, fp
    4026:	465b      	mov	r3, fp
    4028:	6812      	ldr	r2, [r2, #0]
    402a:	685b      	ldr	r3, [r3, #4]
    402c:	2a01      	cmp	r2, #1
    402e:	d800      	bhi.n	4032 <lfs_dir_compact+0x266>
    4030:	e0f6      	b.n	4220 <lfs_dir_compact+0x454>
    4032:	2b01      	cmp	r3, #1
    4034:	d800      	bhi.n	4038 <lfs_dir_compact+0x26c>
    4036:	e0f3      	b.n	4220 <lfs_dir_compact+0x454>
    4038:	465b      	mov	r3, fp
    403a:	4650      	mov	r0, sl
    403c:	1d19      	adds	r1, r3, #4
    403e:	f7fd ffff 	bl	2040 <lfs_alloc>
    4042:	1e04      	subs	r4, r0, #0
    4044:	d101      	bne.n	404a <lfs_dir_compact+0x27e>
    4046:	f000 fe7f 	bl	4d48 <lfs_dir_compact+0xf7c>
    404a:	0003      	movs	r3, r0
    404c:	331c      	adds	r3, #28
    404e:	d000      	beq.n	4052 <lfs_dir_compact+0x286>
    4050:	e759      	b.n	3f06 <lfs_dir_compact+0x13a>
    4052:	9b16      	ldr	r3, [sp, #88]	; 0x58
    4054:	2b00      	cmp	r3, #0
    4056:	d100      	bne.n	405a <lfs_dir_compact+0x28e>
    4058:	e755      	b.n	3f06 <lfs_dir_compact+0x13a>
    405a:	465b      	mov	r3, fp
    405c:	6859      	ldr	r1, [r3, #4]
    405e:	4653      	mov	r3, sl
    4060:	6e9f      	ldr	r7, [r3, #104]	; 0x68
    4062:	ab4e      	add	r3, sp, #312	; 0x138
    4064:	4698      	mov	r8, r3
    4066:	e733      	b.n	3ed0 <lfs_dir_compact+0x104>
    4068:	2300      	movs	r3, #0
    406a:	934e      	str	r3, [sp, #312]	; 0x138
    406c:	ab4e      	add	r3, sp, #312	; 0x138
    406e:	0019      	movs	r1, r3
    4070:	4650      	mov	r0, sl
    4072:	4698      	mov	r8, r3
    4074:	f7fd fcd0 	bl	1a18 <lfs_fs_rawtraverse.constprop.37>
    4078:	1e04      	subs	r4, r0, #0
    407a:	d100      	bne.n	407e <lfs_dir_compact+0x2b2>
    407c:	9c4e      	ldr	r4, [sp, #312]	; 0x138
    407e:	2c00      	cmp	r4, #0
    4080:	da00      	bge.n	4084 <lfs_dir_compact+0x2b8>
    4082:	e740      	b.n	3f06 <lfs_dir_compact+0x13a>
    4084:	4653      	mov	r3, sl
    4086:	6e9f      	ldr	r7, [r3, #104]	; 0x68
    4088:	6a3b      	ldr	r3, [r7, #32]
    408a:	085b      	lsrs	r3, r3, #1
    408c:	42a3      	cmp	r3, r4
    408e:	d900      	bls.n	4092 <lfs_dir_compact+0x2c6>
    4090:	e172      	b.n	4378 <lfs_dir_compact+0x5ac>
    4092:	465b      	mov	r3, fp
    4094:	6859      	ldr	r1, [r3, #4]
    4096:	2300      	movs	r3, #0
    4098:	9316      	str	r3, [sp, #88]	; 0x58
    409a:	e719      	b.n	3ed0 <lfs_dir_compact+0x104>
    409c:	46ba      	mov	sl, r7
    409e:	46c1      	mov	r9, r8
    40a0:	002f      	movs	r7, r5
    40a2:	e6ff      	b.n	3ea4 <lfs_dir_compact+0xd8>
    40a4:	400ffc00 	.word	0x400ffc00
    40a8:	00000074 	.word	0x00000074
    40ac:	000006fe 	.word	0x000006fe
    40b0:	00000000 	.word	0x00000000
    40b4:	000000a8 	.word	0x000000a8
    40b8:	465a      	mov	r2, fp
    40ba:	2304      	movs	r3, #4
    40bc:	3208      	adds	r2, #8
    40be:	4641      	mov	r1, r8
    40c0:	4650      	mov	r0, sl
    40c2:	f7fc fd51 	bl	b68 <lfs_dir_commitprog>
    40c6:	1e04      	subs	r4, r0, #0
    40c8:	d000      	beq.n	40cc <lfs_dir_compact+0x300>
    40ca:	e718      	b.n	3efe <lfs_dir_compact+0x132>
    40cc:	9b0b      	ldr	r3, [sp, #44]	; 0x2c
    40ce:	4652      	mov	r2, sl
    40d0:	425b      	negs	r3, r3
    40d2:	b21b      	sxth	r3, r3
    40d4:	9324      	str	r3, [sp, #144]	; 0x90
    40d6:	029b      	lsls	r3, r3, #10
    40d8:	931d      	str	r3, [sp, #116]	; 0x74
    40da:	9b0e      	ldr	r3, [sp, #56]	; 0x38
    40dc:	923d      	str	r2, [sp, #244]	; 0xf4
    40de:	9311      	str	r3, [sp, #68]	; 0x44
    40e0:	9b0d      	ldr	r3, [sp, #52]	; 0x34
    40e2:	4642      	mov	r2, r8
    40e4:	9313      	str	r3, [sp, #76]	; 0x4c
    40e6:	2301      	movs	r3, #1
    40e8:	425b      	negs	r3, r3
    40ea:	9310      	str	r3, [sp, #64]	; 0x40
    40ec:	2300      	movs	r3, #0
    40ee:	9312      	str	r3, [sp, #72]	; 0x48
    40f0:	465b      	mov	r3, fp
    40f2:	46cb      	mov	fp, r9
    40f4:	923e      	str	r2, [sp, #248]	; 0xf8
    40f6:	9319      	str	r3, [sp, #100]	; 0x64
    40f8:	9228      	str	r2, [sp, #160]	; 0xa0
    40fa:	9a10      	ldr	r2, [sp, #64]	; 0x40
    40fc:	0595      	lsls	r5, r2, #22
    40fe:	15ad      	asrs	r5, r5, #22
    4100:	3501      	adds	r5, #1
    4102:	426b      	negs	r3, r5
    4104:	415d      	adcs	r5, r3
    4106:	4694      	mov	ip, r2
    4108:	9b12      	ldr	r3, [sp, #72]	; 0x48
    410a:	4465      	add	r5, ip
    410c:	05ad      	lsls	r5, r5, #22
    410e:	3304      	adds	r3, #4
    4110:	0dad      	lsrs	r5, r5, #22
    4112:	18ed      	adds	r5, r5, r3
    4114:	9b0c      	ldr	r3, [sp, #48]	; 0x30
    4116:	68db      	ldr	r3, [r3, #12]
    4118:	930f      	str	r3, [sp, #60]	; 0x3c
    411a:	429d      	cmp	r5, r3
    411c:	d34e      	bcc.n	41bc <lfs_dir_compact+0x3f0>
    411e:	9a11      	ldr	r2, [sp, #68]	; 0x44
    4120:	2a00      	cmp	r2, #0
    4122:	dc00      	bgt.n	4126 <lfs_dir_compact+0x35a>
    4124:	e20a      	b.n	453c <lfs_dir_compact+0x770>
    4126:	9b13      	ldr	r3, [sp, #76]	; 0x4c
    4128:	3a01      	subs	r2, #1
    412a:	6859      	ldr	r1, [r3, #4]
    412c:	681c      	ldr	r4, [r3, #0]
    412e:	4689      	mov	r9, r1
    4130:	3308      	adds	r3, #8
    4132:	9436      	str	r4, [sp, #216]	; 0xd8
    4134:	9313      	str	r3, [sp, #76]	; 0x4c
    4136:	9211      	str	r2, [sp, #68]	; 0x44
    4138:	2380      	movs	r3, #128	; 0x80
    413a:	05db      	lsls	r3, r3, #23
    413c:	401c      	ands	r4, r3
    413e:	d1dc      	bne.n	40fa <lfs_dir_compact+0x32e>
    4140:	ab36      	add	r3, sp, #216	; 0xd8
    4142:	9308      	str	r3, [sp, #32]
    4144:	4b9d      	ldr	r3, [pc, #628]	; (43bc <lfs_dir_compact+0x5f0>)
    4146:	9406      	str	r4, [sp, #24]
    4148:	9307      	str	r3, [sp, #28]
    414a:	9b11      	ldr	r3, [sp, #68]	; 0x44
    414c:	9405      	str	r4, [sp, #20]
    414e:	9301      	str	r3, [sp, #4]
    4150:	9b13      	ldr	r3, [sp, #76]	; 0x4c
    4152:	9404      	str	r4, [sp, #16]
    4154:	9300      	str	r3, [sp, #0]
    4156:	9403      	str	r4, [sp, #12]
    4158:	9402      	str	r4, [sp, #8]
    415a:	9b10      	ldr	r3, [sp, #64]	; 0x40
    415c:	9a12      	ldr	r2, [sp, #72]	; 0x48
    415e:	990c      	ldr	r1, [sp, #48]	; 0x30
    4160:	4650      	mov	r0, sl
    4162:	f7fc fb05 	bl	770 <lfs_dir_traverse>
    4166:	2800      	cmp	r0, #0
    4168:	db23      	blt.n	41b2 <lfs_dir_compact+0x3e6>
    416a:	d1c6      	bne.n	40fa <lfs_dir_compact+0x32e>
    416c:	9a36      	ldr	r2, [sp, #216]	; 0xd8
    416e:	990b      	ldr	r1, [sp, #44]	; 0x2c
    4170:	0a93      	lsrs	r3, r2, #10
    4172:	059d      	lsls	r5, r3, #22
    4174:	0dad      	lsrs	r5, r5, #22
    4176:	42a9      	cmp	r1, r5
    4178:	d8bf      	bhi.n	40fa <lfs_dir_compact+0x32e>
    417a:	45ab      	cmp	fp, r5
    417c:	d9bd      	bls.n	40fa <lfs_dir_compact+0x32e>
    417e:	0051      	lsls	r1, r2, #1
    4180:	0d49      	lsrs	r1, r1, #21
    4182:	d0ba      	beq.n	40fa <lfs_dir_compact+0x32e>
    4184:	2002      	movs	r0, #2
    4186:	30ff      	adds	r0, #255	; 0xff
    4188:	4281      	cmp	r1, r0
    418a:	d053      	beq.n	4234 <lfs_dir_compact+0x468>
    418c:	2081      	movs	r0, #129	; 0x81
    418e:	0040      	lsls	r0, r0, #1
    4190:	4281      	cmp	r1, r0
    4192:	d100      	bne.n	4196 <lfs_dir_compact+0x3ca>
    4194:	e296      	b.n	46c4 <lfs_dir_compact+0x8f8>
    4196:	9b1d      	ldr	r3, [sp, #116]	; 0x74
    4198:	469c      	mov	ip, r3
    419a:	9b3e      	ldr	r3, [sp, #248]	; 0xf8
    419c:	4462      	add	r2, ip
    419e:	930f      	str	r3, [sp, #60]	; 0x3c
    41a0:	9b3d      	ldr	r3, [sp, #244]	; 0xf4
    41a2:	990f      	ldr	r1, [sp, #60]	; 0x3c
    41a4:	9314      	str	r3, [sp, #80]	; 0x50
    41a6:	9814      	ldr	r0, [sp, #80]	; 0x50
    41a8:	464b      	mov	r3, r9
    41aa:	f7fc fd63 	bl	c74 <lfs_dir_commitattr>
    41ae:	2800      	cmp	r0, #0
    41b0:	d0a3      	beq.n	40fa <lfs_dir_compact+0x32e>
    41b2:	9b19      	ldr	r3, [sp, #100]	; 0x64
    41b4:	46d9      	mov	r9, fp
    41b6:	0004      	movs	r4, r0
    41b8:	469b      	mov	fp, r3
    41ba:	e6a0      	b.n	3efe <lfs_dir_compact+0x132>
    41bc:	4653      	mov	r3, sl
    41be:	4650      	mov	r0, sl
    41c0:	9e0c      	ldr	r6, [sp, #48]	; 0x30
    41c2:	6e9b      	ldr	r3, [r3, #104]	; 0x68
    41c4:	6832      	ldr	r2, [r6, #0]
    41c6:	6a19      	ldr	r1, [r3, #32]
    41c8:	3068      	adds	r0, #104	; 0x68
    41ca:	428a      	cmp	r2, r1
    41cc:	d301      	bcc.n	41d2 <lfs_dir_compact+0x406>
    41ce:	f000 fd2d 	bl	4c2c <lfs_dir_compact+0xe60>
    41d2:	69db      	ldr	r3, [r3, #28]
    41d4:	1d2c      	adds	r4, r5, #4
    41d6:	429c      	cmp	r4, r3
    41d8:	d901      	bls.n	41de <lfs_dir_compact+0x412>
    41da:	f000 fd27 	bl	4c2c <lfs_dir_compact+0xe60>
    41de:	2304      	movs	r3, #4
    41e0:	9303      	str	r3, [sp, #12]
    41e2:	ab36      	add	r3, sp, #216	; 0xd8
    41e4:	9302      	str	r3, [sp, #8]
    41e6:	9200      	str	r2, [sp, #0]
    41e8:	9501      	str	r5, [sp, #4]
    41ea:	2304      	movs	r3, #4
    41ec:	4652      	mov	r2, sl
    41ee:	2100      	movs	r1, #0
    41f0:	f7fb ffd6 	bl	1a0 <lfs_bd_read.isra.21.part.22>
    41f4:	2800      	cmp	r0, #0
    41f6:	d1dc      	bne.n	41b2 <lfs_dir_compact+0x3e6>
    41f8:	9b36      	ldr	r3, [sp, #216]	; 0xd8
    41fa:	9a10      	ldr	r2, [sp, #64]	; 0x40
    41fc:	ba1b      	rev	r3, r3
    41fe:	405a      	eors	r2, r3
    4200:	0013      	movs	r3, r2
    4202:	2280      	movs	r2, #128	; 0x80
    4204:	0612      	lsls	r2, r2, #24
    4206:	431a      	orrs	r2, r3
    4208:	0013      	movs	r3, r2
    420a:	9210      	str	r2, [sp, #64]	; 0x40
    420c:	9236      	str	r2, [sp, #216]	; 0xd8
    420e:	6832      	ldr	r2, [r6, #0]
    4210:	9440      	str	r4, [sp, #256]	; 0x100
    4212:	001c      	movs	r4, r3
    4214:	ab3f      	add	r3, sp, #252	; 0xfc
    4216:	920f      	str	r2, [sp, #60]	; 0x3c
    4218:	923f      	str	r2, [sp, #252]	; 0xfc
    421a:	9512      	str	r5, [sp, #72]	; 0x48
    421c:	4699      	mov	r9, r3
    421e:	e78b      	b.n	4138 <lfs_dir_compact+0x36c>
    4220:	241c      	movs	r4, #28
    4222:	4a67      	ldr	r2, [pc, #412]	; (43c0 <lfs_dir_compact+0x5f4>)
    4224:	4967      	ldr	r1, [pc, #412]	; (43c4 <lfs_dir_compact+0x5f8>)
    4226:	9200      	str	r2, [sp, #0]
    4228:	4867      	ldr	r0, [pc, #412]	; (43c8 <lfs_dir_compact+0x5fc>)
    422a:	4a68      	ldr	r2, [pc, #416]	; (43cc <lfs_dir_compact+0x600>)
    422c:	f7ff fffe 	bl	0 <printf>
    4230:	4264      	negs	r4, r4
    4232:	e668      	b.n	3f06 <lfs_dir_compact+0x13a>
    4234:	0592      	lsls	r2, r2, #22
    4236:	0d93      	lsrs	r3, r2, #22
    4238:	1c5a      	adds	r2, r3, #1
    423a:	9222      	str	r2, [sp, #136]	; 0x88
    423c:	9a0b      	ldr	r2, [sp, #44]	; 0x2c
    423e:	9321      	str	r3, [sp, #132]	; 0x84
    4240:	1aeb      	subs	r3, r5, r3
    4242:	1a9b      	subs	r3, r3, r2
    4244:	b29b      	uxth	r3, r3
    4246:	932b      	str	r3, [sp, #172]	; 0xac
    4248:	b21b      	sxth	r3, r3
    424a:	932c      	str	r3, [sp, #176]	; 0xb0
    424c:	029b      	lsls	r3, r3, #10
    424e:	931f      	str	r3, [sp, #124]	; 0x7c
    4250:	464b      	mov	r3, r9
    4252:	68db      	ldr	r3, [r3, #12]
    4254:	2b04      	cmp	r3, #4
    4256:	d800      	bhi.n	425a <lfs_dir_compact+0x48e>
    4258:	e74f      	b.n	40fa <lfs_dir_compact+0x32e>
    425a:	2268      	movs	r2, #104	; 0x68
    425c:	4452      	add	r2, sl
    425e:	9218      	str	r2, [sp, #96]	; 0x60
    4260:	4652      	mov	r2, sl
    4262:	464b      	mov	r3, r9
    4264:	6e92      	ldr	r2, [r2, #104]	; 0x68
    4266:	681b      	ldr	r3, [r3, #0]
    4268:	6a11      	ldr	r1, [r2, #32]
    426a:	4299      	cmp	r1, r3
    426c:	d801      	bhi.n	4272 <lfs_dir_compact+0x4a6>
    426e:	f000 fcdd 	bl	4c2c <lfs_dir_compact+0xe60>
    4272:	69d2      	ldr	r2, [r2, #28]
    4274:	2a07      	cmp	r2, #7
    4276:	d801      	bhi.n	427c <lfs_dir_compact+0x4b0>
    4278:	f000 fcd8 	bl	4c2c <lfs_dir_compact+0xe60>
    427c:	2204      	movs	r2, #4
    427e:	4659      	mov	r1, fp
    4280:	920f      	str	r2, [sp, #60]	; 0x3c
    4282:	3a05      	subs	r2, #5
    4284:	46d3      	mov	fp, sl
    4286:	4692      	mov	sl, r2
    4288:	3408      	adds	r4, #8
    428a:	9117      	str	r1, [sp, #92]	; 0x5c
    428c:	2204      	movs	r2, #4
    428e:	9d0f      	ldr	r5, [sp, #60]	; 0x3c
    4290:	9203      	str	r2, [sp, #12]
    4292:	aa37      	add	r2, sp, #220	; 0xdc
    4294:	9202      	str	r2, [sp, #8]
    4296:	9300      	str	r3, [sp, #0]
    4298:	9501      	str	r5, [sp, #4]
    429a:	2304      	movs	r3, #4
    429c:	465a      	mov	r2, fp
    429e:	2100      	movs	r1, #0
    42a0:	9818      	ldr	r0, [sp, #96]	; 0x60
    42a2:	f7fb ff7d 	bl	1a0 <lfs_bd_read.isra.21.part.22>
    42a6:	2800      	cmp	r0, #0
    42a8:	d000      	beq.n	42ac <lfs_dir_compact+0x4e0>
    42aa:	e33d      	b.n	4928 <lfs_dir_compact+0xb5c>
    42ac:	4651      	mov	r1, sl
    42ae:	2280      	movs	r2, #128	; 0x80
    42b0:	9b37      	ldr	r3, [sp, #220]	; 0xdc
    42b2:	0612      	lsls	r2, r2, #24
    42b4:	ba1b      	rev	r3, r3
    42b6:	404b      	eors	r3, r1
    42b8:	431a      	orrs	r2, r3
    42ba:	464b      	mov	r3, r9
    42bc:	681b      	ldr	r3, [r3, #0]
    42be:	9442      	str	r4, [sp, #264]	; 0x108
    42c0:	2480      	movs	r4, #128	; 0x80
    42c2:	9341      	str	r3, [sp, #260]	; 0x104
    42c4:	23c0      	movs	r3, #192	; 0xc0
    42c6:	05a4      	lsls	r4, r4, #22
    42c8:	4054      	eors	r4, r2
    42ca:	05db      	lsls	r3, r3, #23
    42cc:	4692      	mov	sl, r2
    42ce:	9237      	str	r2, [sp, #220]	; 0xdc
    42d0:	401c      	ands	r4, r3
    42d2:	d139      	bne.n	4348 <lfs_dir_compact+0x57c>
    42d4:	ab37      	add	r3, sp, #220	; 0xdc
    42d6:	9308      	str	r3, [sp, #32]
    42d8:	4b38      	ldr	r3, [pc, #224]	; (43bc <lfs_dir_compact+0x5f0>)
    42da:	9406      	str	r4, [sp, #24]
    42dc:	9307      	str	r3, [sp, #28]
    42de:	9405      	str	r4, [sp, #20]
    42e0:	0013      	movs	r3, r2
    42e2:	9404      	str	r4, [sp, #16]
    42e4:	9403      	str	r4, [sp, #12]
    42e6:	9402      	str	r4, [sp, #8]
    42e8:	9401      	str	r4, [sp, #4]
    42ea:	9400      	str	r4, [sp, #0]
    42ec:	002a      	movs	r2, r5
    42ee:	4649      	mov	r1, r9
    42f0:	4658      	mov	r0, fp
    42f2:	f7fc fa3d 	bl	770 <lfs_dir_traverse>
    42f6:	2800      	cmp	r0, #0
    42f8:	da00      	bge.n	42fc <lfs_dir_compact+0x530>
    42fa:	e315      	b.n	4928 <lfs_dir_compact+0xb5c>
    42fc:	d124      	bne.n	4348 <lfs_dir_compact+0x57c>
    42fe:	9a37      	ldr	r2, [sp, #220]	; 0xdc
    4300:	9921      	ldr	r1, [sp, #132]	; 0x84
    4302:	0a93      	lsrs	r3, r2, #10
    4304:	059d      	lsls	r5, r3, #22
    4306:	0dad      	lsrs	r5, r5, #22
    4308:	42a9      	cmp	r1, r5
    430a:	d81d      	bhi.n	4348 <lfs_dir_compact+0x57c>
    430c:	9922      	ldr	r1, [sp, #136]	; 0x88
    430e:	42a9      	cmp	r1, r5
    4310:	d91a      	bls.n	4348 <lfs_dir_compact+0x57c>
    4312:	0051      	lsls	r1, r2, #1
    4314:	0d49      	lsrs	r1, r1, #21
    4316:	d017      	beq.n	4348 <lfs_dir_compact+0x57c>
    4318:	2002      	movs	r0, #2
    431a:	30ff      	adds	r0, #255	; 0xff
    431c:	4281      	cmp	r1, r0
    431e:	d059      	beq.n	43d4 <lfs_dir_compact+0x608>
    4320:	2081      	movs	r0, #129	; 0x81
    4322:	0040      	lsls	r0, r0, #1
    4324:	4281      	cmp	r1, r0
    4326:	d100      	bne.n	432a <lfs_dir_compact+0x55e>
    4328:	e2d6      	b.n	48d8 <lfs_dir_compact+0xb0c>
    432a:	9b1f      	ldr	r3, [sp, #124]	; 0x7c
    432c:	469c      	mov	ip, r3
    432e:	9b3e      	ldr	r3, [sp, #248]	; 0xf8
    4330:	4462      	add	r2, ip
    4332:	9314      	str	r3, [sp, #80]	; 0x50
    4334:	9b3d      	ldr	r3, [sp, #244]	; 0xf4
    4336:	9914      	ldr	r1, [sp, #80]	; 0x50
    4338:	9315      	str	r3, [sp, #84]	; 0x54
    433a:	9815      	ldr	r0, [sp, #84]	; 0x54
    433c:	ab41      	add	r3, sp, #260	; 0x104
    433e:	f7fc fc99 	bl	c74 <lfs_dir_commitattr>
    4342:	2800      	cmp	r0, #0
    4344:	d000      	beq.n	4348 <lfs_dir_compact+0x57c>
    4346:	e2ef      	b.n	4928 <lfs_dir_compact+0xb5c>
    4348:	4653      	mov	r3, sl
    434a:	059b      	lsls	r3, r3, #22
    434c:	159b      	asrs	r3, r3, #22
    434e:	3301      	adds	r3, #1
    4350:	425a      	negs	r2, r3
    4352:	4153      	adcs	r3, r2
    4354:	9a0f      	ldr	r2, [sp, #60]	; 0x3c
    4356:	4453      	add	r3, sl
    4358:	4694      	mov	ip, r2
    435a:	059b      	lsls	r3, r3, #22
    435c:	0d9b      	lsrs	r3, r3, #22
    435e:	3304      	adds	r3, #4
    4360:	464a      	mov	r2, r9
    4362:	449c      	add	ip, r3
    4364:	4663      	mov	r3, ip
    4366:	68d2      	ldr	r2, [r2, #12]
    4368:	930f      	str	r3, [sp, #60]	; 0x3c
    436a:	4293      	cmp	r3, r2
    436c:	d200      	bcs.n	4370 <lfs_dir_compact+0x5a4>
    436e:	e638      	b.n	3fe2 <lfs_dir_compact+0x216>
    4370:	9b17      	ldr	r3, [sp, #92]	; 0x5c
    4372:	46da      	mov	sl, fp
    4374:	469b      	mov	fp, r3
    4376:	e6c0      	b.n	40fa <lfs_dir_compact+0x32e>
    4378:	4b11      	ldr	r3, [pc, #68]	; (43c0 <lfs_dir_compact+0x5f4>)
    437a:	22cd      	movs	r2, #205	; 0xcd
    437c:	9300      	str	r3, [sp, #0]
    437e:	465b      	mov	r3, fp
    4380:	00d2      	lsls	r2, r2, #3
    4382:	689b      	ldr	r3, [r3, #8]
    4384:	490f      	ldr	r1, [pc, #60]	; (43c4 <lfs_dir_compact+0x5f8>)
    4386:	4812      	ldr	r0, [pc, #72]	; (43d0 <lfs_dir_compact+0x604>)
    4388:	f7ff fffe 	bl	0 <printf>
    438c:	4653      	mov	r3, sl
    438e:	4652      	mov	r2, sl
    4390:	6e9b      	ldr	r3, [r3, #104]	; 0x68
    4392:	4641      	mov	r1, r8
    4394:	6a1b      	ldr	r3, [r3, #32]
    4396:	4650      	mov	r0, sl
    4398:	6613      	str	r3, [r2, #96]	; 0x60
    439a:	f7fe f9a3 	bl	26e4 <lfs_dir_alloc.part.26>
    439e:	1e04      	subs	r4, r0, #0
    43a0:	d100      	bne.n	43a4 <lfs_dir_compact+0x5d8>
    43a2:	e2c9      	b.n	4938 <lfs_dir_compact+0xb6c>
    43a4:	0023      	movs	r3, r4
    43a6:	331c      	adds	r3, #28
    43a8:	d000      	beq.n	43ac <lfs_dir_compact+0x5e0>
    43aa:	e5ac      	b.n	3f06 <lfs_dir_compact+0x13a>
    43ac:	465b      	mov	r3, fp
    43ae:	6859      	ldr	r1, [r3, #4]
    43b0:	4653      	mov	r3, sl
    43b2:	6e9f      	ldr	r7, [r3, #104]	; 0x68
    43b4:	2300      	movs	r3, #0
    43b6:	9316      	str	r3, [sp, #88]	; 0x58
    43b8:	e58a      	b.n	3ed0 <lfs_dir_compact+0x104>
    43ba:	46c0      	nop			; (mov r8, r8)
    43bc:	00000000 	.word	0x00000000
    43c0:	00000074 	.word	0x00000074
    43c4:	00000000 	.word	0x00000000
    43c8:	000000fc 	.word	0x000000fc
    43cc:	00000704 	.word	0x00000704
    43d0:	000000cc 	.word	0x000000cc
    43d4:	0592      	lsls	r2, r2, #22
    43d6:	0d93      	lsrs	r3, r2, #22
    43d8:	1c5a      	adds	r2, r3, #1
    43da:	922a      	str	r2, [sp, #168]	; 0xa8
    43dc:	9a2b      	ldr	r2, [sp, #172]	; 0xac
    43de:	9325      	str	r3, [sp, #148]	; 0x94
    43e0:	4694      	mov	ip, r2
    43e2:	1aeb      	subs	r3, r5, r3
    43e4:	4463      	add	r3, ip
    43e6:	b29b      	uxth	r3, r3
    43e8:	932d      	str	r3, [sp, #180]	; 0xb4
    43ea:	b21b      	sxth	r3, r3
    43ec:	9331      	str	r3, [sp, #196]	; 0xc4
    43ee:	029b      	lsls	r3, r3, #10
    43f0:	9323      	str	r3, [sp, #140]	; 0x8c
    43f2:	9b44      	ldr	r3, [sp, #272]	; 0x110
    43f4:	9314      	str	r3, [sp, #80]	; 0x50
    43f6:	2b04      	cmp	r3, #4
    43f8:	d9a6      	bls.n	4348 <lfs_dir_compact+0x57c>
    43fa:	465a      	mov	r2, fp
    43fc:	6e92      	ldr	r2, [r2, #104]	; 0x68
    43fe:	9b41      	ldr	r3, [sp, #260]	; 0x104
    4400:	6a11      	ldr	r1, [r2, #32]
    4402:	4299      	cmp	r1, r3
    4404:	d800      	bhi.n	4408 <lfs_dir_compact+0x63c>
    4406:	e5f9      	b.n	3ffc <lfs_dir_compact+0x230>
    4408:	69d2      	ldr	r2, [r2, #28]
    440a:	2a07      	cmp	r2, #7
    440c:	d800      	bhi.n	4410 <lfs_dir_compact+0x644>
    440e:	e5f5      	b.n	3ffc <lfs_dir_compact+0x230>
    4410:	2204      	movs	r2, #4
    4412:	9214      	str	r2, [sp, #80]	; 0x50
    4414:	3a05      	subs	r2, #5
    4416:	4690      	mov	r8, r2
    4418:	464a      	mov	r2, r9
    441a:	921a      	str	r2, [sp, #104]	; 0x68
    441c:	4652      	mov	r2, sl
    441e:	4647      	mov	r7, r8
    4420:	46d8      	mov	r8, fp
    4422:	3408      	adds	r4, #8
    4424:	921b      	str	r2, [sp, #108]	; 0x6c
    4426:	2204      	movs	r2, #4
    4428:	9d14      	ldr	r5, [sp, #80]	; 0x50
    442a:	9203      	str	r2, [sp, #12]
    442c:	aa38      	add	r2, sp, #224	; 0xe0
    442e:	9202      	str	r2, [sp, #8]
    4430:	9300      	str	r3, [sp, #0]
    4432:	9501      	str	r5, [sp, #4]
    4434:	2304      	movs	r3, #4
    4436:	4642      	mov	r2, r8
    4438:	2100      	movs	r1, #0
    443a:	9818      	ldr	r0, [sp, #96]	; 0x60
    443c:	f7fb feb0 	bl	1a0 <lfs_bd_read.isra.21.part.22>
    4440:	2800      	cmp	r0, #0
    4442:	d000      	beq.n	4446 <lfs_dir_compact+0x67a>
    4444:	e387      	b.n	4b56 <lfs_dir_compact+0xd8a>
    4446:	9b38      	ldr	r3, [sp, #224]	; 0xe0
    4448:	2280      	movs	r2, #128	; 0x80
    444a:	ba1b      	rev	r3, r3
    444c:	405f      	eors	r7, r3
    444e:	ae43      	add	r6, sp, #268	; 0x10c
    4450:	9b41      	ldr	r3, [sp, #260]	; 0x104
    4452:	6074      	str	r4, [r6, #4]
    4454:	2480      	movs	r4, #128	; 0x80
    4456:	9315      	str	r3, [sp, #84]	; 0x54
    4458:	9343      	str	r3, [sp, #268]	; 0x10c
    445a:	23c0      	movs	r3, #192	; 0xc0
    445c:	0612      	lsls	r2, r2, #24
    445e:	4317      	orrs	r7, r2
    4460:	05a4      	lsls	r4, r4, #22
    4462:	407c      	eors	r4, r7
    4464:	05db      	lsls	r3, r3, #23
    4466:	9738      	str	r7, [sp, #224]	; 0xe0
    4468:	401c      	ands	r4, r3
    446a:	d13a      	bne.n	44e2 <lfs_dir_compact+0x716>
    446c:	ab38      	add	r3, sp, #224	; 0xe0
    446e:	9308      	str	r3, [sp, #32]
    4470:	4ba9      	ldr	r3, [pc, #676]	; (4718 <lfs_dir_compact+0x94c>)
    4472:	9406      	str	r4, [sp, #24]
    4474:	9307      	str	r3, [sp, #28]
    4476:	9405      	str	r4, [sp, #20]
    4478:	9404      	str	r4, [sp, #16]
    447a:	9403      	str	r4, [sp, #12]
    447c:	9402      	str	r4, [sp, #8]
    447e:	9401      	str	r4, [sp, #4]
    4480:	9400      	str	r4, [sp, #0]
    4482:	003b      	movs	r3, r7
    4484:	002a      	movs	r2, r5
    4486:	a941      	add	r1, sp, #260	; 0x104
    4488:	4640      	mov	r0, r8
    448a:	f7fc f971 	bl	770 <lfs_dir_traverse>
    448e:	2800      	cmp	r0, #0
    4490:	da00      	bge.n	4494 <lfs_dir_compact+0x6c8>
    4492:	e360      	b.n	4b56 <lfs_dir_compact+0xd8a>
    4494:	d125      	bne.n	44e2 <lfs_dir_compact+0x716>
    4496:	9a38      	ldr	r2, [sp, #224]	; 0xe0
    4498:	9925      	ldr	r1, [sp, #148]	; 0x94
    449a:	0a93      	lsrs	r3, r2, #10
    449c:	0598      	lsls	r0, r3, #22
    449e:	0d80      	lsrs	r0, r0, #22
    44a0:	4281      	cmp	r1, r0
    44a2:	d81e      	bhi.n	44e2 <lfs_dir_compact+0x716>
    44a4:	992a      	ldr	r1, [sp, #168]	; 0xa8
    44a6:	4281      	cmp	r1, r0
    44a8:	d91b      	bls.n	44e2 <lfs_dir_compact+0x716>
    44aa:	0051      	lsls	r1, r2, #1
    44ac:	0d49      	lsrs	r1, r1, #21
    44ae:	d018      	beq.n	44e2 <lfs_dir_compact+0x716>
    44b0:	2502      	movs	r5, #2
    44b2:	35ff      	adds	r5, #255	; 0xff
    44b4:	42a9      	cmp	r1, r5
    44b6:	d100      	bne.n	44ba <lfs_dir_compact+0x6ee>
    44b8:	e13e      	b.n	4738 <lfs_dir_compact+0x96c>
    44ba:	2081      	movs	r0, #129	; 0x81
    44bc:	0040      	lsls	r0, r0, #1
    44be:	4281      	cmp	r1, r0
    44c0:	d100      	bne.n	44c4 <lfs_dir_compact+0x6f8>
    44c2:	e31e      	b.n	4b02 <lfs_dir_compact+0xd36>
    44c4:	9b23      	ldr	r3, [sp, #140]	; 0x8c
    44c6:	469c      	mov	ip, r3
    44c8:	9b3e      	ldr	r3, [sp, #248]	; 0xf8
    44ca:	4462      	add	r2, ip
    44cc:	9315      	str	r3, [sp, #84]	; 0x54
    44ce:	9b3d      	ldr	r3, [sp, #244]	; 0xf4
    44d0:	9915      	ldr	r1, [sp, #84]	; 0x54
    44d2:	931c      	str	r3, [sp, #112]	; 0x70
    44d4:	981c      	ldr	r0, [sp, #112]	; 0x70
    44d6:	0033      	movs	r3, r6
    44d8:	f7fc fbcc 	bl	c74 <lfs_dir_commitattr>
    44dc:	2800      	cmp	r0, #0
    44de:	d000      	beq.n	44e2 <lfs_dir_compact+0x716>
    44e0:	e339      	b.n	4b56 <lfs_dir_compact+0xd8a>
    44e2:	05bb      	lsls	r3, r7, #22
    44e4:	159b      	asrs	r3, r3, #22
    44e6:	3301      	adds	r3, #1
    44e8:	425a      	negs	r2, r3
    44ea:	4153      	adcs	r3, r2
    44ec:	9a14      	ldr	r2, [sp, #80]	; 0x50
    44ee:	19db      	adds	r3, r3, r7
    44f0:	4694      	mov	ip, r2
    44f2:	059b      	lsls	r3, r3, #22
    44f4:	0d9b      	lsrs	r3, r3, #22
    44f6:	3304      	adds	r3, #4
    44f8:	449c      	add	ip, r3
    44fa:	4663      	mov	r3, ip
    44fc:	9a44      	ldr	r2, [sp, #272]	; 0x110
    44fe:	9314      	str	r3, [sp, #80]	; 0x50
    4500:	9215      	str	r2, [sp, #84]	; 0x54
    4502:	4293      	cmp	r3, r2
    4504:	d305      	bcc.n	4512 <lfs_dir_compact+0x746>
    4506:	9b1a      	ldr	r3, [sp, #104]	; 0x68
    4508:	46c3      	mov	fp, r8
    450a:	4699      	mov	r9, r3
    450c:	9b1b      	ldr	r3, [sp, #108]	; 0x6c
    450e:	469a      	mov	sl, r3
    4510:	e71a      	b.n	4348 <lfs_dir_compact+0x57c>
    4512:	4642      	mov	r2, r8
    4514:	6e92      	ldr	r2, [r2, #104]	; 0x68
    4516:	9b41      	ldr	r3, [sp, #260]	; 0x104
    4518:	6a11      	ldr	r1, [r2, #32]
    451a:	428b      	cmp	r3, r1
    451c:	d205      	bcs.n	452a <lfs_dir_compact+0x75e>
    451e:	9914      	ldr	r1, [sp, #80]	; 0x50
    4520:	69d2      	ldr	r2, [r2, #28]
    4522:	1d0c      	adds	r4, r1, #4
    4524:	4294      	cmp	r4, r2
    4526:	d800      	bhi.n	452a <lfs_dir_compact+0x75e>
    4528:	e77d      	b.n	4426 <lfs_dir_compact+0x65a>
    452a:	9b17      	ldr	r3, [sp, #92]	; 0x5c
    452c:	46c2      	mov	sl, r8
    452e:	4699      	mov	r9, r3
    4530:	9b19      	ldr	r3, [sp, #100]	; 0x64
    4532:	469b      	mov	fp, r3
    4534:	e567      	b.n	4006 <lfs_dir_compact+0x23a>
    4536:	6e87      	ldr	r7, [r0, #104]	; 0x68
    4538:	46c1      	mov	r9, r8
    453a:	e530      	b.n	3f9e <lfs_dir_compact+0x1d2>
    453c:	9b19      	ldr	r3, [sp, #100]	; 0x64
    453e:	46d9      	mov	r9, fp
    4540:	469b      	mov	fp, r3
    4542:	9b28      	ldr	r3, [sp, #160]	; 0xa0
    4544:	4698      	mov	r8, r3
    4546:	465b      	mov	r3, fp
    4548:	699b      	ldr	r3, [r3, #24]
    454a:	3301      	adds	r3, #1
    454c:	d015      	beq.n	457a <lfs_dir_compact+0x7ae>
    454e:	465b      	mov	r3, fp
    4550:	69db      	ldr	r3, [r3, #28]
    4552:	3301      	adds	r3, #1
    4554:	d011      	beq.n	457a <lfs_dir_compact+0x7ae>
    4556:	465b      	mov	r3, fp
    4558:	7dda      	ldrb	r2, [r3, #23]
    455a:	23c0      	movs	r3, #192	; 0xc0
    455c:	00db      	lsls	r3, r3, #3
    455e:	469c      	mov	ip, r3
    4560:	4b6e      	ldr	r3, [pc, #440]	; (471c <lfs_dir_compact+0x950>)
    4562:	4462      	add	r2, ip
    4564:	0512      	lsls	r2, r2, #20
    4566:	431a      	orrs	r2, r3
    4568:	465b      	mov	r3, fp
    456a:	4641      	mov	r1, r8
    456c:	3318      	adds	r3, #24
    456e:	4650      	mov	r0, sl
    4570:	f7fc fb80 	bl	c74 <lfs_dir_commitattr>
    4574:	1e04      	subs	r4, r0, #0
    4576:	d000      	beq.n	457a <lfs_dir_compact+0x7ae>
    4578:	e4c1      	b.n	3efe <lfs_dir_compact+0x132>
    457a:	ae46      	add	r6, sp, #280	; 0x118
    457c:	220c      	movs	r2, #12
    457e:	2100      	movs	r1, #0
    4580:	0030      	movs	r0, r6
    4582:	f7ff fffe 	bl	0 <memset>
    4586:	9b16      	ldr	r3, [sp, #88]	; 0x58
    4588:	2b00      	cmp	r3, #0
    458a:	d000      	beq.n	458e <lfs_dir_compact+0x7c2>
    458c:	e30c      	b.n	4ba8 <lfs_dir_compact+0xddc>
    458e:	4652      	mov	r2, sl
    4590:	6b13      	ldr	r3, [r2, #48]	; 0x30
    4592:	6bd2      	ldr	r2, [r2, #60]	; 0x3c
    4594:	4650      	mov	r0, sl
    4596:	4053      	eors	r3, r2
    4598:	4652      	mov	r2, sl
    459a:	6b51      	ldr	r1, [r2, #52]	; 0x34
    459c:	6c12      	ldr	r2, [r2, #64]	; 0x40
    459e:	4051      	eors	r1, r2
    45a0:	6c42      	ldr	r2, [r0, #68]	; 0x44
    45a2:	6b80      	ldr	r0, [r0, #56]	; 0x38
    45a4:	4042      	eors	r2, r0
    45a6:	4650      	mov	r0, sl
    45a8:	6c80      	ldr	r0, [r0, #72]	; 0x48
    45aa:	4043      	eors	r3, r0
    45ac:	4650      	mov	r0, sl
    45ae:	6cc0      	ldr	r0, [r0, #76]	; 0x4c
    45b0:	0a9b      	lsrs	r3, r3, #10
    45b2:	4041      	eors	r1, r0
    45b4:	029b      	lsls	r3, r3, #10
    45b6:	9147      	str	r1, [sp, #284]	; 0x11c
    45b8:	9346      	str	r3, [sp, #280]	; 0x118
    45ba:	4651      	mov	r1, sl
    45bc:	230c      	movs	r3, #12
    45be:	6d09      	ldr	r1, [r1, #80]	; 0x50
    45c0:	9302      	str	r3, [sp, #8]
    45c2:	ab4a      	add	r3, sp, #296	; 0x128
    45c4:	930f      	str	r3, [sp, #60]	; 0x3c
    45c6:	9301      	str	r3, [sp, #4]
    45c8:	2300      	movs	r3, #0
    45ca:	404a      	eors	r2, r1
    45cc:	9248      	str	r2, [sp, #288]	; 0x120
    45ce:	9300      	str	r3, [sp, #0]
    45d0:	4a53      	ldr	r2, [pc, #332]	; (4720 <lfs_dir_compact+0x954>)
    45d2:	4b54      	ldr	r3, [pc, #336]	; (4724 <lfs_dir_compact+0x958>)
    45d4:	4659      	mov	r1, fp
    45d6:	4650      	mov	r0, sl
    45d8:	f7fc ff7a 	bl	14d0 <lfs_dir_getslice>
    45dc:	1e04      	subs	r4, r0, #0
    45de:	da00      	bge.n	45e2 <lfs_dir_compact+0x816>
    45e0:	e2e6      	b.n	4bb0 <lfs_dir_compact+0xde4>
    45e2:	9a46      	ldr	r2, [sp, #280]	; 0x118
    45e4:	9b4a      	ldr	r3, [sp, #296]	; 0x128
    45e6:	994b      	ldr	r1, [sp, #300]	; 0x12c
    45e8:	4053      	eors	r3, r2
    45ea:	9a47      	ldr	r2, [sp, #284]	; 0x11c
    45ec:	9848      	ldr	r0, [sp, #288]	; 0x120
    45ee:	404a      	eors	r2, r1
    45f0:	994c      	ldr	r1, [sp, #304]	; 0x130
    45f2:	9346      	str	r3, [sp, #280]	; 0x118
    45f4:	4041      	eors	r1, r0
    45f6:	9247      	str	r2, [sp, #284]	; 0x11c
    45f8:	9148      	str	r1, [sp, #288]	; 0x120
    45fa:	430b      	orrs	r3, r1
    45fc:	4313      	orrs	r3, r2
    45fe:	d000      	beq.n	4602 <lfs_dir_compact+0x836>
    4600:	e37d      	b.n	4cfe <lfs_dir_compact+0xf32>
    4602:	4641      	mov	r1, r8
    4604:	4650      	mov	r0, sl
    4606:	f7fd fb7b 	bl	1d00 <lfs_dir_commitcrc>
    460a:	1e04      	subs	r4, r0, #0
    460c:	d000      	beq.n	4610 <lfs_dir_compact+0x844>
    460e:	e476      	b.n	3efe <lfs_dir_compact+0x132>
    4610:	465b      	mov	r3, fp
    4612:	681d      	ldr	r5, [r3, #0]
    4614:	685f      	ldr	r7, [r3, #4]
    4616:	605d      	str	r5, [r3, #4]
    4618:	601f      	str	r7, [r3, #0]
    461a:	464b      	mov	r3, r9
    461c:	9a0b      	ldr	r2, [sp, #44]	; 0x2c
    461e:	4650      	mov	r0, sl
    4620:	1a9b      	subs	r3, r3, r2
    4622:	465a      	mov	r2, fp
    4624:	8293      	strh	r3, [r2, #20]
    4626:	4642      	mov	r2, r8
    4628:	465b      	mov	r3, fp
    462a:	6852      	ldr	r2, [r2, #4]
    462c:	2100      	movs	r1, #0
    462e:	60da      	str	r2, [r3, #12]
    4630:	4642      	mov	r2, r8
    4632:	6892      	ldr	r2, [r2, #8]
    4634:	3048      	adds	r0, #72	; 0x48
    4636:	611a      	str	r2, [r3, #16]
    4638:	220c      	movs	r2, #12
    463a:	f7ff fffe 	bl	0 <memset>
    463e:	9b16      	ldr	r3, [sp, #88]	; 0x58
    4640:	2b00      	cmp	r3, #0
    4642:	d100      	bne.n	4646 <lfs_dir_compact+0x87a>
    4644:	e353      	b.n	4cee <lfs_dir_compact+0xf22>
    4646:	4b38      	ldr	r3, [pc, #224]	; (4728 <lfs_dir_compact+0x95c>)
    4648:	4a38      	ldr	r2, [pc, #224]	; (472c <lfs_dir_compact+0x960>)
    464a:	9303      	str	r3, [sp, #12]
    464c:	4699      	mov	r9, r3
    464e:	9b3c      	ldr	r3, [sp, #240]	; 0xf0
    4650:	9502      	str	r5, [sp, #8]
    4652:	930b      	str	r3, [sp, #44]	; 0x2c
    4654:	9300      	str	r3, [sp, #0]
    4656:	9701      	str	r7, [sp, #4]
    4658:	9b3b      	ldr	r3, [sp, #236]	; 0xec
    465a:	4935      	ldr	r1, [pc, #212]	; (4730 <lfs_dir_compact+0x964>)
    465c:	4835      	ldr	r0, [pc, #212]	; (4734 <lfs_dir_compact+0x968>)
    465e:	f7ff fffe 	bl	0 <printf>
    4662:	4653      	mov	r3, sl
    4664:	9a3b      	ldr	r2, [sp, #236]	; 0xec
    4666:	6a1b      	ldr	r3, [r3, #32]
    4668:	429a      	cmp	r2, r3
    466a:	d100      	bne.n	466e <lfs_dir_compact+0x8a2>
    466c:	e3bd      	b.n	4dea <lfs_dir_compact+0x101e>
    466e:	4650      	mov	r0, sl
    4670:	993c      	ldr	r1, [sp, #240]	; 0xf0
    4672:	6a40      	ldr	r0, [r0, #36]	; 0x24
    4674:	4281      	cmp	r1, r0
    4676:	d100      	bne.n	467a <lfs_dir_compact+0x8ae>
    4678:	e3b7      	b.n	4dea <lfs_dir_compact+0x101e>
    467a:	4282      	cmp	r2, r0
    467c:	d100      	bne.n	4680 <lfs_dir_compact+0x8b4>
    467e:	e3b4      	b.n	4dea <lfs_dir_compact+0x101e>
    4680:	428b      	cmp	r3, r1
    4682:	d100      	bne.n	4686 <lfs_dir_compact+0x8ba>
    4684:	e3b1      	b.n	4dea <lfs_dir_compact+0x101e>
    4686:	4653      	mov	r3, sl
    4688:	6a9b      	ldr	r3, [r3, #40]	; 0x28
    468a:	2b00      	cmp	r3, #0
    468c:	d100      	bne.n	4690 <lfs_dir_compact+0x8c4>
    468e:	e2e3      	b.n	4c58 <lfs_dir_compact+0xe8c>
    4690:	993c      	ldr	r1, [sp, #240]	; 0xf0
    4692:	4658      	mov	r0, fp
    4694:	e00e      	b.n	46b4 <lfs_dir_compact+0x8e8>
    4696:	68df      	ldr	r7, [r3, #12]
    4698:	42b9      	cmp	r1, r7
    469a:	d00e      	beq.n	46ba <lfs_dir_compact+0x8ee>
    469c:	42ba      	cmp	r2, r7
    469e:	d00c      	beq.n	46ba <lfs_dir_compact+0x8ee>
    46a0:	428d      	cmp	r5, r1
    46a2:	d00a      	beq.n	46ba <lfs_dir_compact+0x8ee>
    46a4:	799d      	ldrb	r5, [r3, #6]
    46a6:	2d02      	cmp	r5, #2
    46a8:	d100      	bne.n	46ac <lfs_dir_compact+0x8e0>
    46aa:	e2c4      	b.n	4c36 <lfs_dir_compact+0xe6a>
    46ac:	681b      	ldr	r3, [r3, #0]
    46ae:	2b00      	cmp	r3, #0
    46b0:	d100      	bne.n	46b4 <lfs_dir_compact+0x8e8>
    46b2:	e2d0      	b.n	4c56 <lfs_dir_compact+0xe8a>
    46b4:	689d      	ldr	r5, [r3, #8]
    46b6:	42aa      	cmp	r2, r5
    46b8:	d1ed      	bne.n	4696 <lfs_dir_compact+0x8ca>
    46ba:	6805      	ldr	r5, [r0, #0]
    46bc:	609d      	str	r5, [r3, #8]
    46be:	6845      	ldr	r5, [r0, #4]
    46c0:	60dd      	str	r5, [r3, #12]
    46c2:	e7ef      	b.n	46a4 <lfs_dir_compact+0x8d8>
    46c4:	0592      	lsls	r2, r2, #22
    46c6:	d100      	bne.n	46ca <lfs_dir_compact+0x8fe>
    46c8:	e517      	b.n	40fa <lfs_dir_compact+0x32e>
    46ca:	464d      	mov	r5, r9
    46cc:	9e24      	ldr	r6, [sp, #144]	; 0x90
    46ce:	001a      	movs	r2, r3
    46d0:	e008      	b.n	46e4 <lfs_dir_compact+0x918>
    46d2:	9b36      	ldr	r3, [sp, #216]	; 0xd8
    46d4:	3401      	adds	r4, #1
    46d6:	059a      	lsls	r2, r3, #22
    46d8:	350c      	adds	r5, #12
    46da:	0d92      	lsrs	r2, r2, #22
    46dc:	4294      	cmp	r4, r2
    46de:	d300      	bcc.n	46e2 <lfs_dir_compact+0x916>
    46e0:	e50b      	b.n	40fa <lfs_dir_compact+0x32e>
    46e2:	0a9a      	lsrs	r2, r3, #10
    46e4:	21c0      	movs	r1, #192	; 0xc0
    46e6:	0089      	lsls	r1, r1, #2
    46e8:	468c      	mov	ip, r1
    46ea:	0592      	lsls	r2, r2, #22
    46ec:	0d92      	lsrs	r2, r2, #22
    46ee:	68ab      	ldr	r3, [r5, #8]
    46f0:	1992      	adds	r2, r2, r6
    46f2:	0292      	lsls	r2, r2, #10
    46f4:	431a      	orrs	r2, r3
    46f6:	782b      	ldrb	r3, [r5, #0]
    46f8:	4463      	add	r3, ip
    46fa:	051b      	lsls	r3, r3, #20
    46fc:	431a      	orrs	r2, r3
    46fe:	9b3e      	ldr	r3, [sp, #248]	; 0xf8
    4700:	930f      	str	r3, [sp, #60]	; 0x3c
    4702:	9b3d      	ldr	r3, [sp, #244]	; 0xf4
    4704:	990f      	ldr	r1, [sp, #60]	; 0x3c
    4706:	9314      	str	r3, [sp, #80]	; 0x50
    4708:	9814      	ldr	r0, [sp, #80]	; 0x50
    470a:	686b      	ldr	r3, [r5, #4]
    470c:	f7fc fab2 	bl	c74 <lfs_dir_commitattr>
    4710:	2800      	cmp	r0, #0
    4712:	d0de      	beq.n	46d2 <lfs_dir_compact+0x906>
    4714:	e54d      	b.n	41b2 <lfs_dir_compact+0x3e6>
    4716:	46c0      	nop			; (mov r8, r8)
    4718:	00000000 	.word	0x00000000
    471c:	000ffc08 	.word	0x000ffc08
    4720:	7ff00000 	.word	0x7ff00000
    4724:	7ff0000c 	.word	0x7ff0000c
    4728:	00000074 	.word	0x00000074
    472c:	00000716 	.word	0x00000716
    4730:	00000000 	.word	0x00000000
    4734:	00000178 	.word	0x00000178
    4738:	0592      	lsls	r2, r2, #22
    473a:	0d93      	lsrs	r3, r2, #22
    473c:	1c5a      	adds	r2, r3, #1
    473e:	922e      	str	r2, [sp, #184]	; 0xb8
    4740:	9a2d      	ldr	r2, [sp, #180]	; 0xb4
    4742:	9329      	str	r3, [sp, #164]	; 0xa4
    4744:	4694      	mov	ip, r2
    4746:	1ac3      	subs	r3, r0, r3
    4748:	4463      	add	r3, ip
    474a:	b29b      	uxth	r3, r3
    474c:	9332      	str	r3, [sp, #200]	; 0xc8
    474e:	b21b      	sxth	r3, r3
    4750:	9333      	str	r3, [sp, #204]	; 0xcc
    4752:	029b      	lsls	r3, r3, #10
    4754:	9327      	str	r3, [sp, #156]	; 0x9c
    4756:	68f3      	ldr	r3, [r6, #12]
    4758:	2b04      	cmp	r3, #4
    475a:	d800      	bhi.n	475e <lfs_dir_compact+0x992>
    475c:	e6c1      	b.n	44e2 <lfs_dir_compact+0x716>
    475e:	4642      	mov	r2, r8
    4760:	6e92      	ldr	r2, [r2, #104]	; 0x68
    4762:	6833      	ldr	r3, [r6, #0]
    4764:	6a11      	ldr	r1, [r2, #32]
    4766:	4299      	cmp	r1, r3
    4768:	d800      	bhi.n	476c <lfs_dir_compact+0x9a0>
    476a:	e6de      	b.n	452a <lfs_dir_compact+0x75e>
    476c:	69d2      	ldr	r2, [r2, #28]
    476e:	2a07      	cmp	r2, #7
    4770:	d800      	bhi.n	4774 <lfs_dir_compact+0x9a8>
    4772:	e6da      	b.n	452a <lfs_dir_compact+0x75e>
    4774:	2204      	movs	r2, #4
    4776:	4693      	mov	fp, r2
    4778:	3a05      	subs	r2, #5
    477a:	0015      	movs	r5, r2
    477c:	46c2      	mov	sl, r8
    477e:	46b1      	mov	r9, r6
    4780:	3408      	adds	r4, #8
    4782:	9715      	str	r7, [sp, #84]	; 0x54
    4784:	2204      	movs	r2, #4
    4786:	9203      	str	r2, [sp, #12]
    4788:	aa39      	add	r2, sp, #228	; 0xe4
    478a:	9202      	str	r2, [sp, #8]
    478c:	465a      	mov	r2, fp
    478e:	9300      	str	r3, [sp, #0]
    4790:	9201      	str	r2, [sp, #4]
    4792:	2304      	movs	r3, #4
    4794:	4652      	mov	r2, sl
    4796:	2100      	movs	r1, #0
    4798:	9818      	ldr	r0, [sp, #96]	; 0x60
    479a:	f7fb fd01 	bl	1a0 <lfs_bd_read.isra.21.part.22>
    479e:	2800      	cmp	r0, #0
    47a0:	d000      	beq.n	47a4 <lfs_dir_compact+0x9d8>
    47a2:	e092      	b.n	48ca <lfs_dir_compact+0xafe>
    47a4:	9b39      	ldr	r3, [sp, #228]	; 0xe4
    47a6:	af46      	add	r7, sp, #280	; 0x118
    47a8:	ba1b      	rev	r3, r3
    47aa:	405d      	eors	r5, r3
    47ac:	2380      	movs	r3, #128	; 0x80
    47ae:	061b      	lsls	r3, r3, #24
    47b0:	431d      	orrs	r5, r3
    47b2:	464b      	mov	r3, r9
    47b4:	681b      	ldr	r3, [r3, #0]
    47b6:	607c      	str	r4, [r7, #4]
    47b8:	2480      	movs	r4, #128	; 0x80
    47ba:	9346      	str	r3, [sp, #280]	; 0x118
    47bc:	23c0      	movs	r3, #192	; 0xc0
    47be:	05a4      	lsls	r4, r4, #22
    47c0:	406c      	eors	r4, r5
    47c2:	05db      	lsls	r3, r3, #23
    47c4:	9539      	str	r5, [sp, #228]	; 0xe4
    47c6:	401c      	ands	r4, r3
    47c8:	d137      	bne.n	483a <lfs_dir_compact+0xa6e>
    47ca:	ab39      	add	r3, sp, #228	; 0xe4
    47cc:	9308      	str	r3, [sp, #32]
    47ce:	4bd0      	ldr	r3, [pc, #832]	; (4b10 <lfs_dir_compact+0xd44>)
    47d0:	9406      	str	r4, [sp, #24]
    47d2:	9307      	str	r3, [sp, #28]
    47d4:	9405      	str	r4, [sp, #20]
    47d6:	9404      	str	r4, [sp, #16]
    47d8:	9403      	str	r4, [sp, #12]
    47da:	9402      	str	r4, [sp, #8]
    47dc:	9401      	str	r4, [sp, #4]
    47de:	9400      	str	r4, [sp, #0]
    47e0:	002b      	movs	r3, r5
    47e2:	465a      	mov	r2, fp
    47e4:	4649      	mov	r1, r9
    47e6:	4650      	mov	r0, sl
    47e8:	f7fb ffc2 	bl	770 <lfs_dir_traverse>
    47ec:	2800      	cmp	r0, #0
    47ee:	db6c      	blt.n	48ca <lfs_dir_compact+0xafe>
    47f0:	d123      	bne.n	483a <lfs_dir_compact+0xa6e>
    47f2:	9a39      	ldr	r2, [sp, #228]	; 0xe4
    47f4:	9929      	ldr	r1, [sp, #164]	; 0xa4
    47f6:	0a93      	lsrs	r3, r2, #10
    47f8:	0598      	lsls	r0, r3, #22
    47fa:	0d80      	lsrs	r0, r0, #22
    47fc:	4281      	cmp	r1, r0
    47fe:	d81c      	bhi.n	483a <lfs_dir_compact+0xa6e>
    4800:	992e      	ldr	r1, [sp, #184]	; 0xb8
    4802:	4281      	cmp	r1, r0
    4804:	d919      	bls.n	483a <lfs_dir_compact+0xa6e>
    4806:	0051      	lsls	r1, r2, #1
    4808:	0d49      	lsrs	r1, r1, #21
    480a:	d016      	beq.n	483a <lfs_dir_compact+0xa6e>
    480c:	2602      	movs	r6, #2
    480e:	36ff      	adds	r6, #255	; 0xff
    4810:	42b1      	cmp	r1, r6
    4812:	d100      	bne.n	4816 <lfs_dir_compact+0xa4a>
    4814:	e0cf      	b.n	49b6 <lfs_dir_compact+0xbea>
    4816:	2081      	movs	r0, #129	; 0x81
    4818:	0040      	lsls	r0, r0, #1
    481a:	4281      	cmp	r1, r0
    481c:	d030      	beq.n	4880 <lfs_dir_compact+0xab4>
    481e:	9b27      	ldr	r3, [sp, #156]	; 0x9c
    4820:	469c      	mov	ip, r3
    4822:	9b3e      	ldr	r3, [sp, #248]	; 0xf8
    4824:	4462      	add	r2, ip
    4826:	931c      	str	r3, [sp, #112]	; 0x70
    4828:	9b3d      	ldr	r3, [sp, #244]	; 0xf4
    482a:	991c      	ldr	r1, [sp, #112]	; 0x70
    482c:	931e      	str	r3, [sp, #120]	; 0x78
    482e:	981e      	ldr	r0, [sp, #120]	; 0x78
    4830:	003b      	movs	r3, r7
    4832:	f7fc fa1f 	bl	c74 <lfs_dir_commitattr>
    4836:	2800      	cmp	r0, #0
    4838:	d147      	bne.n	48ca <lfs_dir_compact+0xafe>
    483a:	05ab      	lsls	r3, r5, #22
    483c:	159b      	asrs	r3, r3, #22
    483e:	3301      	adds	r3, #1
    4840:	425a      	negs	r2, r3
    4842:	4153      	adcs	r3, r2
    4844:	195b      	adds	r3, r3, r5
    4846:	059b      	lsls	r3, r3, #22
    4848:	0d9b      	lsrs	r3, r3, #22
    484a:	3304      	adds	r3, #4
    484c:	449b      	add	fp, r3
    484e:	464b      	mov	r3, r9
    4850:	68db      	ldr	r3, [r3, #12]
    4852:	459b      	cmp	fp, r3
    4854:	d302      	bcc.n	485c <lfs_dir_compact+0xa90>
    4856:	9f15      	ldr	r7, [sp, #84]	; 0x54
    4858:	46d0      	mov	r8, sl
    485a:	e642      	b.n	44e2 <lfs_dir_compact+0x716>
    485c:	4652      	mov	r2, sl
    485e:	464b      	mov	r3, r9
    4860:	6e92      	ldr	r2, [r2, #104]	; 0x68
    4862:	681b      	ldr	r3, [r3, #0]
    4864:	6a11      	ldr	r1, [r2, #32]
    4866:	428b      	cmp	r3, r1
    4868:	d204      	bcs.n	4874 <lfs_dir_compact+0xaa8>
    486a:	4659      	mov	r1, fp
    486c:	69d2      	ldr	r2, [r2, #28]
    486e:	1d0c      	adds	r4, r1, #4
    4870:	4294      	cmp	r4, r2
    4872:	d987      	bls.n	4784 <lfs_dir_compact+0x9b8>
    4874:	9b17      	ldr	r3, [sp, #92]	; 0x5c
    4876:	4699      	mov	r9, r3
    4878:	9b19      	ldr	r3, [sp, #100]	; 0x64
    487a:	469b      	mov	fp, r3
    487c:	f7ff fbc3 	bl	4006 <lfs_dir_compact+0x23a>
    4880:	0592      	lsls	r2, r2, #22
    4882:	d0da      	beq.n	483a <lfs_dir_compact+0xa6e>
    4884:	9e33      	ldr	r6, [sp, #204]	; 0xcc
    4886:	001a      	movs	r2, r3
    4888:	e007      	b.n	489a <lfs_dir_compact+0xace>
    488a:	9b39      	ldr	r3, [sp, #228]	; 0xe4
    488c:	3401      	adds	r4, #1
    488e:	059a      	lsls	r2, r3, #22
    4890:	370c      	adds	r7, #12
    4892:	0d92      	lsrs	r2, r2, #22
    4894:	4294      	cmp	r4, r2
    4896:	d2d0      	bcs.n	483a <lfs_dir_compact+0xa6e>
    4898:	0a9a      	lsrs	r2, r3, #10
    489a:	21c0      	movs	r1, #192	; 0xc0
    489c:	0089      	lsls	r1, r1, #2
    489e:	468c      	mov	ip, r1
    48a0:	0592      	lsls	r2, r2, #22
    48a2:	0d92      	lsrs	r2, r2, #22
    48a4:	68bb      	ldr	r3, [r7, #8]
    48a6:	1992      	adds	r2, r2, r6
    48a8:	0292      	lsls	r2, r2, #10
    48aa:	431a      	orrs	r2, r3
    48ac:	783b      	ldrb	r3, [r7, #0]
    48ae:	4463      	add	r3, ip
    48b0:	051b      	lsls	r3, r3, #20
    48b2:	431a      	orrs	r2, r3
    48b4:	9b3e      	ldr	r3, [sp, #248]	; 0xf8
    48b6:	931c      	str	r3, [sp, #112]	; 0x70
    48b8:	9b3d      	ldr	r3, [sp, #244]	; 0xf4
    48ba:	991c      	ldr	r1, [sp, #112]	; 0x70
    48bc:	931e      	str	r3, [sp, #120]	; 0x78
    48be:	981e      	ldr	r0, [sp, #120]	; 0x78
    48c0:	687b      	ldr	r3, [r7, #4]
    48c2:	f7fc f9d7 	bl	c74 <lfs_dir_commitattr>
    48c6:	2800      	cmp	r0, #0
    48c8:	d0df      	beq.n	488a <lfs_dir_compact+0xabe>
    48ca:	9b17      	ldr	r3, [sp, #92]	; 0x5c
    48cc:	0004      	movs	r4, r0
    48ce:	4699      	mov	r9, r3
    48d0:	9b19      	ldr	r3, [sp, #100]	; 0x64
    48d2:	469b      	mov	fp, r3
    48d4:	f7ff fb13 	bl	3efe <lfs_dir_compact+0x132>
    48d8:	0592      	lsls	r2, r2, #22
    48da:	d100      	bne.n	48de <lfs_dir_compact+0xb12>
    48dc:	e534      	b.n	4348 <lfs_dir_compact+0x57c>
    48de:	ad41      	add	r5, sp, #260	; 0x104
    48e0:	9e2c      	ldr	r6, [sp, #176]	; 0xb0
    48e2:	001a      	movs	r2, r3
    48e4:	e008      	b.n	48f8 <lfs_dir_compact+0xb2c>
    48e6:	9b37      	ldr	r3, [sp, #220]	; 0xdc
    48e8:	3401      	adds	r4, #1
    48ea:	059a      	lsls	r2, r3, #22
    48ec:	350c      	adds	r5, #12
    48ee:	0d92      	lsrs	r2, r2, #22
    48f0:	4294      	cmp	r4, r2
    48f2:	d300      	bcc.n	48f6 <lfs_dir_compact+0xb2a>
    48f4:	e528      	b.n	4348 <lfs_dir_compact+0x57c>
    48f6:	0a9a      	lsrs	r2, r3, #10
    48f8:	21c0      	movs	r1, #192	; 0xc0
    48fa:	0089      	lsls	r1, r1, #2
    48fc:	468c      	mov	ip, r1
    48fe:	0592      	lsls	r2, r2, #22
    4900:	0d92      	lsrs	r2, r2, #22
    4902:	68ab      	ldr	r3, [r5, #8]
    4904:	1992      	adds	r2, r2, r6
    4906:	0292      	lsls	r2, r2, #10
    4908:	431a      	orrs	r2, r3
    490a:	782b      	ldrb	r3, [r5, #0]
    490c:	4463      	add	r3, ip
    490e:	051b      	lsls	r3, r3, #20
    4910:	431a      	orrs	r2, r3
    4912:	9b3e      	ldr	r3, [sp, #248]	; 0xf8
    4914:	9314      	str	r3, [sp, #80]	; 0x50
    4916:	9b3d      	ldr	r3, [sp, #244]	; 0xf4
    4918:	9914      	ldr	r1, [sp, #80]	; 0x50
    491a:	9315      	str	r3, [sp, #84]	; 0x54
    491c:	9815      	ldr	r0, [sp, #84]	; 0x54
    491e:	686b      	ldr	r3, [r5, #4]
    4920:	f7fc f9a8 	bl	c74 <lfs_dir_commitattr>
    4924:	2800      	cmp	r0, #0
    4926:	d0de      	beq.n	48e6 <lfs_dir_compact+0xb1a>
    4928:	9b17      	ldr	r3, [sp, #92]	; 0x5c
    492a:	46da      	mov	sl, fp
    492c:	4699      	mov	r9, r3
    492e:	9b19      	ldr	r3, [sp, #100]	; 0x64
    4930:	0004      	movs	r4, r0
    4932:	469b      	mov	fp, r3
    4934:	f7ff fae3 	bl	3efe <lfs_dir_compact+0x132>
    4938:	465b      	mov	r3, fp
    493a:	4642      	mov	r2, r8
    493c:	7ddb      	ldrb	r3, [r3, #23]
    493e:	4641      	mov	r1, r8
    4940:	75d3      	strb	r3, [r2, #23]
    4942:	465b      	mov	r3, fp
    4944:	699b      	ldr	r3, [r3, #24]
    4946:	9a0d      	ldr	r2, [sp, #52]	; 0x34
    4948:	9354      	str	r3, [sp, #336]	; 0x150
    494a:	465b      	mov	r3, fp
    494c:	69db      	ldr	r3, [r3, #28]
    494e:	4650      	mov	r0, sl
    4950:	9355      	str	r3, [sp, #340]	; 0x154
    4952:	464b      	mov	r3, r9
    4954:	9302      	str	r3, [sp, #8]
    4956:	9b0b      	ldr	r3, [sp, #44]	; 0x2c
    4958:	9301      	str	r3, [sp, #4]
    495a:	9b0c      	ldr	r3, [sp, #48]	; 0x30
    495c:	9300      	str	r3, [sp, #0]
    495e:	9b0e      	ldr	r3, [sp, #56]	; 0x38
    4960:	f7ff fa34 	bl	3dcc <lfs_dir_compact>
    4964:	1e04      	subs	r4, r0, #0
    4966:	d000      	beq.n	496a <lfs_dir_compact+0xb9e>
    4968:	e51c      	b.n	43a4 <lfs_dir_compact+0x5d8>
    496a:	4643      	mov	r3, r8
    496c:	681a      	ldr	r2, [r3, #0]
    496e:	465b      	mov	r3, fp
    4970:	619a      	str	r2, [r3, #24]
    4972:	4643      	mov	r3, r8
    4974:	4659      	mov	r1, fp
    4976:	685b      	ldr	r3, [r3, #4]
    4978:	4658      	mov	r0, fp
    497a:	61cb      	str	r3, [r1, #28]
    497c:	2101      	movs	r1, #1
    497e:	75c1      	strb	r1, [r0, #23]
    4980:	4651      	mov	r1, sl
    4982:	6805      	ldr	r5, [r0, #0]
    4984:	6a08      	ldr	r0, [r1, #32]
    4986:	4659      	mov	r1, fp
    4988:	6849      	ldr	r1, [r1, #4]
    498a:	4285      	cmp	r5, r0
    498c:	d100      	bne.n	4990 <lfs_dir_compact+0xbc4>
    498e:	e117      	b.n	4bc0 <lfs_dir_compact+0xdf4>
    4990:	4654      	mov	r4, sl
    4992:	6a64      	ldr	r4, [r4, #36]	; 0x24
    4994:	428c      	cmp	r4, r1
    4996:	d100      	bne.n	499a <lfs_dir_compact+0xbce>
    4998:	e112      	b.n	4bc0 <lfs_dir_compact+0xdf4>
    499a:	42a5      	cmp	r5, r4
    499c:	d100      	bne.n	49a0 <lfs_dir_compact+0xbd4>
    499e:	e10f      	b.n	4bc0 <lfs_dir_compact+0xdf4>
    49a0:	4288      	cmp	r0, r1
    49a2:	d100      	bne.n	49a6 <lfs_dir_compact+0xbda>
    49a4:	e10c      	b.n	4bc0 <lfs_dir_compact+0xdf4>
    49a6:	4653      	mov	r3, sl
    49a8:	6e9f      	ldr	r7, [r3, #104]	; 0x68
    49aa:	9b0b      	ldr	r3, [sp, #44]	; 0x2c
    49ac:	4699      	mov	r9, r3
    49ae:	2300      	movs	r3, #0
    49b0:	9316      	str	r3, [sp, #88]	; 0x58
    49b2:	f7ff fa8d 	bl	3ed0 <lfs_dir_compact+0x104>
    49b6:	0592      	lsls	r2, r2, #22
    49b8:	0d93      	lsrs	r3, r2, #22
    49ba:	1c5a      	adds	r2, r3, #1
    49bc:	1ac0      	subs	r0, r0, r3
    49be:	932f      	str	r3, [sp, #188]	; 0xbc
    49c0:	9b32      	ldr	r3, [sp, #200]	; 0xc8
    49c2:	9234      	str	r2, [sp, #208]	; 0xd0
    49c4:	469c      	mov	ip, r3
    49c6:	4460      	add	r0, ip
    49c8:	b283      	uxth	r3, r0
    49ca:	9335      	str	r3, [sp, #212]	; 0xd4
    49cc:	b21b      	sxth	r3, r3
    49ce:	9326      	str	r3, [sp, #152]	; 0x98
    49d0:	029b      	lsls	r3, r3, #10
    49d2:	9330      	str	r3, [sp, #192]	; 0xc0
    49d4:	68fb      	ldr	r3, [r7, #12]
    49d6:	2b04      	cmp	r3, #4
    49d8:	d800      	bhi.n	49dc <lfs_dir_compact+0xc10>
    49da:	e72e      	b.n	483a <lfs_dir_compact+0xa6e>
    49dc:	4652      	mov	r2, sl
    49de:	6e92      	ldr	r2, [r2, #104]	; 0x68
    49e0:	683b      	ldr	r3, [r7, #0]
    49e2:	6a11      	ldr	r1, [r2, #32]
    49e4:	4299      	cmp	r1, r3
    49e6:	d800      	bhi.n	49ea <lfs_dir_compact+0xc1e>
    49e8:	e744      	b.n	4874 <lfs_dir_compact+0xaa8>
    49ea:	69d2      	ldr	r2, [r2, #28]
    49ec:	2a07      	cmp	r2, #7
    49ee:	d800      	bhi.n	49f2 <lfs_dir_compact+0xc26>
    49f0:	e740      	b.n	4874 <lfs_dir_compact+0xaa8>
    49f2:	2204      	movs	r2, #4
    49f4:	3ef9      	subs	r6, #249	; 0xf9
    49f6:	4649      	mov	r1, r9
    49f8:	46b8      	mov	r8, r7
    49fa:	46a9      	mov	r9, r5
    49fc:	0035      	movs	r5, r6
    49fe:	0016      	movs	r6, r2
    4a00:	3c01      	subs	r4, #1
    4a02:	911c      	str	r1, [sp, #112]	; 0x70
    4a04:	2204      	movs	r2, #4
    4a06:	9203      	str	r2, [sp, #12]
    4a08:	aa3a      	add	r2, sp, #232	; 0xe8
    4a0a:	9202      	str	r2, [sp, #8]
    4a0c:	9300      	str	r3, [sp, #0]
    4a0e:	9601      	str	r6, [sp, #4]
    4a10:	2304      	movs	r3, #4
    4a12:	4652      	mov	r2, sl
    4a14:	2100      	movs	r1, #0
    4a16:	9818      	ldr	r0, [sp, #96]	; 0x60
    4a18:	f7fb fbc2 	bl	1a0 <lfs_bd_read.isra.21.part.22>
    4a1c:	2800      	cmp	r0, #0
    4a1e:	d000      	beq.n	4a22 <lfs_dir_compact+0xc56>
    4a20:	e753      	b.n	48ca <lfs_dir_compact+0xafe>
    4a22:	9b3a      	ldr	r3, [sp, #232]	; 0xe8
    4a24:	af4a      	add	r7, sp, #296	; 0x128
    4a26:	ba1b      	rev	r3, r3
    4a28:	405c      	eors	r4, r3
    4a2a:	2380      	movs	r3, #128	; 0x80
    4a2c:	061b      	lsls	r3, r3, #24
    4a2e:	431c      	orrs	r4, r3
    4a30:	4643      	mov	r3, r8
    4a32:	681b      	ldr	r3, [r3, #0]
    4a34:	607d      	str	r5, [r7, #4]
    4a36:	2580      	movs	r5, #128	; 0x80
    4a38:	934a      	str	r3, [sp, #296]	; 0x128
    4a3a:	23c0      	movs	r3, #192	; 0xc0
    4a3c:	05ad      	lsls	r5, r5, #22
    4a3e:	4065      	eors	r5, r4
    4a40:	05db      	lsls	r3, r3, #23
    4a42:	943a      	str	r4, [sp, #232]	; 0xe8
    4a44:	401d      	ands	r5, r3
    4a46:	d13c      	bne.n	4ac2 <lfs_dir_compact+0xcf6>
    4a48:	ab3a      	add	r3, sp, #232	; 0xe8
    4a4a:	9308      	str	r3, [sp, #32]
    4a4c:	4b30      	ldr	r3, [pc, #192]	; (4b10 <lfs_dir_compact+0xd44>)
    4a4e:	9006      	str	r0, [sp, #24]
    4a50:	9307      	str	r3, [sp, #28]
    4a52:	9005      	str	r0, [sp, #20]
    4a54:	9004      	str	r0, [sp, #16]
    4a56:	9003      	str	r0, [sp, #12]
    4a58:	9002      	str	r0, [sp, #8]
    4a5a:	9001      	str	r0, [sp, #4]
    4a5c:	9000      	str	r0, [sp, #0]
    4a5e:	0023      	movs	r3, r4
    4a60:	0032      	movs	r2, r6
    4a62:	4641      	mov	r1, r8
    4a64:	4650      	mov	r0, sl
    4a66:	f7fb fe83 	bl	770 <lfs_dir_traverse>
    4a6a:	2800      	cmp	r0, #0
    4a6c:	da00      	bge.n	4a70 <lfs_dir_compact+0xca4>
    4a6e:	e72c      	b.n	48ca <lfs_dir_compact+0xafe>
    4a70:	d127      	bne.n	4ac2 <lfs_dir_compact+0xcf6>
    4a72:	9a3a      	ldr	r2, [sp, #232]	; 0xe8
    4a74:	0a93      	lsrs	r3, r2, #10
    4a76:	0599      	lsls	r1, r3, #22
    4a78:	9320      	str	r3, [sp, #128]	; 0x80
    4a7a:	9b2f      	ldr	r3, [sp, #188]	; 0xbc
    4a7c:	0d89      	lsrs	r1, r1, #22
    4a7e:	469c      	mov	ip, r3
    4a80:	911e      	str	r1, [sp, #120]	; 0x78
    4a82:	458c      	cmp	ip, r1
    4a84:	d81d      	bhi.n	4ac2 <lfs_dir_compact+0xcf6>
    4a86:	9b34      	ldr	r3, [sp, #208]	; 0xd0
    4a88:	428b      	cmp	r3, r1
    4a8a:	d91a      	bls.n	4ac2 <lfs_dir_compact+0xcf6>
    4a8c:	0051      	lsls	r1, r2, #1
    4a8e:	0d49      	lsrs	r1, r1, #21
    4a90:	d017      	beq.n	4ac2 <lfs_dir_compact+0xcf6>
    4a92:	2302      	movs	r3, #2
    4a94:	33ff      	adds	r3, #255	; 0xff
    4a96:	4299      	cmp	r1, r3
    4a98:	d065      	beq.n	4b66 <lfs_dir_compact+0xd9a>
    4a9a:	2081      	movs	r0, #129	; 0x81
    4a9c:	0040      	lsls	r0, r0, #1
    4a9e:	4281      	cmp	r1, r0
    4aa0:	d100      	bne.n	4aa4 <lfs_dir_compact+0xcd8>
    4aa2:	e09a      	b.n	4bda <lfs_dir_compact+0xe0e>
    4aa4:	9b30      	ldr	r3, [sp, #192]	; 0xc0
    4aa6:	469c      	mov	ip, r3
    4aa8:	9b3e      	ldr	r3, [sp, #248]	; 0xf8
    4aaa:	4462      	add	r2, ip
    4aac:	931e      	str	r3, [sp, #120]	; 0x78
    4aae:	9b3d      	ldr	r3, [sp, #244]	; 0xf4
    4ab0:	991e      	ldr	r1, [sp, #120]	; 0x78
    4ab2:	9320      	str	r3, [sp, #128]	; 0x80
    4ab4:	9820      	ldr	r0, [sp, #128]	; 0x80
    4ab6:	003b      	movs	r3, r7
    4ab8:	f7fc f8dc 	bl	c74 <lfs_dir_commitattr>
    4abc:	2800      	cmp	r0, #0
    4abe:	d000      	beq.n	4ac2 <lfs_dir_compact+0xcf6>
    4ac0:	e703      	b.n	48ca <lfs_dir_compact+0xafe>
    4ac2:	05a3      	lsls	r3, r4, #22
    4ac4:	159b      	asrs	r3, r3, #22
    4ac6:	3301      	adds	r3, #1
    4ac8:	425a      	negs	r2, r3
    4aca:	4153      	adcs	r3, r2
    4acc:	191b      	adds	r3, r3, r4
    4ace:	059b      	lsls	r3, r3, #22
    4ad0:	0d9b      	lsrs	r3, r3, #22
    4ad2:	3304      	adds	r3, #4
    4ad4:	18f6      	adds	r6, r6, r3
    4ad6:	4643      	mov	r3, r8
    4ad8:	68db      	ldr	r3, [r3, #12]
    4ada:	429e      	cmp	r6, r3
    4adc:	d303      	bcc.n	4ae6 <lfs_dir_compact+0xd1a>
    4ade:	9b1c      	ldr	r3, [sp, #112]	; 0x70
    4ae0:	464d      	mov	r5, r9
    4ae2:	4699      	mov	r9, r3
    4ae4:	e6a9      	b.n	483a <lfs_dir_compact+0xa6e>
    4ae6:	4652      	mov	r2, sl
    4ae8:	4643      	mov	r3, r8
    4aea:	6e92      	ldr	r2, [r2, #104]	; 0x68
    4aec:	681b      	ldr	r3, [r3, #0]
    4aee:	6a11      	ldr	r1, [r2, #32]
    4af0:	428b      	cmp	r3, r1
    4af2:	d300      	bcc.n	4af6 <lfs_dir_compact+0xd2a>
    4af4:	e6be      	b.n	4874 <lfs_dir_compact+0xaa8>
    4af6:	69d2      	ldr	r2, [r2, #28]
    4af8:	1d35      	adds	r5, r6, #4
    4afa:	4295      	cmp	r5, r2
    4afc:	d800      	bhi.n	4b00 <lfs_dir_compact+0xd34>
    4afe:	e781      	b.n	4a04 <lfs_dir_compact+0xc38>
    4b00:	e6b8      	b.n	4874 <lfs_dir_compact+0xaa8>
    4b02:	0592      	lsls	r2, r2, #22
    4b04:	d100      	bne.n	4b08 <lfs_dir_compact+0xd3c>
    4b06:	e4ec      	b.n	44e2 <lfs_dir_compact+0x716>
    4b08:	9d31      	ldr	r5, [sp, #196]	; 0xc4
    4b0a:	001a      	movs	r2, r3
    4b0c:	e00b      	b.n	4b26 <lfs_dir_compact+0xd5a>
    4b0e:	46c0      	nop			; (mov r8, r8)
    4b10:	00000000 	.word	0x00000000
    4b14:	9b38      	ldr	r3, [sp, #224]	; 0xe0
    4b16:	3401      	adds	r4, #1
    4b18:	059a      	lsls	r2, r3, #22
    4b1a:	360c      	adds	r6, #12
    4b1c:	0d92      	lsrs	r2, r2, #22
    4b1e:	4294      	cmp	r4, r2
    4b20:	d300      	bcc.n	4b24 <lfs_dir_compact+0xd58>
    4b22:	e4de      	b.n	44e2 <lfs_dir_compact+0x716>
    4b24:	0a9a      	lsrs	r2, r3, #10
    4b26:	21c0      	movs	r1, #192	; 0xc0
    4b28:	0089      	lsls	r1, r1, #2
    4b2a:	468c      	mov	ip, r1
    4b2c:	0592      	lsls	r2, r2, #22
    4b2e:	0d92      	lsrs	r2, r2, #22
    4b30:	68b3      	ldr	r3, [r6, #8]
    4b32:	1952      	adds	r2, r2, r5
    4b34:	0292      	lsls	r2, r2, #10
    4b36:	431a      	orrs	r2, r3
    4b38:	7833      	ldrb	r3, [r6, #0]
    4b3a:	4463      	add	r3, ip
    4b3c:	051b      	lsls	r3, r3, #20
    4b3e:	431a      	orrs	r2, r3
    4b40:	9b3e      	ldr	r3, [sp, #248]	; 0xf8
    4b42:	9315      	str	r3, [sp, #84]	; 0x54
    4b44:	9b3d      	ldr	r3, [sp, #244]	; 0xf4
    4b46:	9915      	ldr	r1, [sp, #84]	; 0x54
    4b48:	931c      	str	r3, [sp, #112]	; 0x70
    4b4a:	981c      	ldr	r0, [sp, #112]	; 0x70
    4b4c:	6873      	ldr	r3, [r6, #4]
    4b4e:	f7fc f891 	bl	c74 <lfs_dir_commitattr>
    4b52:	2800      	cmp	r0, #0
    4b54:	d0de      	beq.n	4b14 <lfs_dir_compact+0xd48>
    4b56:	9b17      	ldr	r3, [sp, #92]	; 0x5c
    4b58:	0004      	movs	r4, r0
    4b5a:	4699      	mov	r9, r3
    4b5c:	9b19      	ldr	r3, [sp, #100]	; 0x64
    4b5e:	46c2      	mov	sl, r8
    4b60:	469b      	mov	fp, r3
    4b62:	f7ff f9cc 	bl	3efe <lfs_dir_compact+0x132>
    4b66:	9935      	ldr	r1, [sp, #212]	; 0xd4
    4b68:	ab3d      	add	r3, sp, #244	; 0xf4
    4b6a:	468c      	mov	ip, r1
    4b6c:	9308      	str	r3, [sp, #32]
    4b6e:	4bcf      	ldr	r3, [pc, #828]	; (4eac <lfs_dir_compact+0x10e0>)
    4b70:	0592      	lsls	r2, r2, #22
    4b72:	9307      	str	r3, [sp, #28]
    4b74:	9b1e      	ldr	r3, [sp, #120]	; 0x78
    4b76:	0d92      	lsrs	r2, r2, #22
    4b78:	1a9b      	subs	r3, r3, r2
    4b7a:	4463      	add	r3, ip
    4b7c:	b21b      	sxth	r3, r3
    4b7e:	9306      	str	r3, [sp, #24]
    4b80:	1c53      	adds	r3, r2, #1
    4b82:	9305      	str	r3, [sp, #20]
    4b84:	2380      	movs	r3, #128	; 0x80
    4b86:	059b      	lsls	r3, r3, #22
    4b88:	9303      	str	r3, [sp, #12]
    4b8a:	4bc9      	ldr	r3, [pc, #804]	; (4eb0 <lfs_dir_compact+0x10e4>)
    4b8c:	9204      	str	r2, [sp, #16]
    4b8e:	9302      	str	r3, [sp, #8]
    4b90:	2301      	movs	r3, #1
    4b92:	9001      	str	r0, [sp, #4]
    4b94:	9000      	str	r0, [sp, #0]
    4b96:	425b      	negs	r3, r3
    4b98:	2200      	movs	r2, #0
    4b9a:	0039      	movs	r1, r7
    4b9c:	4650      	mov	r0, sl
    4b9e:	f7fb fde7 	bl	770 <lfs_dir_traverse>
    4ba2:	2800      	cmp	r0, #0
    4ba4:	d08d      	beq.n	4ac2 <lfs_dir_compact+0xcf6>
    4ba6:	e690      	b.n	48ca <lfs_dir_compact+0xafe>
    4ba8:	2200      	movs	r2, #0
    4baa:	2100      	movs	r1, #0
    4bac:	2300      	movs	r3, #0
    4bae:	e4fa      	b.n	45a6 <lfs_dir_compact+0x7da>
    4bb0:	1c83      	adds	r3, r0, #2
    4bb2:	d001      	beq.n	4bb8 <lfs_dir_compact+0xdec>
    4bb4:	f7ff f9a7 	bl	3f06 <lfs_dir_compact+0x13a>
    4bb8:	9948      	ldr	r1, [sp, #288]	; 0x120
    4bba:	9a47      	ldr	r2, [sp, #284]	; 0x11c
    4bbc:	9b46      	ldr	r3, [sp, #280]	; 0x118
    4bbe:	e51c      	b.n	45fa <lfs_dir_compact+0x82e>
    4bc0:	980b      	ldr	r0, [sp, #44]	; 0x2c
    4bc2:	2800      	cmp	r0, #0
    4bc4:	d000      	beq.n	4bc8 <lfs_dir_compact+0xdfc>
    4bc6:	e6ee      	b.n	49a6 <lfs_dir_compact+0xbda>
    4bc8:	4650      	mov	r0, sl
    4bca:	6243      	str	r3, [r0, #36]	; 0x24
    4bcc:	2300      	movs	r3, #0
    4bce:	6202      	str	r2, [r0, #32]
    4bd0:	6e87      	ldr	r7, [r0, #104]	; 0x68
    4bd2:	4699      	mov	r9, r3
    4bd4:	9316      	str	r3, [sp, #88]	; 0x58
    4bd6:	f7ff f97b 	bl	3ed0 <lfs_dir_compact+0x104>
    4bda:	0592      	lsls	r2, r2, #22
    4bdc:	d100      	bne.n	4be0 <lfs_dir_compact+0xe14>
    4bde:	e770      	b.n	4ac2 <lfs_dir_compact+0xcf6>
    4be0:	9a20      	ldr	r2, [sp, #128]	; 0x80
    4be2:	e008      	b.n	4bf6 <lfs_dir_compact+0xe2a>
    4be4:	9b3a      	ldr	r3, [sp, #232]	; 0xe8
    4be6:	3501      	adds	r5, #1
    4be8:	059a      	lsls	r2, r3, #22
    4bea:	370c      	adds	r7, #12
    4bec:	0d92      	lsrs	r2, r2, #22
    4bee:	4295      	cmp	r5, r2
    4bf0:	d300      	bcc.n	4bf4 <lfs_dir_compact+0xe28>
    4bf2:	e766      	b.n	4ac2 <lfs_dir_compact+0xcf6>
    4bf4:	0a9a      	lsrs	r2, r3, #10
    4bf6:	9b26      	ldr	r3, [sp, #152]	; 0x98
    4bf8:	21c0      	movs	r1, #192	; 0xc0
    4bfa:	469c      	mov	ip, r3
    4bfc:	0592      	lsls	r2, r2, #22
    4bfe:	0089      	lsls	r1, r1, #2
    4c00:	0d92      	lsrs	r2, r2, #22
    4c02:	4462      	add	r2, ip
    4c04:	468c      	mov	ip, r1
    4c06:	68bb      	ldr	r3, [r7, #8]
    4c08:	0292      	lsls	r2, r2, #10
    4c0a:	431a      	orrs	r2, r3
    4c0c:	783b      	ldrb	r3, [r7, #0]
    4c0e:	4463      	add	r3, ip
    4c10:	051b      	lsls	r3, r3, #20
    4c12:	431a      	orrs	r2, r3
    4c14:	9b3e      	ldr	r3, [sp, #248]	; 0xf8
    4c16:	931e      	str	r3, [sp, #120]	; 0x78
    4c18:	9b3d      	ldr	r3, [sp, #244]	; 0xf4
    4c1a:	991e      	ldr	r1, [sp, #120]	; 0x78
    4c1c:	9320      	str	r3, [sp, #128]	; 0x80
    4c1e:	9820      	ldr	r0, [sp, #128]	; 0x80
    4c20:	687b      	ldr	r3, [r7, #4]
    4c22:	f7fc f827 	bl	c74 <lfs_dir_commitattr>
    4c26:	2800      	cmp	r0, #0
    4c28:	d0dc      	beq.n	4be4 <lfs_dir_compact+0xe18>
    4c2a:	e64e      	b.n	48ca <lfs_dir_compact+0xafe>
    4c2c:	9b19      	ldr	r3, [sp, #100]	; 0x64
    4c2e:	46d9      	mov	r9, fp
    4c30:	469b      	mov	fp, r3
    4c32:	f7ff f9e8 	bl	4006 <lfs_dir_compact+0x23a>
    4c36:	6add      	ldr	r5, [r3, #44]	; 0x2c
    4c38:	42aa      	cmp	r2, r5
    4c3a:	d007      	beq.n	4c4c <lfs_dir_compact+0xe80>
    4c3c:	6b1f      	ldr	r7, [r3, #48]	; 0x30
    4c3e:	42b9      	cmp	r1, r7
    4c40:	d004      	beq.n	4c4c <lfs_dir_compact+0xe80>
    4c42:	42ba      	cmp	r2, r7
    4c44:	d002      	beq.n	4c4c <lfs_dir_compact+0xe80>
    4c46:	42a9      	cmp	r1, r5
    4c48:	d000      	beq.n	4c4c <lfs_dir_compact+0xe80>
    4c4a:	e52f      	b.n	46ac <lfs_dir_compact+0x8e0>
    4c4c:	6805      	ldr	r5, [r0, #0]
    4c4e:	62dd      	str	r5, [r3, #44]	; 0x2c
    4c50:	6845      	ldr	r5, [r0, #4]
    4c52:	631d      	str	r5, [r3, #48]	; 0x30
    4c54:	e52a      	b.n	46ac <lfs_dir_compact+0x8e0>
    4c56:	4683      	mov	fp, r0
    4c58:	2301      	movs	r3, #1
    4c5a:	2200      	movs	r2, #0
    4c5c:	9254      	str	r2, [sp, #336]	; 0x150
    4c5e:	9355      	str	r3, [sp, #340]	; 0x154
    4c60:	4653      	mov	r3, sl
    4c62:	6e9b      	ldr	r3, [r3, #104]	; 0x68
    4c64:	6a1b      	ldr	r3, [r3, #32]
    4c66:	085b      	lsrs	r3, r3, #1
    4c68:	d100      	bne.n	4c6c <lfs_dir_compact+0xea0>
    4c6a:	e0b9      	b.n	4de0 <lfs_dir_compact+0x1014>
    4c6c:	2300      	movs	r3, #0
    4c6e:	930b      	str	r3, [sp, #44]	; 0x2c
    4c70:	4653      	mov	r3, sl
    4c72:	af43      	add	r7, sp, #268	; 0x10c
    4c74:	46a2      	mov	sl, r4
    4c76:	4645      	mov	r5, r8
    4c78:	001c      	movs	r4, r3
    4c7a:	e00c      	b.n	4c96 <lfs_dir_compact+0xeca>
    4c7c:	9b0b      	ldr	r3, [sp, #44]	; 0x2c
    4c7e:	3301      	adds	r3, #1
    4c80:	930b      	str	r3, [sp, #44]	; 0x2c
    4c82:	9b55      	ldr	r3, [sp, #340]	; 0x154
    4c84:	3301      	adds	r3, #1
    4c86:	d01f      	beq.n	4cc8 <lfs_dir_compact+0xefc>
    4c88:	6ea3      	ldr	r3, [r4, #104]	; 0x68
    4c8a:	9a0b      	ldr	r2, [sp, #44]	; 0x2c
    4c8c:	6a1b      	ldr	r3, [r3, #32]
    4c8e:	085b      	lsrs	r3, r3, #1
    4c90:	4293      	cmp	r3, r2
    4c92:	d800      	bhi.n	4c96 <lfs_dir_compact+0xeca>
    4c94:	e0a4      	b.n	4de0 <lfs_dir_compact+0x1014>
    4c96:	9b3b      	ldr	r3, [sp, #236]	; 0xec
    4c98:	603c      	str	r4, [r7, #0]
    4c9a:	9344      	str	r3, [sp, #272]	; 0x110
    4c9c:	9b3c      	ldr	r3, [sp, #240]	; 0xf0
    4c9e:	aa54      	add	r2, sp, #336	; 0x150
    4ca0:	9345      	str	r3, [sp, #276]	; 0x114
    4ca2:	4b84      	ldr	r3, [pc, #528]	; (4eb4 <lfs_dir_compact+0x10e8>)
    4ca4:	9703      	str	r7, [sp, #12]
    4ca6:	9302      	str	r3, [sp, #8]
    4ca8:	2300      	movs	r3, #0
    4caa:	9301      	str	r3, [sp, #4]
    4cac:	4b82      	ldr	r3, [pc, #520]	; (4eb8 <lfs_dir_compact+0x10ec>)
    4cae:	0029      	movs	r1, r5
    4cb0:	9300      	str	r3, [sp, #0]
    4cb2:	0020      	movs	r0, r4
    4cb4:	4b81      	ldr	r3, [pc, #516]	; (4ebc <lfs_dir_compact+0x10f0>)
    4cb6:	f7fc f8d7 	bl	e68 <lfs_dir_fetchmatch>
    4cba:	2202      	movs	r2, #2
    4cbc:	1c83      	adds	r3, r0, #2
    4cbe:	4393      	bics	r3, r2
    4cc0:	d14c      	bne.n	4d5c <lfs_dir_compact+0xf90>
    4cc2:	9b54      	ldr	r3, [sp, #336]	; 0x150
    4cc4:	3301      	adds	r3, #1
    4cc6:	d1d9      	bne.n	4c7c <lfs_dir_compact+0xeb0>
    4cc8:	0023      	movs	r3, r4
    4cca:	46a8      	mov	r8, r5
    4ccc:	4654      	mov	r4, sl
    4cce:	469a      	mov	sl, r3
    4cd0:	4642      	mov	r2, r8
    4cd2:	a93b      	add	r1, sp, #236	; 0xec
    4cd4:	4650      	mov	r0, sl
    4cd6:	f7fc fb9f 	bl	1418 <lfs_fs_pred>
    4cda:	1e05      	subs	r5, r0, #0
    4cdc:	d100      	bne.n	4ce0 <lfs_dir_compact+0xf14>
    4cde:	e0b5      	b.n	4e4c <lfs_dir_compact+0x1080>
    4ce0:	1c83      	adds	r3, r0, #2
    4ce2:	d101      	bne.n	4ce8 <lfs_dir_compact+0xf1c>
    4ce4:	f7ff f90f 	bl	3f06 <lfs_dir_compact+0x13a>
    4ce8:	002c      	movs	r4, r5
    4cea:	f7ff f90c 	bl	3f06 <lfs_dir_compact+0x13a>
    4cee:	4653      	mov	r3, sl
    4cf0:	4652      	mov	r2, sl
    4cf2:	333c      	adds	r3, #60	; 0x3c
    4cf4:	3230      	adds	r2, #48	; 0x30
    4cf6:	ca23      	ldmia	r2!, {r0, r1, r5}
    4cf8:	c323      	stmia	r3!, {r0, r1, r5}
    4cfa:	f7ff f904 	bl	3f06 <lfs_dir_compact+0x13a>
    4cfe:	4643      	mov	r3, r8
    4d00:	4642      	mov	r2, r8
    4d02:	685b      	ldr	r3, [r3, #4]
    4d04:	6952      	ldr	r2, [r2, #20]
    4d06:	3310      	adds	r3, #16
    4d08:	4293      	cmp	r3, r2
    4d0a:	d900      	bls.n	4d0e <lfs_dir_compact+0xf42>
    4d0c:	e096      	b.n	4e3c <lfs_dir_compact+0x1070>
    4d0e:	4643      	mov	r3, r8
    4d10:	4d6b      	ldr	r5, [pc, #428]	; (4ec0 <lfs_dir_compact+0x10f4>)
    4d12:	689b      	ldr	r3, [r3, #8]
    4d14:	9a0f      	ldr	r2, [sp, #60]	; 0x3c
    4d16:	406b      	eors	r3, r5
    4d18:	ba1b      	rev	r3, r3
    4d1a:	934a      	str	r3, [sp, #296]	; 0x128
    4d1c:	4641      	mov	r1, r8
    4d1e:	2304      	movs	r3, #4
    4d20:	4650      	mov	r0, sl
    4d22:	f7fb ff21 	bl	b68 <lfs_dir_commitprog>
    4d26:	1e04      	subs	r4, r0, #0
    4d28:	d001      	beq.n	4d2e <lfs_dir_compact+0xf62>
    4d2a:	f7ff f8e8 	bl	3efe <lfs_dir_compact+0x132>
    4d2e:	230c      	movs	r3, #12
    4d30:	0032      	movs	r2, r6
    4d32:	4641      	mov	r1, r8
    4d34:	4650      	mov	r0, sl
    4d36:	f7fb ff17 	bl	b68 <lfs_dir_commitprog>
    4d3a:	1e04      	subs	r4, r0, #0
    4d3c:	d001      	beq.n	4d42 <lfs_dir_compact+0xf76>
    4d3e:	f7ff f8de 	bl	3efe <lfs_dir_compact+0x132>
    4d42:	4643      	mov	r3, r8
    4d44:	609d      	str	r5, [r3, #8]
    4d46:	e45c      	b.n	4602 <lfs_dir_compact+0x836>
    4d48:	465b      	mov	r3, fp
    4d4a:	6859      	ldr	r1, [r3, #4]
    4d4c:	4653      	mov	r3, sl
    4d4e:	6e9f      	ldr	r7, [r3, #104]	; 0x68
    4d50:	2301      	movs	r3, #1
    4d52:	9316      	str	r3, [sp, #88]	; 0x58
    4d54:	ab4e      	add	r3, sp, #312	; 0x138
    4d56:	4698      	mov	r8, r3
    4d58:	f7ff f8ba 	bl	3ed0 <lfs_dir_compact+0x104>
    4d5c:	0023      	movs	r3, r4
    4d5e:	46a8      	mov	r8, r5
    4d60:	4654      	mov	r4, sl
    4d62:	1e05      	subs	r5, r0, #0
    4d64:	469a      	mov	sl, r3
    4d66:	dbbf      	blt.n	4ce8 <lfs_dir_compact+0xf1c>
    4d68:	6b1b      	ldr	r3, [r3, #48]	; 0x30
    4d6a:	3301      	adds	r3, #1
    4d6c:	059a      	lsls	r2, r3, #22
    4d6e:	0011      	movs	r1, r2
    4d70:	1e4a      	subs	r2, r1, #1
    4d72:	4191      	sbcs	r1, r2
    4d74:	005b      	lsls	r3, r3, #1
    4d76:	07ca      	lsls	r2, r1, #31
    4d78:	085b      	lsrs	r3, r3, #1
    4d7a:	431a      	orrs	r2, r3
    4d7c:	4653      	mov	r3, sl
    4d7e:	631a      	str	r2, [r3, #48]	; 0x30
    4d80:	23e0      	movs	r3, #224	; 0xe0
    4d82:	0d11      	lsrs	r1, r2, #20
    4d84:	00db      	lsls	r3, r3, #3
    4d86:	4694      	mov	ip, r2
    4d88:	2200      	movs	r2, #0
    4d8a:	4219      	tst	r1, r3
    4d8c:	d00d      	beq.n	4daa <lfs_dir_compact+0xfde>
    4d8e:	4653      	mov	r3, sl
    4d90:	6b5f      	ldr	r7, [r3, #52]	; 0x34
    4d92:	9b4e      	ldr	r3, [sp, #312]	; 0x138
    4d94:	994f      	ldr	r1, [sp, #316]	; 0x13c
    4d96:	429f      	cmp	r7, r3
    4d98:	d02f      	beq.n	4dfa <lfs_dir_compact+0x102e>
    4d9a:	4650      	mov	r0, sl
    4d9c:	6b80      	ldr	r0, [r0, #56]	; 0x38
    4d9e:	4281      	cmp	r1, r0
    4da0:	d02b      	beq.n	4dfa <lfs_dir_compact+0x102e>
    4da2:	42b9      	cmp	r1, r7
    4da4:	d029      	beq.n	4dfa <lfs_dir_compact+0x102e>
    4da6:	4283      	cmp	r3, r0
    4da8:	d027      	beq.n	4dfa <lfs_dir_compact+0x102e>
    4daa:	2300      	movs	r3, #0
    4dac:	924a      	str	r2, [sp, #296]	; 0x128
    4dae:	9a0f      	ldr	r2, [sp, #60]	; 0x3c
    4db0:	4641      	mov	r1, r8
    4db2:	6053      	str	r3, [r2, #4]
    4db4:	465b      	mov	r3, fp
    4db6:	6095      	str	r5, [r2, #8]
    4db8:	60d3      	str	r3, [r2, #12]
    4dba:	4650      	mov	r0, sl
    4dbc:	2302      	movs	r3, #2
    4dbe:	f000 f8b9 	bl	4f34 <lfs_dir_commit>
    4dc2:	1e05      	subs	r5, r0, #0
    4dc4:	d190      	bne.n	4ce8 <lfs_dir_compact+0xf1c>
    4dc6:	4653      	mov	r3, sl
    4dc8:	6b1b      	ldr	r3, [r3, #48]	; 0x30
    4dca:	3b01      	subs	r3, #1
    4dcc:	059a      	lsls	r2, r3, #22
    4dce:	1e51      	subs	r1, r2, #1
    4dd0:	418a      	sbcs	r2, r1
    4dd2:	005b      	lsls	r3, r3, #1
    4dd4:	07d2      	lsls	r2, r2, #31
    4dd6:	085b      	lsrs	r3, r3, #1
    4dd8:	4313      	orrs	r3, r2
    4dda:	4652      	mov	r2, sl
    4ddc:	6313      	str	r3, [r2, #48]	; 0x30
    4dde:	e777      	b.n	4cd0 <lfs_dir_compact+0xf04>
    4de0:	2554      	movs	r5, #84	; 0x54
    4de2:	426d      	negs	r5, r5
    4de4:	002c      	movs	r4, r5
    4de6:	f7ff f88e 	bl	3f06 <lfs_dir_compact+0x13a>
    4dea:	4659      	mov	r1, fp
    4dec:	4653      	mov	r3, sl
    4dee:	6809      	ldr	r1, [r1, #0]
    4df0:	6219      	str	r1, [r3, #32]
    4df2:	4659      	mov	r1, fp
    4df4:	6849      	ldr	r1, [r1, #4]
    4df6:	6259      	str	r1, [r3, #36]	; 0x24
    4df8:	e445      	b.n	4686 <lfs_dir_compact+0x8ba>
    4dfa:	4662      	mov	r2, ip
    4dfc:	0312      	lsls	r2, r2, #12
    4dfe:	0d97      	lsrs	r7, r2, #22
    4e00:	464a      	mov	r2, r9
    4e02:	9100      	str	r1, [sp, #0]
    4e04:	9202      	str	r2, [sp, #8]
    4e06:	9701      	str	r7, [sp, #4]
    4e08:	4a2e      	ldr	r2, [pc, #184]	; (4ec4 <lfs_dir_compact+0x10f8>)
    4e0a:	492f      	ldr	r1, [pc, #188]	; (4ec8 <lfs_dir_compact+0x10fc>)
    4e0c:	482f      	ldr	r0, [pc, #188]	; (4ecc <lfs_dir_compact+0x1100>)
    4e0e:	f7ff fffe 	bl	0 <printf>
    4e12:	4652      	mov	r2, sl
    4e14:	4b2e      	ldr	r3, [pc, #184]	; (4ed0 <lfs_dir_compact+0x1104>)
    4e16:	6b12      	ldr	r2, [r2, #48]	; 0x30
    4e18:	4013      	ands	r3, r2
    4e1a:	4652      	mov	r2, sl
    4e1c:	6313      	str	r3, [r2, #48]	; 0x30
    4e1e:	4653      	mov	r3, sl
    4e20:	2200      	movs	r2, #0
    4e22:	635a      	str	r2, [r3, #52]	; 0x34
    4e24:	639a      	str	r2, [r3, #56]	; 0x38
    4e26:	032b      	lsls	r3, r5, #12
    4e28:	0d9b      	lsrs	r3, r3, #22
    4e2a:	429f      	cmp	r7, r3
    4e2c:	d20a      	bcs.n	4e44 <lfs_dir_compact+0x1078>
    4e2e:	4b29      	ldr	r3, [pc, #164]	; (4ed4 <lfs_dir_compact+0x1108>)
    4e30:	469c      	mov	ip, r3
    4e32:	4465      	add	r5, ip
    4e34:	4a28      	ldr	r2, [pc, #160]	; (4ed8 <lfs_dir_compact+0x110c>)
    4e36:	02bb      	lsls	r3, r7, #10
    4e38:	431a      	orrs	r2, r3
    4e3a:	e7b6      	b.n	4daa <lfs_dir_compact+0xfde>
    4e3c:	241c      	movs	r4, #28
    4e3e:	4264      	negs	r4, r4
    4e40:	f7ff f861 	bl	3f06 <lfs_dir_compact+0x13a>
    4e44:	4b25      	ldr	r3, [pc, #148]	; (4edc <lfs_dir_compact+0x1110>)
    4e46:	429f      	cmp	r7, r3
    4e48:	d0af      	beq.n	4daa <lfs_dir_compact+0xfde>
    4e4a:	e7f3      	b.n	4e34 <lfs_dir_compact+0x1068>
    4e4c:	4653      	mov	r3, sl
    4e4e:	6b1d      	ldr	r5, [r3, #48]	; 0x30
    4e50:	23e0      	movs	r3, #224	; 0xe0
    4e52:	0d2a      	lsrs	r2, r5, #20
    4e54:	00db      	lsls	r3, r3, #3
    4e56:	421a      	tst	r2, r3
    4e58:	d00d      	beq.n	4e76 <lfs_dir_compact+0x10aa>
    4e5a:	4653      	mov	r3, sl
    4e5c:	6b58      	ldr	r0, [r3, #52]	; 0x34
    4e5e:	9b4e      	ldr	r3, [sp, #312]	; 0x138
    4e60:	9a4f      	ldr	r2, [sp, #316]	; 0x13c
    4e62:	4298      	cmp	r0, r3
    4e64:	d03e      	beq.n	4ee4 <lfs_dir_compact+0x1118>
    4e66:	4651      	mov	r1, sl
    4e68:	6b89      	ldr	r1, [r1, #56]	; 0x38
    4e6a:	428a      	cmp	r2, r1
    4e6c:	d03a      	beq.n	4ee4 <lfs_dir_compact+0x1118>
    4e6e:	4282      	cmp	r2, r0
    4e70:	d038      	beq.n	4ee4 <lfs_dir_compact+0x1118>
    4e72:	428b      	cmp	r3, r1
    4e74:	d036      	beq.n	4ee4 <lfs_dir_compact+0x1118>
    4e76:	2300      	movs	r3, #0
    4e78:	9346      	str	r3, [sp, #280]	; 0x118
    4e7a:	2300      	movs	r3, #0
    4e7c:	22c0      	movs	r2, #192	; 0xc0
    4e7e:	6073      	str	r3, [r6, #4]
    4e80:	4643      	mov	r3, r8
    4e82:	00d2      	lsls	r2, r2, #3
    4e84:	4694      	mov	ip, r2
    4e86:	7ddb      	ldrb	r3, [r3, #23]
    4e88:	4a15      	ldr	r2, [pc, #84]	; (4ee0 <lfs_dir_compact+0x1114>)
    4e8a:	4463      	add	r3, ip
    4e8c:	051b      	lsls	r3, r3, #20
    4e8e:	4313      	orrs	r3, r2
    4e90:	60b3      	str	r3, [r6, #8]
    4e92:	465b      	mov	r3, fp
    4e94:	0032      	movs	r2, r6
    4e96:	60f3      	str	r3, [r6, #12]
    4e98:	4641      	mov	r1, r8
    4e9a:	2302      	movs	r3, #2
    4e9c:	4650      	mov	r0, sl
    4e9e:	f000 f849 	bl	4f34 <lfs_dir_commit>
    4ea2:	1e05      	subs	r5, r0, #0
    4ea4:	d101      	bne.n	4eaa <lfs_dir_compact+0x10de>
    4ea6:	f7ff f82e 	bl	3f06 <lfs_dir_compact+0x13a>
    4eaa:	e71d      	b.n	4ce8 <lfs_dir_compact+0xf1c>
    4eac:	00000000 	.word	0x00000000
    4eb0:	600ffc00 	.word	0x600ffc00
    4eb4:	00000000 	.word	0x00000000
    4eb8:	20000008 	.word	0x20000008
    4ebc:	7ff003ff 	.word	0x7ff003ff
    4ec0:	7ffffc0c 	.word	0x7ffffc0c
    4ec4:	00000fc2 	.word	0x00000fc2
    4ec8:	00000000 	.word	0x00000000
    4ecc:	00000134 	.word	0x00000134
    4ed0:	800003ff 	.word	0x800003ff
    4ed4:	fffffc00 	.word	0xfffffc00
    4ed8:	4ff00000 	.word	0x4ff00000
    4edc:	000003ff 	.word	0x000003ff
    4ee0:	000ffc08 	.word	0x000ffc08
    4ee4:	0329      	lsls	r1, r5, #12
    4ee6:	0d8d      	lsrs	r5, r1, #22
    4ee8:	4649      	mov	r1, r9
    4eea:	9200      	str	r2, [sp, #0]
    4eec:	9102      	str	r1, [sp, #8]
    4eee:	4a0b      	ldr	r2, [pc, #44]	; (4f1c <lfs_dir_compact+0x1150>)
    4ef0:	9501      	str	r5, [sp, #4]
    4ef2:	490b      	ldr	r1, [pc, #44]	; (4f20 <lfs_dir_compact+0x1154>)
    4ef4:	480b      	ldr	r0, [pc, #44]	; (4f24 <lfs_dir_compact+0x1158>)
    4ef6:	f7ff fffe 	bl	0 <printf>
    4efa:	4652      	mov	r2, sl
    4efc:	4b0a      	ldr	r3, [pc, #40]	; (4f28 <lfs_dir_compact+0x115c>)
    4efe:	6b12      	ldr	r2, [r2, #48]	; 0x30
    4f00:	4013      	ands	r3, r2
    4f02:	4652      	mov	r2, sl
    4f04:	6313      	str	r3, [r2, #48]	; 0x30
    4f06:	2300      	movs	r3, #0
    4f08:	6353      	str	r3, [r2, #52]	; 0x34
    4f0a:	6393      	str	r3, [r2, #56]	; 0x38
    4f0c:	4b07      	ldr	r3, [pc, #28]	; (4f2c <lfs_dir_compact+0x1160>)
    4f0e:	429d      	cmp	r5, r3
    4f10:	d0b1      	beq.n	4e76 <lfs_dir_compact+0x10aa>
    4f12:	4b07      	ldr	r3, [pc, #28]	; (4f30 <lfs_dir_compact+0x1164>)
    4f14:	02aa      	lsls	r2, r5, #10
    4f16:	4313      	orrs	r3, r2
    4f18:	e7ae      	b.n	4e78 <lfs_dir_compact+0x10ac>
    4f1a:	46c0      	nop			; (mov r8, r8)
    4f1c:	00000fe9 	.word	0x00000fe9
    4f20:	00000000 	.word	0x00000000
    4f24:	00000134 	.word	0x00000134
    4f28:	800003ff 	.word	0x800003ff
    4f2c:	000003ff 	.word	0x000003ff
    4f30:	4ff00000 	.word	0x4ff00000

00004f34 <lfs_dir_commit>:
    4f34:	b5f0      	push	{r4, r5, r6, r7, lr}
    4f36:	4657      	mov	r7, sl
    4f38:	464e      	mov	r6, r9
    4f3a:	46de      	mov	lr, fp
    4f3c:	4645      	mov	r5, r8
    4f3e:	b5e0      	push	{r5, r6, r7, lr}
    4f40:	4682      	mov	sl, r0
    4f42:	6a84      	ldr	r4, [r0, #40]	; 0x28
    4f44:	6808      	ldr	r0, [r1, #0]
    4f46:	b0d5      	sub	sp, #340	; 0x154
    4f48:	4689      	mov	r9, r1
    4f4a:	920f      	str	r2, [sp, #60]	; 0x3c
    4f4c:	9310      	str	r3, [sp, #64]	; 0x40
    4f4e:	9018      	str	r0, [sp, #96]	; 0x60
    4f50:	2c00      	cmp	r4, #0
    4f52:	d03c      	beq.n	4fce <lfs_dir_commit+0x9a>
    4f54:	2580      	movs	r5, #128	; 0x80
    4f56:	4eb8      	ldr	r6, [pc, #736]	; (5238 <lfs_dir_commit+0x304>)
    4f58:	036d      	lsls	r5, r5, #13
    4f5a:	000f      	movs	r7, r1
    4f5c:	e00a      	b.n	4f74 <lfs_dir_commit+0x40>
    4f5e:	68e1      	ldr	r1, [r4, #12]
    4f60:	687a      	ldr	r2, [r7, #4]
    4f62:	428a      	cmp	r2, r1
    4f64:	d00d      	beq.n	4f82 <lfs_dir_commit+0x4e>
    4f66:	429a      	cmp	r2, r3
    4f68:	d00b      	beq.n	4f82 <lfs_dir_commit+0x4e>
    4f6a:	4281      	cmp	r1, r0
    4f6c:	d009      	beq.n	4f82 <lfs_dir_commit+0x4e>
    4f6e:	6824      	ldr	r4, [r4, #0]
    4f70:	2c00      	cmp	r4, #0
    4f72:	d02a      	beq.n	4fca <lfs_dir_commit+0x96>
    4f74:	0023      	movs	r3, r4
    4f76:	3308      	adds	r3, #8
    4f78:	429f      	cmp	r7, r3
    4f7a:	d0f8      	beq.n	4f6e <lfs_dir_commit+0x3a>
    4f7c:	68a3      	ldr	r3, [r4, #8]
    4f7e:	4283      	cmp	r3, r0
    4f80:	d1ed      	bne.n	4f5e <lfs_dir_commit+0x2a>
    4f82:	79a3      	ldrb	r3, [r4, #6]
    4f84:	2b01      	cmp	r3, #1
    4f86:	d1f2      	bne.n	4f6e <lfs_dir_commit+0x3a>
    4f88:	6b23      	ldr	r3, [r4, #48]	; 0x30
    4f8a:	422b      	tst	r3, r5
    4f8c:	d0ef      	beq.n	4f6e <lfs_dir_commit+0x3a>
    4f8e:	4653      	mov	r3, sl
    4f90:	6e9b      	ldr	r3, [r3, #104]	; 0x68
    4f92:	6ae2      	ldr	r2, [r4, #44]	; 0x2c
    4f94:	6a99      	ldr	r1, [r3, #40]	; 0x28
    4f96:	428a      	cmp	r2, r1
    4f98:	d9e9      	bls.n	4f6e <lfs_dir_commit+0x3a>
    4f9a:	6b62      	ldr	r2, [r4, #52]	; 0x34
    4f9c:	6a1b      	ldr	r3, [r3, #32]
    4f9e:	63e2      	str	r2, [r4, #60]	; 0x3c
    4fa0:	4652      	mov	r2, sl
    4fa2:	0021      	movs	r1, r4
    4fa4:	6613      	str	r3, [r2, #96]	; 0x60
    4fa6:	4650      	mov	r0, sl
    4fa8:	f7fd fbe6 	bl	2778 <lfs_file_relocate>
    4fac:	2800      	cmp	r0, #0
    4fae:	d15a      	bne.n	5066 <lfs_dir_commit+0x132>
    4fb0:	6b23      	ldr	r3, [r4, #48]	; 0x30
    4fb2:	0021      	movs	r1, r4
    4fb4:	4033      	ands	r3, r6
    4fb6:	6323      	str	r3, [r4, #48]	; 0x30
    4fb8:	4650      	mov	r0, sl
    4fba:	f7fd ff37 	bl	2e2c <lfs_file_flush>
    4fbe:	2800      	cmp	r0, #0
    4fc0:	d151      	bne.n	5066 <lfs_dir_commit+0x132>
    4fc2:	6824      	ldr	r4, [r4, #0]
    4fc4:	6838      	ldr	r0, [r7, #0]
    4fc6:	2c00      	cmp	r4, #0
    4fc8:	d1d4      	bne.n	4f74 <lfs_dir_commit+0x40>
    4fca:	46b9      	mov	r9, r7
    4fcc:	9018      	str	r0, [sp, #96]	; 0x60
    4fce:	464a      	mov	r2, r9
    4fd0:	ab44      	add	r3, sp, #272	; 0x110
    4fd2:	ca13      	ldmia	r2!, {r0, r1, r4}
    4fd4:	c313      	stmia	r3!, {r0, r1, r4}
    4fd6:	ca13      	ldmia	r2!, {r0, r1, r4}
    4fd8:	c313      	stmia	r3!, {r0, r1, r4}
    4fda:	ca03      	ldmia	r2!, {r0, r1}
    4fdc:	c303      	stmia	r3!, {r0, r1}
    4fde:	464b      	mov	r3, r9
    4fe0:	685b      	ldr	r3, [r3, #4]
    4fe2:	9315      	str	r3, [sp, #84]	; 0x54
    4fe4:	9b10      	ldr	r3, [sp, #64]	; 0x40
    4fe6:	2b00      	cmp	r3, #0
    4fe8:	d100      	bne.n	4fec <lfs_dir_commit+0xb8>
    4fea:	e073      	b.n	50d4 <lfs_dir_commit+0x1a0>
    4fec:	9b0f      	ldr	r3, [sp, #60]	; 0x3c
    4fee:	4893      	ldr	r0, [pc, #588]	; (523c <lfs_dir_commit+0x308>)
    4ff0:	681b      	ldr	r3, [r3, #0]
    4ff2:	0d1a      	lsrs	r2, r3, #20
    4ff4:	b291      	uxth	r1, r2
    4ff6:	930b      	str	r3, [sp, #44]	; 0x2c
    4ff8:	054b      	lsls	r3, r1, #21
    4ffa:	0d5b      	lsrs	r3, r3, #21
    4ffc:	4283      	cmp	r3, r0
    4ffe:	d100      	bne.n	5002 <lfs_dir_commit+0xce>
    5000:	e190      	b.n	5324 <lfs_dir_commit+0x3f0>
    5002:	488f      	ldr	r0, [pc, #572]	; (5240 <lfs_dir_commit+0x30c>)
    5004:	4283      	cmp	r3, r0
    5006:	d101      	bne.n	500c <lfs_dir_commit+0xd8>
    5008:	f000 fd82 	bl	5b10 <lfs_dir_commit+0xbdc>
    500c:	20e0      	movs	r0, #224	; 0xe0
    500e:	23c0      	movs	r3, #192	; 0xc0
    5010:	00c0      	lsls	r0, r0, #3
    5012:	00db      	lsls	r3, r3, #3
    5014:	4001      	ands	r1, r0
    5016:	4299      	cmp	r1, r3
    5018:	d000      	beq.n	501c <lfs_dir_commit+0xe8>
    501a:	e188      	b.n	532e <lfs_dir_commit+0x3fa>
    501c:	4649      	mov	r1, r9
    501e:	9b0f      	ldr	r3, [sp, #60]	; 0x3c
    5020:	685b      	ldr	r3, [r3, #4]
    5022:	6818      	ldr	r0, [r3, #0]
    5024:	6188      	str	r0, [r1, #24]
    5026:	685b      	ldr	r3, [r3, #4]
    5028:	61cb      	str	r3, [r1, #28]
    502a:	2301      	movs	r3, #1
    502c:	401a      	ands	r2, r3
    502e:	75ca      	strb	r2, [r1, #23]
    5030:	e17d      	b.n	532e <lfs_dir_commit+0x3fa>
    5032:	3b01      	subs	r3, #1
    5034:	4698      	mov	r8, r3
    5036:	9b18      	ldr	r3, [sp, #96]	; 0x60
    5038:	4657      	mov	r7, sl
    503a:	465c      	mov	r4, fp
    503c:	2500      	movs	r5, #0
    503e:	469a      	mov	sl, r3
    5040:	68a3      	ldr	r3, [r4, #8]
    5042:	4553      	cmp	r3, sl
    5044:	d100      	bne.n	5048 <lfs_dir_commit+0x114>
    5046:	e315      	b.n	5674 <lfs_dir_commit+0x740>
    5048:	68e2      	ldr	r2, [r4, #12]
    504a:	9915      	ldr	r1, [sp, #84]	; 0x54
    504c:	4291      	cmp	r1, r2
    504e:	d100      	bne.n	5052 <lfs_dir_commit+0x11e>
    5050:	e310      	b.n	5674 <lfs_dir_commit+0x740>
    5052:	4299      	cmp	r1, r3
    5054:	d100      	bne.n	5058 <lfs_dir_commit+0x124>
    5056:	e30d      	b.n	5674 <lfs_dir_commit+0x740>
    5058:	4552      	cmp	r2, sl
    505a:	d100      	bne.n	505e <lfs_dir_commit+0x12a>
    505c:	e30a      	b.n	5674 <lfs_dir_commit+0x740>
    505e:	6824      	ldr	r4, [r4, #0]
    5060:	2c00      	cmp	r4, #0
    5062:	d1ed      	bne.n	5040 <lfs_dir_commit+0x10c>
    5064:	2000      	movs	r0, #0
    5066:	b055      	add	sp, #340	; 0x154
    5068:	bc3c      	pop	{r2, r3, r4, r5}
    506a:	4690      	mov	r8, r2
    506c:	4699      	mov	r9, r3
    506e:	46a2      	mov	sl, r4
    5070:	46ab      	mov	fp, r5
    5072:	bdf0      	pop	{r4, r5, r6, r7, pc}
    5074:	464b      	mov	r3, r9
    5076:	4649      	mov	r1, r9
    5078:	8a9b      	ldrh	r3, [r3, #20]
    507a:	3301      	adds	r3, #1
    507c:	828b      	strh	r3, [r1, #20]
    507e:	9b10      	ldr	r3, [sp, #64]	; 0x40
    5080:	2b05      	cmp	r3, #5
    5082:	d120      	bne.n	50c6 <lfs_dir_commit+0x192>
    5084:	9b0f      	ldr	r3, [sp, #60]	; 0x3c
    5086:	4c6d      	ldr	r4, [pc, #436]	; (523c <lfs_dir_commit+0x308>)
    5088:	6a1b      	ldr	r3, [r3, #32]
    508a:	0d19      	lsrs	r1, r3, #20
    508c:	b288      	uxth	r0, r1
    508e:	930b      	str	r3, [sp, #44]	; 0x2c
    5090:	0543      	lsls	r3, r0, #21
    5092:	0d5b      	lsrs	r3, r3, #21
    5094:	42a3      	cmp	r3, r4
    5096:	d101      	bne.n	509c <lfs_dir_commit+0x168>
    5098:	f000 fddf 	bl	5c5a <lfs_dir_commit+0xd26>
    509c:	4c68      	ldr	r4, [pc, #416]	; (5240 <lfs_dir_commit+0x30c>)
    509e:	42a3      	cmp	r3, r4
    50a0:	d100      	bne.n	50a4 <lfs_dir_commit+0x170>
    50a2:	e387      	b.n	57b4 <lfs_dir_commit+0x880>
    50a4:	24e0      	movs	r4, #224	; 0xe0
    50a6:	23c0      	movs	r3, #192	; 0xc0
    50a8:	00e4      	lsls	r4, r4, #3
    50aa:	00db      	lsls	r3, r3, #3
    50ac:	4020      	ands	r0, r4
    50ae:	4298      	cmp	r0, r3
    50b0:	d109      	bne.n	50c6 <lfs_dir_commit+0x192>
    50b2:	4648      	mov	r0, r9
    50b4:	9b0f      	ldr	r3, [sp, #60]	; 0x3c
    50b6:	6a5b      	ldr	r3, [r3, #36]	; 0x24
    50b8:	681c      	ldr	r4, [r3, #0]
    50ba:	6184      	str	r4, [r0, #24]
    50bc:	685b      	ldr	r3, [r3, #4]
    50be:	61c3      	str	r3, [r0, #28]
    50c0:	2301      	movs	r3, #1
    50c2:	4019      	ands	r1, r3
    50c4:	75c1      	strb	r1, [r0, #23]
    50c6:	2a00      	cmp	r2, #0
    50c8:	d004      	beq.n	50d4 <lfs_dir_commit+0x1a0>
    50ca:	464b      	mov	r3, r9
    50cc:	8a9b      	ldrh	r3, [r3, #20]
    50ce:	2b00      	cmp	r3, #0
    50d0:	d100      	bne.n	50d4 <lfs_dir_commit+0x1a0>
    50d2:	e363      	b.n	579c <lfs_dir_commit+0x868>
    50d4:	464b      	mov	r3, r9
    50d6:	7d9b      	ldrb	r3, [r3, #22]
    50d8:	2b00      	cmp	r3, #0
    50da:	d100      	bne.n	50de <lfs_dir_commit+0x1aa>
    50dc:	e086      	b.n	51ec <lfs_dir_commit+0x2b8>
    50de:	464b      	mov	r3, r9
    50e0:	681b      	ldr	r3, [r3, #0]
    50e2:	934c      	str	r3, [sp, #304]	; 0x130
    50e4:	464b      	mov	r3, r9
    50e6:	68da      	ldr	r2, [r3, #12]
    50e8:	691b      	ldr	r3, [r3, #16]
    50ea:	920c      	str	r2, [sp, #48]	; 0x30
    50ec:	930b      	str	r3, [sp, #44]	; 0x2c
    50ee:	934e      	str	r3, [sp, #312]	; 0x138
    50f0:	2301      	movs	r3, #1
    50f2:	425b      	negs	r3, r3
    50f4:	934f      	str	r3, [sp, #316]	; 0x13c
    50f6:	4653      	mov	r3, sl
    50f8:	924d      	str	r2, [sp, #308]	; 0x134
    50fa:	9250      	str	r2, [sp, #320]	; 0x140
    50fc:	6e9a      	ldr	r2, [r3, #104]	; 0x68
    50fe:	6c93      	ldr	r3, [r2, #72]	; 0x48
    5100:	2b00      	cmp	r3, #0
    5102:	d100      	bne.n	5106 <lfs_dir_commit+0x1d2>
    5104:	e10c      	b.n	5320 <lfs_dir_commit+0x3ec>
    5106:	3b08      	subs	r3, #8
    5108:	9351      	str	r3, [sp, #324]	; 0x144
    510a:	4653      	mov	r3, sl
    510c:	9a10      	ldr	r2, [sp, #64]	; 0x40
    510e:	9336      	str	r3, [sp, #216]	; 0xd8
    5110:	920d      	str	r2, [sp, #52]	; 0x34
    5112:	9a0f      	ldr	r2, [sp, #60]	; 0x3c
    5114:	ab4c      	add	r3, sp, #304	; 0x130
    5116:	9337      	str	r3, [sp, #220]	; 0xdc
    5118:	4690      	mov	r8, r2
    511a:	9b0c      	ldr	r3, [sp, #48]	; 0x30
    511c:	46cb      	mov	fp, r9
    511e:	e028      	b.n	5172 <lfs_dir_commit+0x23e>
    5120:	9b0d      	ldr	r3, [sp, #52]	; 0x34
    5122:	2b00      	cmp	r3, #0
    5124:	d100      	bne.n	5128 <lfs_dir_commit+0x1f4>
    5126:	e2db      	b.n	56e0 <lfs_dir_commit+0x7ac>
    5128:	4641      	mov	r1, r8
    512a:	684f      	ldr	r7, [r1, #4]
    512c:	2108      	movs	r1, #8
    512e:	4642      	mov	r2, r8
    5130:	468c      	mov	ip, r1
    5132:	6812      	ldr	r2, [r2, #0]
    5134:	3b01      	subs	r3, #1
    5136:	9231      	str	r2, [sp, #196]	; 0xc4
    5138:	44e0      	add	r8, ip
    513a:	930d      	str	r3, [sp, #52]	; 0x34
    513c:	0053      	lsls	r3, r2, #1
    513e:	0d5b      	lsrs	r3, r3, #21
    5140:	d015      	beq.n	516e <lfs_dir_commit+0x23a>
    5142:	2102      	movs	r1, #2
    5144:	31ff      	adds	r1, #255	; 0xff
    5146:	428b      	cmp	r3, r1
    5148:	d100      	bne.n	514c <lfs_dir_commit+0x218>
    514a:	e1ab      	b.n	54a4 <lfs_dir_commit+0x570>
    514c:	2181      	movs	r1, #129	; 0x81
    514e:	0049      	lsls	r1, r1, #1
    5150:	428b      	cmp	r3, r1
    5152:	d100      	bne.n	5156 <lfs_dir_commit+0x222>
    5154:	e15d      	b.n	5412 <lfs_dir_commit+0x4de>
    5156:	9b37      	ldr	r3, [sp, #220]	; 0xdc
    5158:	930e      	str	r3, [sp, #56]	; 0x38
    515a:	9b36      	ldr	r3, [sp, #216]	; 0xd8
    515c:	990e      	ldr	r1, [sp, #56]	; 0x38
    515e:	9311      	str	r3, [sp, #68]	; 0x44
    5160:	9811      	ldr	r0, [sp, #68]	; 0x44
    5162:	003b      	movs	r3, r7
    5164:	f7fb fd86 	bl	c74 <lfs_dir_commitattr>
    5168:	2800      	cmp	r0, #0
    516a:	d000      	beq.n	516e <lfs_dir_commit+0x23a>
    516c:	e175      	b.n	545a <lfs_dir_commit+0x526>
    516e:	465b      	mov	r3, fp
    5170:	68db      	ldr	r3, [r3, #12]
    5172:	990b      	ldr	r1, [sp, #44]	; 0x2c
    5174:	058c      	lsls	r4, r1, #22
    5176:	15a4      	asrs	r4, r4, #22
    5178:	3401      	adds	r4, #1
    517a:	4262      	negs	r2, r4
    517c:	4154      	adcs	r4, r2
    517e:	468c      	mov	ip, r1
    5180:	9a0c      	ldr	r2, [sp, #48]	; 0x30
    5182:	4464      	add	r4, ip
    5184:	05a4      	lsls	r4, r4, #22
    5186:	0da4      	lsrs	r4, r4, #22
    5188:	3204      	adds	r2, #4
    518a:	18a4      	adds	r4, r4, r2
    518c:	429c      	cmp	r4, r3
    518e:	d2c7      	bcs.n	5120 <lfs_dir_commit+0x1ec>
    5190:	465b      	mov	r3, fp
    5192:	681a      	ldr	r2, [r3, #0]
    5194:	4653      	mov	r3, sl
    5196:	4650      	mov	r0, sl
    5198:	6e9b      	ldr	r3, [r3, #104]	; 0x68
    519a:	3068      	adds	r0, #104	; 0x68
    519c:	6a19      	ldr	r1, [r3, #32]
    519e:	428a      	cmp	r2, r1
    51a0:	d300      	bcc.n	51a4 <lfs_dir_commit+0x270>
    51a2:	e328      	b.n	57f6 <lfs_dir_commit+0x8c2>
    51a4:	69db      	ldr	r3, [r3, #28]
    51a6:	1d25      	adds	r5, r4, #4
    51a8:	429d      	cmp	r5, r3
    51aa:	d900      	bls.n	51ae <lfs_dir_commit+0x27a>
    51ac:	e323      	b.n	57f6 <lfs_dir_commit+0x8c2>
    51ae:	2304      	movs	r3, #4
    51b0:	9303      	str	r3, [sp, #12]
    51b2:	ab31      	add	r3, sp, #196	; 0xc4
    51b4:	9302      	str	r3, [sp, #8]
    51b6:	9200      	str	r2, [sp, #0]
    51b8:	9401      	str	r4, [sp, #4]
    51ba:	2304      	movs	r3, #4
    51bc:	4652      	mov	r2, sl
    51be:	2100      	movs	r1, #0
    51c0:	f7fa ffee 	bl	1a0 <lfs_bd_read.isra.21.part.22>
    51c4:	2800      	cmp	r0, #0
    51c6:	d000      	beq.n	51ca <lfs_dir_commit+0x296>
    51c8:	e147      	b.n	545a <lfs_dir_commit+0x526>
    51ca:	9b31      	ldr	r3, [sp, #196]	; 0xc4
    51cc:	9539      	str	r5, [sp, #228]	; 0xe4
    51ce:	ba1a      	rev	r2, r3
    51d0:	9b0b      	ldr	r3, [sp, #44]	; 0x2c
    51d2:	940c      	str	r4, [sp, #48]	; 0x30
    51d4:	4053      	eors	r3, r2
    51d6:	001a      	movs	r2, r3
    51d8:	2380      	movs	r3, #128	; 0x80
    51da:	061b      	lsls	r3, r3, #24
    51dc:	431a      	orrs	r2, r3
    51de:	465b      	mov	r3, fp
    51e0:	681b      	ldr	r3, [r3, #0]
    51e2:	9231      	str	r2, [sp, #196]	; 0xc4
    51e4:	9338      	str	r3, [sp, #224]	; 0xe0
    51e6:	920b      	str	r2, [sp, #44]	; 0x2c
    51e8:	af38      	add	r7, sp, #224	; 0xe0
    51ea:	e7a7      	b.n	513c <lfs_dir_commit+0x208>
    51ec:	464b      	mov	r3, r9
    51ee:	8a9b      	ldrh	r3, [r3, #20]
    51f0:	2bfe      	cmp	r3, #254	; 0xfe
    51f2:	d900      	bls.n	51f6 <lfs_dir_commit+0x2c2>
    51f4:	e773      	b.n	50de <lfs_dir_commit+0x1aa>
    51f6:	2201      	movs	r2, #1
    51f8:	4651      	mov	r1, sl
    51fa:	4252      	negs	r2, r2
    51fc:	610a      	str	r2, [r1, #16]
    51fe:	9302      	str	r3, [sp, #8]
    5200:	2300      	movs	r3, #0
    5202:	9301      	str	r3, [sp, #4]
    5204:	464b      	mov	r3, r9
    5206:	9a0f      	ldr	r2, [sp, #60]	; 0x3c
    5208:	9300      	str	r3, [sp, #0]
    520a:	4649      	mov	r1, r9
    520c:	9b10      	ldr	r3, [sp, #64]	; 0x40
    520e:	4650      	mov	r0, sl
    5210:	f7fe fddc 	bl	3dcc <lfs_dir_compact>
    5214:	2800      	cmp	r0, #0
    5216:	d000      	beq.n	521a <lfs_dir_commit+0x2e6>
    5218:	e128      	b.n	546c <lfs_dir_commit+0x538>
    521a:	4653      	mov	r3, sl
    521c:	6a9c      	ldr	r4, [r3, #40]	; 0x28
    521e:	1e23      	subs	r3, r4, #0
    5220:	d100      	bne.n	5224 <lfs_dir_commit+0x2f0>
    5222:	e71f      	b.n	5064 <lfs_dir_commit+0x130>
    5224:	9a18      	ldr	r2, [sp, #96]	; 0x60
    5226:	46a3      	mov	fp, r4
    5228:	464c      	mov	r4, r9
    522a:	4691      	mov	r9, r2
    522c:	9a0f      	ldr	r2, [sp, #60]	; 0x3c
    522e:	4d04      	ldr	r5, [pc, #16]	; (5240 <lfs_dir_commit+0x30c>)
    5230:	4690      	mov	r8, r2
    5232:	9a10      	ldr	r2, [sp, #64]	; 0x40
    5234:	4694      	mov	ip, r2
    5236:	e011      	b.n	525c <lfs_dir_commit+0x328>
    5238:	ffefffff 	.word	0xffefffff
    523c:	00000401 	.word	0x00000401
    5240:	000004ff 	.word	0x000004ff
    5244:	68d9      	ldr	r1, [r3, #12]
    5246:	9e15      	ldr	r6, [sp, #84]	; 0x54
    5248:	428e      	cmp	r6, r1
    524a:	d00e      	beq.n	526a <lfs_dir_commit+0x336>
    524c:	4296      	cmp	r6, r2
    524e:	d00c      	beq.n	526a <lfs_dir_commit+0x336>
    5250:	4549      	cmp	r1, r9
    5252:	d00a      	beq.n	526a <lfs_dir_commit+0x336>
    5254:	681b      	ldr	r3, [r3, #0]
    5256:	2b00      	cmp	r3, #0
    5258:	d100      	bne.n	525c <lfs_dir_commit+0x328>
    525a:	e6ea      	b.n	5032 <lfs_dir_commit+0xfe>
    525c:	0018      	movs	r0, r3
    525e:	3008      	adds	r0, #8
    5260:	4284      	cmp	r4, r0
    5262:	d0f7      	beq.n	5254 <lfs_dir_commit+0x320>
    5264:	689a      	ldr	r2, [r3, #8]
    5266:	454a      	cmp	r2, r9
    5268:	d1ec      	bne.n	5244 <lfs_dir_commit+0x310>
    526a:	0002      	movs	r2, r0
    526c:	0021      	movs	r1, r4
    526e:	c9c1      	ldmia	r1!, {r0, r6, r7}
    5270:	c2c1      	stmia	r2!, {r0, r6, r7}
    5272:	c9c1      	ldmia	r1!, {r0, r6, r7}
    5274:	c2c1      	stmia	r2!, {r0, r6, r7}
    5276:	c941      	ldmia	r1!, {r0, r6}
    5278:	c241      	stmia	r2!, {r0, r6}
    527a:	4662      	mov	r2, ip
    527c:	2a00      	cmp	r2, #0
    527e:	d0e9      	beq.n	5254 <lfs_dir_commit+0x320>
    5280:	4642      	mov	r2, r8
    5282:	6812      	ldr	r2, [r2, #0]
    5284:	0051      	lsls	r1, r2, #1
    5286:	0d49      	lsrs	r1, r1, #21
    5288:	42a9      	cmp	r1, r5
    528a:	d100      	bne.n	528e <lfs_dir_commit+0x35a>
    528c:	e0af      	b.n	53ee <lfs_dir_commit+0x4ba>
    528e:	48d4      	ldr	r0, [pc, #848]	; (55e0 <lfs_dir_commit+0x6ac>)
    5290:	4281      	cmp	r1, r0
    5292:	d100      	bne.n	5296 <lfs_dir_commit+0x362>
    5294:	e1bc      	b.n	5610 <lfs_dir_commit+0x6dc>
    5296:	4662      	mov	r2, ip
    5298:	2a01      	cmp	r2, #1
    529a:	d0db      	beq.n	5254 <lfs_dir_commit+0x320>
    529c:	4642      	mov	r2, r8
    529e:	6892      	ldr	r2, [r2, #8]
    52a0:	0051      	lsls	r1, r2, #1
    52a2:	0d49      	lsrs	r1, r1, #21
    52a4:	42a9      	cmp	r1, r5
    52a6:	d100      	bne.n	52aa <lfs_dir_commit+0x376>
    52a8:	e0e9      	b.n	547e <lfs_dir_commit+0x54a>
    52aa:	48cd      	ldr	r0, [pc, #820]	; (55e0 <lfs_dir_commit+0x6ac>)
    52ac:	4281      	cmp	r1, r0
    52ae:	d100      	bne.n	52b2 <lfs_dir_commit+0x37e>
    52b0:	e1d0      	b.n	5654 <lfs_dir_commit+0x720>
    52b2:	4662      	mov	r2, ip
    52b4:	2a02      	cmp	r2, #2
    52b6:	d0cd      	beq.n	5254 <lfs_dir_commit+0x320>
    52b8:	4642      	mov	r2, r8
    52ba:	6912      	ldr	r2, [r2, #16]
    52bc:	0051      	lsls	r1, r2, #1
    52be:	0d49      	lsrs	r1, r1, #21
    52c0:	42a9      	cmp	r1, r5
    52c2:	d100      	bne.n	52c6 <lfs_dir_commit+0x392>
    52c4:	e192      	b.n	55ec <lfs_dir_commit+0x6b8>
    52c6:	48c6      	ldr	r0, [pc, #792]	; (55e0 <lfs_dir_commit+0x6ac>)
    52c8:	4281      	cmp	r1, r0
    52ca:	d100      	bne.n	52ce <lfs_dir_commit+0x39a>
    52cc:	e240      	b.n	5750 <lfs_dir_commit+0x81c>
    52ce:	4662      	mov	r2, ip
    52d0:	2a03      	cmp	r2, #3
    52d2:	d0bf      	beq.n	5254 <lfs_dir_commit+0x320>
    52d4:	4642      	mov	r2, r8
    52d6:	6992      	ldr	r2, [r2, #24]
    52d8:	0051      	lsls	r1, r2, #1
    52da:	0d49      	lsrs	r1, r1, #21
    52dc:	42a9      	cmp	r1, r5
    52de:	d100      	bne.n	52e2 <lfs_dir_commit+0x3ae>
    52e0:	e1a6      	b.n	5630 <lfs_dir_commit+0x6fc>
    52e2:	48bf      	ldr	r0, [pc, #764]	; (55e0 <lfs_dir_commit+0x6ac>)
    52e4:	4281      	cmp	r1, r0
    52e6:	d100      	bne.n	52ea <lfs_dir_commit+0x3b6>
    52e8:	e242      	b.n	5770 <lfs_dir_commit+0x83c>
    52ea:	4662      	mov	r2, ip
    52ec:	2a05      	cmp	r2, #5
    52ee:	d1b1      	bne.n	5254 <lfs_dir_commit+0x320>
    52f0:	4642      	mov	r2, r8
    52f2:	6a12      	ldr	r2, [r2, #32]
    52f4:	0051      	lsls	r1, r2, #1
    52f6:	0d49      	lsrs	r1, r1, #21
    52f8:	42a9      	cmp	r1, r5
    52fa:	d100      	bne.n	52fe <lfs_dir_commit+0x3ca>
    52fc:	e1de      	b.n	56bc <lfs_dir_commit+0x788>
    52fe:	48b8      	ldr	r0, [pc, #736]	; (55e0 <lfs_dir_commit+0x6ac>)
    5300:	4281      	cmp	r1, r0
    5302:	d1a7      	bne.n	5254 <lfs_dir_commit+0x320>
    5304:	8899      	ldrh	r1, [r3, #4]
    5306:	0312      	lsls	r2, r2, #12
    5308:	0d92      	lsrs	r2, r2, #22
    530a:	4291      	cmp	r1, r2
    530c:	d3a2      	bcc.n	5254 <lfs_dir_commit+0x320>
    530e:	799a      	ldrb	r2, [r3, #6]
    5310:	3101      	adds	r1, #1
    5312:	8099      	strh	r1, [r3, #4]
    5314:	2a02      	cmp	r2, #2
    5316:	d19d      	bne.n	5254 <lfs_dir_commit+0x320>
    5318:	6a9a      	ldr	r2, [r3, #40]	; 0x28
    531a:	3201      	adds	r2, #1
    531c:	629a      	str	r2, [r3, #40]	; 0x28
    531e:	e799      	b.n	5254 <lfs_dir_commit+0x320>
    5320:	69d3      	ldr	r3, [r2, #28]
    5322:	e6f0      	b.n	5106 <lfs_dir_commit+0x1d2>
    5324:	464b      	mov	r3, r9
    5326:	464a      	mov	r2, r9
    5328:	8a9b      	ldrh	r3, [r3, #20]
    532a:	3301      	adds	r3, #1
    532c:	8293      	strh	r3, [r2, #20]
    532e:	9b10      	ldr	r3, [sp, #64]	; 0x40
    5330:	2200      	movs	r2, #0
    5332:	2b01      	cmp	r3, #1
    5334:	d100      	bne.n	5338 <lfs_dir_commit+0x404>
    5336:	e6cd      	b.n	50d4 <lfs_dir_commit+0x1a0>
    5338:	9b0f      	ldr	r3, [sp, #60]	; 0x3c
    533a:	4ca9      	ldr	r4, [pc, #676]	; (55e0 <lfs_dir_commit+0x6ac>)
    533c:	689b      	ldr	r3, [r3, #8]
    533e:	0d18      	lsrs	r0, r3, #20
    5340:	b281      	uxth	r1, r0
    5342:	930b      	str	r3, [sp, #44]	; 0x2c
    5344:	054b      	lsls	r3, r1, #21
    5346:	0d5b      	lsrs	r3, r3, #21
    5348:	42a3      	cmp	r3, r4
    534a:	d100      	bne.n	534e <lfs_dir_commit+0x41a>
    534c:	e220      	b.n	5790 <lfs_dir_commit+0x85c>
    534e:	4ca5      	ldr	r4, [pc, #660]	; (55e4 <lfs_dir_commit+0x6b0>)
    5350:	42a3      	cmp	r3, r4
    5352:	d101      	bne.n	5358 <lfs_dir_commit+0x424>
    5354:	f000 fc8e 	bl	5c74 <lfs_dir_commit+0xd40>
    5358:	24e0      	movs	r4, #224	; 0xe0
    535a:	23c0      	movs	r3, #192	; 0xc0
    535c:	00e4      	lsls	r4, r4, #3
    535e:	00db      	lsls	r3, r3, #3
    5360:	4021      	ands	r1, r4
    5362:	4299      	cmp	r1, r3
    5364:	d100      	bne.n	5368 <lfs_dir_commit+0x434>
    5366:	e230      	b.n	57ca <lfs_dir_commit+0x896>
    5368:	9b10      	ldr	r3, [sp, #64]	; 0x40
    536a:	2b02      	cmp	r3, #2
    536c:	d100      	bne.n	5370 <lfs_dir_commit+0x43c>
    536e:	e6aa      	b.n	50c6 <lfs_dir_commit+0x192>
    5370:	9b0f      	ldr	r3, [sp, #60]	; 0x3c
    5372:	4c9b      	ldr	r4, [pc, #620]	; (55e0 <lfs_dir_commit+0x6ac>)
    5374:	691b      	ldr	r3, [r3, #16]
    5376:	0d18      	lsrs	r0, r3, #20
    5378:	b281      	uxth	r1, r0
    537a:	930b      	str	r3, [sp, #44]	; 0x2c
    537c:	054b      	lsls	r3, r1, #21
    537e:	0d5b      	lsrs	r3, r3, #21
    5380:	42a3      	cmp	r3, r4
    5382:	d100      	bne.n	5386 <lfs_dir_commit+0x452>
    5384:	e3b8      	b.n	5af8 <lfs_dir_commit+0xbc4>
    5386:	4c97      	ldr	r4, [pc, #604]	; (55e4 <lfs_dir_commit+0x6b0>)
    5388:	42a3      	cmp	r3, r4
    538a:	d101      	bne.n	5390 <lfs_dir_commit+0x45c>
    538c:	f000 fcec 	bl	5d68 <lfs_dir_commit+0xe34>
    5390:	24e0      	movs	r4, #224	; 0xe0
    5392:	23c0      	movs	r3, #192	; 0xc0
    5394:	00e4      	lsls	r4, r4, #3
    5396:	00db      	lsls	r3, r3, #3
    5398:	4021      	ands	r1, r4
    539a:	4299      	cmp	r1, r3
    539c:	d100      	bne.n	53a0 <lfs_dir_commit+0x46c>
    539e:	e21f      	b.n	57e0 <lfs_dir_commit+0x8ac>
    53a0:	9b10      	ldr	r3, [sp, #64]	; 0x40
    53a2:	2b03      	cmp	r3, #3
    53a4:	d100      	bne.n	53a8 <lfs_dir_commit+0x474>
    53a6:	e68e      	b.n	50c6 <lfs_dir_commit+0x192>
    53a8:	9b0f      	ldr	r3, [sp, #60]	; 0x3c
    53aa:	4c8d      	ldr	r4, [pc, #564]	; (55e0 <lfs_dir_commit+0x6ac>)
    53ac:	699b      	ldr	r3, [r3, #24]
    53ae:	0d18      	lsrs	r0, r3, #20
    53b0:	b281      	uxth	r1, r0
    53b2:	930b      	str	r3, [sp, #44]	; 0x2c
    53b4:	054b      	lsls	r3, r1, #21
    53b6:	0d5b      	lsrs	r3, r3, #21
    53b8:	42a3      	cmp	r3, r4
    53ba:	d100      	bne.n	53be <lfs_dir_commit+0x48a>
    53bc:	e65a      	b.n	5074 <lfs_dir_commit+0x140>
    53be:	4c89      	ldr	r4, [pc, #548]	; (55e4 <lfs_dir_commit+0x6b0>)
    53c0:	42a3      	cmp	r3, r4
    53c2:	d101      	bne.n	53c8 <lfs_dir_commit+0x494>
    53c4:	f000 fcdd 	bl	5d82 <lfs_dir_commit+0xe4e>
    53c8:	24e0      	movs	r4, #224	; 0xe0
    53ca:	23c0      	movs	r3, #192	; 0xc0
    53cc:	00e4      	lsls	r4, r4, #3
    53ce:	00db      	lsls	r3, r3, #3
    53d0:	4021      	ands	r1, r4
    53d2:	4299      	cmp	r1, r3
    53d4:	d000      	beq.n	53d8 <lfs_dir_commit+0x4a4>
    53d6:	e652      	b.n	507e <lfs_dir_commit+0x14a>
    53d8:	4649      	mov	r1, r9
    53da:	9b0f      	ldr	r3, [sp, #60]	; 0x3c
    53dc:	69db      	ldr	r3, [r3, #28]
    53de:	681c      	ldr	r4, [r3, #0]
    53e0:	618c      	str	r4, [r1, #24]
    53e2:	685b      	ldr	r3, [r3, #4]
    53e4:	61cb      	str	r3, [r1, #28]
    53e6:	2301      	movs	r3, #1
    53e8:	4018      	ands	r0, r3
    53ea:	75c8      	strb	r0, [r1, #23]
    53ec:	e647      	b.n	507e <lfs_dir_commit+0x14a>
    53ee:	8899      	ldrh	r1, [r3, #4]
    53f0:	0312      	lsls	r2, r2, #12
    53f2:	0d92      	lsrs	r2, r2, #22
    53f4:	428a      	cmp	r2, r1
    53f6:	d100      	bne.n	53fa <lfs_dir_commit+0x4c6>
    53f8:	e384      	b.n	5b04 <lfs_dir_commit+0xbd0>
    53fa:	d300      	bcc.n	53fe <lfs_dir_commit+0x4ca>
    53fc:	e74b      	b.n	5296 <lfs_dir_commit+0x362>
    53fe:	799a      	ldrb	r2, [r3, #6]
    5400:	3901      	subs	r1, #1
    5402:	8099      	strh	r1, [r3, #4]
    5404:	2a02      	cmp	r2, #2
    5406:	d000      	beq.n	540a <lfs_dir_commit+0x4d6>
    5408:	e745      	b.n	5296 <lfs_dir_commit+0x362>
    540a:	6a9a      	ldr	r2, [r3, #40]	; 0x28
    540c:	3a01      	subs	r2, #1
    540e:	629a      	str	r2, [r3, #40]	; 0x28
    5410:	e741      	b.n	5296 <lfs_dir_commit+0x362>
    5412:	0593      	lsls	r3, r2, #22
    5414:	d100      	bne.n	5418 <lfs_dir_commit+0x4e4>
    5416:	e6aa      	b.n	516e <lfs_dir_commit+0x23a>
    5418:	2500      	movs	r5, #0
    541a:	e007      	b.n	542c <lfs_dir_commit+0x4f8>
    541c:	9a31      	ldr	r2, [sp, #196]	; 0xc4
    541e:	3501      	adds	r5, #1
    5420:	0593      	lsls	r3, r2, #22
    5422:	370c      	adds	r7, #12
    5424:	0d9b      	lsrs	r3, r3, #22
    5426:	429d      	cmp	r5, r3
    5428:	d300      	bcc.n	542c <lfs_dir_commit+0x4f8>
    542a:	e6a0      	b.n	516e <lfs_dir_commit+0x23a>
    542c:	21c0      	movs	r1, #192	; 0xc0
    542e:	0089      	lsls	r1, r1, #2
    5430:	468c      	mov	ip, r1
    5432:	0312      	lsls	r2, r2, #12
    5434:	68bb      	ldr	r3, [r7, #8]
    5436:	0d92      	lsrs	r2, r2, #22
    5438:	0292      	lsls	r2, r2, #10
    543a:	431a      	orrs	r2, r3
    543c:	783b      	ldrb	r3, [r7, #0]
    543e:	4463      	add	r3, ip
    5440:	051b      	lsls	r3, r3, #20
    5442:	431a      	orrs	r2, r3
    5444:	9b37      	ldr	r3, [sp, #220]	; 0xdc
    5446:	930e      	str	r3, [sp, #56]	; 0x38
    5448:	9b36      	ldr	r3, [sp, #216]	; 0xd8
    544a:	990e      	ldr	r1, [sp, #56]	; 0x38
    544c:	9311      	str	r3, [sp, #68]	; 0x44
    544e:	9811      	ldr	r0, [sp, #68]	; 0x44
    5450:	687b      	ldr	r3, [r7, #4]
    5452:	f7fb fc0f 	bl	c74 <lfs_dir_commitattr>
    5456:	2800      	cmp	r0, #0
    5458:	d0e0      	beq.n	541c <lfs_dir_commit+0x4e8>
    545a:	46d9      	mov	r9, fp
    545c:	0003      	movs	r3, r0
    545e:	331c      	adds	r3, #28
    5460:	d100      	bne.n	5464 <lfs_dir_commit+0x530>
    5462:	e1c9      	b.n	57f8 <lfs_dir_commit+0x8c4>
    5464:	0003      	movs	r3, r0
    5466:	3354      	adds	r3, #84	; 0x54
    5468:	d100      	bne.n	546c <lfs_dir_commit+0x538>
    546a:	e1c5      	b.n	57f8 <lfs_dir_commit+0x8c4>
    546c:	464b      	mov	r3, r9
    546e:	aa44      	add	r2, sp, #272	; 0x110
    5470:	ca32      	ldmia	r2!, {r1, r4, r5}
    5472:	c332      	stmia	r3!, {r1, r4, r5}
    5474:	ca32      	ldmia	r2!, {r1, r4, r5}
    5476:	c332      	stmia	r3!, {r1, r4, r5}
    5478:	ca12      	ldmia	r2!, {r1, r4}
    547a:	c312      	stmia	r3!, {r1, r4}
    547c:	e5f3      	b.n	5066 <lfs_dir_commit+0x132>
    547e:	8899      	ldrh	r1, [r3, #4]
    5480:	0312      	lsls	r2, r2, #12
    5482:	0d92      	lsrs	r2, r2, #22
    5484:	428a      	cmp	r2, r1
    5486:	d101      	bne.n	548c <lfs_dir_commit+0x558>
    5488:	f000 fbee 	bl	5c68 <lfs_dir_commit+0xd34>
    548c:	d300      	bcc.n	5490 <lfs_dir_commit+0x55c>
    548e:	e710      	b.n	52b2 <lfs_dir_commit+0x37e>
    5490:	799a      	ldrb	r2, [r3, #6]
    5492:	3901      	subs	r1, #1
    5494:	8099      	strh	r1, [r3, #4]
    5496:	2a02      	cmp	r2, #2
    5498:	d000      	beq.n	549c <lfs_dir_commit+0x568>
    549a:	e70a      	b.n	52b2 <lfs_dir_commit+0x37e>
    549c:	6a9a      	ldr	r2, [r3, #40]	; 0x28
    549e:	3a01      	subs	r2, #1
    54a0:	629a      	str	r2, [r3, #40]	; 0x28
    54a2:	e706      	b.n	52b2 <lfs_dir_commit+0x37e>
    54a4:	0593      	lsls	r3, r2, #22
    54a6:	0312      	lsls	r2, r2, #12
    54a8:	0d9b      	lsrs	r3, r3, #22
    54aa:	0d92      	lsrs	r2, r2, #22
    54ac:	1ad2      	subs	r2, r2, r3
    54ae:	1c59      	adds	r1, r3, #1
    54b0:	931c      	str	r3, [sp, #112]	; 0x70
    54b2:	b293      	uxth	r3, r2
    54b4:	9321      	str	r3, [sp, #132]	; 0x84
    54b6:	b21b      	sxth	r3, r3
    54b8:	9324      	str	r3, [sp, #144]	; 0x90
    54ba:	029b      	lsls	r3, r3, #10
    54bc:	931b      	str	r3, [sp, #108]	; 0x6c
    54be:	68fb      	ldr	r3, [r7, #12]
    54c0:	911e      	str	r1, [sp, #120]	; 0x78
    54c2:	2b04      	cmp	r3, #4
    54c4:	d800      	bhi.n	54c8 <lfs_dir_commit+0x594>
    54c6:	e652      	b.n	516e <lfs_dir_commit+0x23a>
    54c8:	2268      	movs	r2, #104	; 0x68
    54ca:	4452      	add	r2, sl
    54cc:	9211      	str	r2, [sp, #68]	; 0x44
    54ce:	4652      	mov	r2, sl
    54d0:	6e92      	ldr	r2, [r2, #104]	; 0x68
    54d2:	683b      	ldr	r3, [r7, #0]
    54d4:	6a11      	ldr	r1, [r2, #32]
    54d6:	4299      	cmp	r1, r3
    54d8:	d800      	bhi.n	54dc <lfs_dir_commit+0x5a8>
    54da:	e18c      	b.n	57f6 <lfs_dir_commit+0x8c2>
    54dc:	69d2      	ldr	r2, [r2, #28]
    54de:	2a07      	cmp	r2, #7
    54e0:	d800      	bhi.n	54e4 <lfs_dir_commit+0x5b0>
    54e2:	e188      	b.n	57f6 <lfs_dir_commit+0x8c2>
    54e4:	2101      	movs	r1, #1
    54e6:	2204      	movs	r2, #4
    54e8:	4249      	negs	r1, r1
    54ea:	000e      	movs	r6, r1
    54ec:	4641      	mov	r1, r8
    54ee:	4690      	mov	r8, r2
    54f0:	465a      	mov	r2, fp
    54f2:	2408      	movs	r4, #8
    54f4:	46d3      	mov	fp, sl
    54f6:	46ba      	mov	sl, r7
    54f8:	9113      	str	r1, [sp, #76]	; 0x4c
    54fa:	9212      	str	r2, [sp, #72]	; 0x48
    54fc:	2204      	movs	r2, #4
    54fe:	9203      	str	r2, [sp, #12]
    5500:	aa32      	add	r2, sp, #200	; 0xc8
    5502:	9202      	str	r2, [sp, #8]
    5504:	4642      	mov	r2, r8
    5506:	9300      	str	r3, [sp, #0]
    5508:	9201      	str	r2, [sp, #4]
    550a:	2304      	movs	r3, #4
    550c:	465a      	mov	r2, fp
    550e:	2100      	movs	r1, #0
    5510:	9811      	ldr	r0, [sp, #68]	; 0x44
    5512:	f7fa fe45 	bl	1a0 <lfs_bd_read.isra.21.part.22>
    5516:	2800      	cmp	r0, #0
    5518:	d000      	beq.n	551c <lfs_dir_commit+0x5e8>
    551a:	e24d      	b.n	59b8 <lfs_dir_commit+0xa84>
    551c:	9b32      	ldr	r3, [sp, #200]	; 0xc8
    551e:	2280      	movs	r2, #128	; 0x80
    5520:	ba1b      	rev	r3, r3
    5522:	405e      	eors	r6, r3
    5524:	4653      	mov	r3, sl
    5526:	681b      	ldr	r3, [r3, #0]
    5528:	943b      	str	r4, [sp, #236]	; 0xec
    552a:	2480      	movs	r4, #128	; 0x80
    552c:	933a      	str	r3, [sp, #232]	; 0xe8
    552e:	23c0      	movs	r3, #192	; 0xc0
    5530:	0612      	lsls	r2, r2, #24
    5532:	4316      	orrs	r6, r2
    5534:	05a4      	lsls	r4, r4, #22
    5536:	4074      	eors	r4, r6
    5538:	05db      	lsls	r3, r3, #23
    553a:	9632      	str	r6, [sp, #200]	; 0xc8
    553c:	401c      	ands	r4, r3
    553e:	d13a      	bne.n	55b6 <lfs_dir_commit+0x682>
    5540:	ab32      	add	r3, sp, #200	; 0xc8
    5542:	9308      	str	r3, [sp, #32]
    5544:	4b28      	ldr	r3, [pc, #160]	; (55e8 <lfs_dir_commit+0x6b4>)
    5546:	9406      	str	r4, [sp, #24]
    5548:	9307      	str	r3, [sp, #28]
    554a:	9405      	str	r4, [sp, #20]
    554c:	9404      	str	r4, [sp, #16]
    554e:	9403      	str	r4, [sp, #12]
    5550:	9402      	str	r4, [sp, #8]
    5552:	9401      	str	r4, [sp, #4]
    5554:	9400      	str	r4, [sp, #0]
    5556:	0033      	movs	r3, r6
    5558:	4642      	mov	r2, r8
    555a:	4651      	mov	r1, sl
    555c:	4658      	mov	r0, fp
    555e:	f7fb f907 	bl	770 <lfs_dir_traverse>
    5562:	2800      	cmp	r0, #0
    5564:	da00      	bge.n	5568 <lfs_dir_commit+0x634>
    5566:	e227      	b.n	59b8 <lfs_dir_commit+0xa84>
    5568:	d125      	bne.n	55b6 <lfs_dir_commit+0x682>
    556a:	9a32      	ldr	r2, [sp, #200]	; 0xc8
    556c:	991c      	ldr	r1, [sp, #112]	; 0x70
    556e:	0a93      	lsrs	r3, r2, #10
    5570:	059d      	lsls	r5, r3, #22
    5572:	0dad      	lsrs	r5, r5, #22
    5574:	42a9      	cmp	r1, r5
    5576:	d81e      	bhi.n	55b6 <lfs_dir_commit+0x682>
    5578:	991e      	ldr	r1, [sp, #120]	; 0x78
    557a:	42a9      	cmp	r1, r5
    557c:	d91b      	bls.n	55b6 <lfs_dir_commit+0x682>
    557e:	0051      	lsls	r1, r2, #1
    5580:	0d49      	lsrs	r1, r1, #21
    5582:	d018      	beq.n	55b6 <lfs_dir_commit+0x682>
    5584:	2002      	movs	r0, #2
    5586:	30ff      	adds	r0, #255	; 0xff
    5588:	4281      	cmp	r1, r0
    558a:	d100      	bne.n	558e <lfs_dir_commit+0x65a>
    558c:	e148      	b.n	5820 <lfs_dir_commit+0x8ec>
    558e:	2081      	movs	r0, #129	; 0x81
    5590:	0040      	lsls	r0, r0, #1
    5592:	4281      	cmp	r1, r0
    5594:	d100      	bne.n	5598 <lfs_dir_commit+0x664>
    5596:	e1e7      	b.n	5968 <lfs_dir_commit+0xa34>
    5598:	9b1b      	ldr	r3, [sp, #108]	; 0x6c
    559a:	469c      	mov	ip, r3
    559c:	9b37      	ldr	r3, [sp, #220]	; 0xdc
    559e:	4462      	add	r2, ip
    55a0:	930e      	str	r3, [sp, #56]	; 0x38
    55a2:	9b36      	ldr	r3, [sp, #216]	; 0xd8
    55a4:	990e      	ldr	r1, [sp, #56]	; 0x38
    55a6:	9314      	str	r3, [sp, #80]	; 0x50
    55a8:	9814      	ldr	r0, [sp, #80]	; 0x50
    55aa:	ab3a      	add	r3, sp, #232	; 0xe8
    55ac:	f7fb fb62 	bl	c74 <lfs_dir_commitattr>
    55b0:	2800      	cmp	r0, #0
    55b2:	d000      	beq.n	55b6 <lfs_dir_commit+0x682>
    55b4:	e200      	b.n	59b8 <lfs_dir_commit+0xa84>
    55b6:	05b3      	lsls	r3, r6, #22
    55b8:	159b      	asrs	r3, r3, #22
    55ba:	3301      	adds	r3, #1
    55bc:	425a      	negs	r2, r3
    55be:	4153      	adcs	r3, r2
    55c0:	199b      	adds	r3, r3, r6
    55c2:	059b      	lsls	r3, r3, #22
    55c4:	0d9b      	lsrs	r3, r3, #22
    55c6:	3304      	adds	r3, #4
    55c8:	4498      	add	r8, r3
    55ca:	4653      	mov	r3, sl
    55cc:	68db      	ldr	r3, [r3, #12]
    55ce:	4598      	cmp	r8, r3
    55d0:	d200      	bcs.n	55d4 <lfs_dir_commit+0x6a0>
    55d2:	e114      	b.n	57fe <lfs_dir_commit+0x8ca>
    55d4:	9b13      	ldr	r3, [sp, #76]	; 0x4c
    55d6:	46da      	mov	sl, fp
    55d8:	4698      	mov	r8, r3
    55da:	9b12      	ldr	r3, [sp, #72]	; 0x48
    55dc:	469b      	mov	fp, r3
    55de:	e5c6      	b.n	516e <lfs_dir_commit+0x23a>
    55e0:	00000401 	.word	0x00000401
    55e4:	000004ff 	.word	0x000004ff
    55e8:	00000000 	.word	0x00000000
    55ec:	8899      	ldrh	r1, [r3, #4]
    55ee:	0312      	lsls	r2, r2, #12
    55f0:	0d92      	lsrs	r2, r2, #22
    55f2:	428a      	cmp	r2, r1
    55f4:	d100      	bne.n	55f8 <lfs_dir_commit+0x6c4>
    55f6:	e3b1      	b.n	5d5c <lfs_dir_commit+0xe28>
    55f8:	d300      	bcc.n	55fc <lfs_dir_commit+0x6c8>
    55fa:	e668      	b.n	52ce <lfs_dir_commit+0x39a>
    55fc:	799a      	ldrb	r2, [r3, #6]
    55fe:	3901      	subs	r1, #1
    5600:	8099      	strh	r1, [r3, #4]
    5602:	2a02      	cmp	r2, #2
    5604:	d000      	beq.n	5608 <lfs_dir_commit+0x6d4>
    5606:	e662      	b.n	52ce <lfs_dir_commit+0x39a>
    5608:	6a9a      	ldr	r2, [r3, #40]	; 0x28
    560a:	3a01      	subs	r2, #1
    560c:	629a      	str	r2, [r3, #40]	; 0x28
    560e:	e65e      	b.n	52ce <lfs_dir_commit+0x39a>
    5610:	8899      	ldrh	r1, [r3, #4]
    5612:	0312      	lsls	r2, r2, #12
    5614:	0d92      	lsrs	r2, r2, #22
    5616:	4291      	cmp	r1, r2
    5618:	d200      	bcs.n	561c <lfs_dir_commit+0x6e8>
    561a:	e63c      	b.n	5296 <lfs_dir_commit+0x362>
    561c:	799a      	ldrb	r2, [r3, #6]
    561e:	3101      	adds	r1, #1
    5620:	8099      	strh	r1, [r3, #4]
    5622:	2a02      	cmp	r2, #2
    5624:	d000      	beq.n	5628 <lfs_dir_commit+0x6f4>
    5626:	e636      	b.n	5296 <lfs_dir_commit+0x362>
    5628:	6a9a      	ldr	r2, [r3, #40]	; 0x28
    562a:	3201      	adds	r2, #1
    562c:	629a      	str	r2, [r3, #40]	; 0x28
    562e:	e632      	b.n	5296 <lfs_dir_commit+0x362>
    5630:	8899      	ldrh	r1, [r3, #4]
    5632:	0312      	lsls	r2, r2, #12
    5634:	0d92      	lsrs	r2, r2, #22
    5636:	428a      	cmp	r2, r1
    5638:	d100      	bne.n	563c <lfs_dir_commit+0x708>
    563a:	e3af      	b.n	5d9c <lfs_dir_commit+0xe68>
    563c:	d300      	bcc.n	5640 <lfs_dir_commit+0x70c>
    563e:	e654      	b.n	52ea <lfs_dir_commit+0x3b6>
    5640:	799a      	ldrb	r2, [r3, #6]
    5642:	3901      	subs	r1, #1
    5644:	8099      	strh	r1, [r3, #4]
    5646:	2a02      	cmp	r2, #2
    5648:	d000      	beq.n	564c <lfs_dir_commit+0x718>
    564a:	e64e      	b.n	52ea <lfs_dir_commit+0x3b6>
    564c:	6a9a      	ldr	r2, [r3, #40]	; 0x28
    564e:	3a01      	subs	r2, #1
    5650:	629a      	str	r2, [r3, #40]	; 0x28
    5652:	e64a      	b.n	52ea <lfs_dir_commit+0x3b6>
    5654:	8899      	ldrh	r1, [r3, #4]
    5656:	0312      	lsls	r2, r2, #12
    5658:	0d92      	lsrs	r2, r2, #22
    565a:	428a      	cmp	r2, r1
    565c:	d900      	bls.n	5660 <lfs_dir_commit+0x72c>
    565e:	e628      	b.n	52b2 <lfs_dir_commit+0x37e>
    5660:	799a      	ldrb	r2, [r3, #6]
    5662:	3101      	adds	r1, #1
    5664:	8099      	strh	r1, [r3, #4]
    5666:	2a02      	cmp	r2, #2
    5668:	d000      	beq.n	566c <lfs_dir_commit+0x738>
    566a:	e622      	b.n	52b2 <lfs_dir_commit+0x37e>
    566c:	6a9a      	ldr	r2, [r3, #40]	; 0x28
    566e:	3201      	adds	r2, #1
    5670:	629a      	str	r2, [r3, #40]	; 0x28
    5672:	e61e      	b.n	52b2 <lfs_dir_commit+0x37e>
    5674:	2320      	movs	r3, #32
    5676:	0026      	movs	r6, r4
    5678:	4699      	mov	r9, r3
    567a:	3608      	adds	r6, #8
    567c:	44a1      	add	r9, r4
    567e:	e014      	b.n	56aa <lfs_dir_commit+0x776>
    5680:	7fe1      	ldrb	r1, [r4, #31]
    5682:	2900      	cmp	r1, #0
    5684:	d100      	bne.n	5688 <lfs_dir_commit+0x754>
    5686:	e4ea      	b.n	505e <lfs_dir_commit+0x12a>
    5688:	1a9b      	subs	r3, r3, r2
    568a:	80a3      	strh	r3, [r4, #4]
    568c:	4643      	mov	r3, r8
    568e:	9300      	str	r3, [sp, #0]
    5690:	2301      	movs	r3, #1
    5692:	9503      	str	r5, [sp, #12]
    5694:	9502      	str	r5, [sp, #8]
    5696:	9501      	str	r5, [sp, #4]
    5698:	425b      	negs	r3, r3
    569a:	464a      	mov	r2, r9
    569c:	0031      	movs	r1, r6
    569e:	0038      	movs	r0, r7
    56a0:	f7fb fbe2 	bl	e68 <lfs_dir_fetchmatch>
    56a4:	2800      	cmp	r0, #0
    56a6:	d000      	beq.n	56aa <lfs_dir_commit+0x776>
    56a8:	e4dd      	b.n	5066 <lfs_dir_commit+0x132>
    56aa:	88a3      	ldrh	r3, [r4, #4]
    56ac:	8ba2      	ldrh	r2, [r4, #28]
    56ae:	4293      	cmp	r3, r2
    56b0:	d2e6      	bcs.n	5680 <lfs_dir_commit+0x74c>
    56b2:	6824      	ldr	r4, [r4, #0]
    56b4:	2c00      	cmp	r4, #0
    56b6:	d000      	beq.n	56ba <lfs_dir_commit+0x786>
    56b8:	e4c2      	b.n	5040 <lfs_dir_commit+0x10c>
    56ba:	e4d3      	b.n	5064 <lfs_dir_commit+0x130>
    56bc:	8899      	ldrh	r1, [r3, #4]
    56be:	0312      	lsls	r2, r2, #12
    56c0:	0d92      	lsrs	r2, r2, #22
    56c2:	4291      	cmp	r1, r2
    56c4:	d100      	bne.n	56c8 <lfs_dir_commit+0x794>
    56c6:	e07b      	b.n	57c0 <lfs_dir_commit+0x88c>
    56c8:	d800      	bhi.n	56cc <lfs_dir_commit+0x798>
    56ca:	e5c3      	b.n	5254 <lfs_dir_commit+0x320>
    56cc:	799a      	ldrb	r2, [r3, #6]
    56ce:	3901      	subs	r1, #1
    56d0:	8099      	strh	r1, [r3, #4]
    56d2:	2a02      	cmp	r2, #2
    56d4:	d000      	beq.n	56d8 <lfs_dir_commit+0x7a4>
    56d6:	e5bd      	b.n	5254 <lfs_dir_commit+0x320>
    56d8:	6a9a      	ldr	r2, [r3, #40]	; 0x28
    56da:	3a01      	subs	r2, #1
    56dc:	629a      	str	r2, [r3, #40]	; 0x28
    56de:	e5b9      	b.n	5254 <lfs_dir_commit+0x320>
    56e0:	4653      	mov	r3, sl
    56e2:	4652      	mov	r2, sl
    56e4:	6c59      	ldr	r1, [r3, #68]	; 0x44
    56e6:	6b9b      	ldr	r3, [r3, #56]	; 0x38
    56e8:	4650      	mov	r0, sl
    56ea:	4059      	eors	r1, r3
    56ec:	6b13      	ldr	r3, [r2, #48]	; 0x30
    56ee:	6bd2      	ldr	r2, [r2, #60]	; 0x3c
    56f0:	46d9      	mov	r9, fp
    56f2:	4053      	eors	r3, r2
    56f4:	4652      	mov	r2, sl
    56f6:	6c92      	ldr	r2, [r2, #72]	; 0x48
    56f8:	4053      	eors	r3, r2
    56fa:	6c02      	ldr	r2, [r0, #64]	; 0x40
    56fc:	6b40      	ldr	r0, [r0, #52]	; 0x34
    56fe:	0a9b      	lsrs	r3, r3, #10
    5700:	4042      	eors	r2, r0
    5702:	4650      	mov	r0, sl
    5704:	6cc0      	ldr	r0, [r0, #76]	; 0x4c
    5706:	029b      	lsls	r3, r3, #10
    5708:	4042      	eors	r2, r0
    570a:	4650      	mov	r0, sl
    570c:	6d00      	ldr	r0, [r0, #80]	; 0x50
    570e:	923f      	str	r2, [sp, #252]	; 0xfc
    5710:	4041      	eors	r1, r0
    5712:	430a      	orrs	r2, r1
    5714:	933e      	str	r3, [sp, #248]	; 0xf8
    5716:	9140      	str	r1, [sp, #256]	; 0x100
    5718:	4313      	orrs	r3, r2
    571a:	d000      	beq.n	571e <lfs_dir_commit+0x7ea>
    571c:	e2b7      	b.n	5c8e <lfs_dir_commit+0xd5a>
    571e:	a94c      	add	r1, sp, #304	; 0x130
    5720:	4650      	mov	r0, sl
    5722:	f7fc faed 	bl	1d00 <lfs_dir_commitcrc>
    5726:	2800      	cmp	r0, #0
    5728:	d000      	beq.n	572c <lfs_dir_commit+0x7f8>
    572a:	e697      	b.n	545c <lfs_dir_commit+0x528>
    572c:	464b      	mov	r3, r9
    572e:	9a4d      	ldr	r2, [sp, #308]	; 0x134
    5730:	60da      	str	r2, [r3, #12]
    5732:	9a4e      	ldr	r2, [sp, #312]	; 0x138
    5734:	611a      	str	r2, [r3, #16]
    5736:	4653      	mov	r3, sl
    5738:	4652      	mov	r2, sl
    573a:	333c      	adds	r3, #60	; 0x3c
    573c:	3230      	adds	r2, #48	; 0x30
    573e:	ca13      	ldmia	r2!, {r0, r1, r4}
    5740:	c313      	stmia	r3!, {r0, r1, r4}
    5742:	4650      	mov	r0, sl
    5744:	220c      	movs	r2, #12
    5746:	2100      	movs	r1, #0
    5748:	3048      	adds	r0, #72	; 0x48
    574a:	f7ff fffe 	bl	0 <memset>
    574e:	e564      	b.n	521a <lfs_dir_commit+0x2e6>
    5750:	8899      	ldrh	r1, [r3, #4]
    5752:	0312      	lsls	r2, r2, #12
    5754:	0d92      	lsrs	r2, r2, #22
    5756:	428a      	cmp	r2, r1
    5758:	d900      	bls.n	575c <lfs_dir_commit+0x828>
    575a:	e5b8      	b.n	52ce <lfs_dir_commit+0x39a>
    575c:	799a      	ldrb	r2, [r3, #6]
    575e:	3101      	adds	r1, #1
    5760:	8099      	strh	r1, [r3, #4]
    5762:	2a02      	cmp	r2, #2
    5764:	d000      	beq.n	5768 <lfs_dir_commit+0x834>
    5766:	e5b2      	b.n	52ce <lfs_dir_commit+0x39a>
    5768:	6a9a      	ldr	r2, [r3, #40]	; 0x28
    576a:	3201      	adds	r2, #1
    576c:	629a      	str	r2, [r3, #40]	; 0x28
    576e:	e5ae      	b.n	52ce <lfs_dir_commit+0x39a>
    5770:	8899      	ldrh	r1, [r3, #4]
    5772:	0312      	lsls	r2, r2, #12
    5774:	0d92      	lsrs	r2, r2, #22
    5776:	428a      	cmp	r2, r1
    5778:	d900      	bls.n	577c <lfs_dir_commit+0x848>
    577a:	e5b6      	b.n	52ea <lfs_dir_commit+0x3b6>
    577c:	799a      	ldrb	r2, [r3, #6]
    577e:	3101      	adds	r1, #1
    5780:	8099      	strh	r1, [r3, #4]
    5782:	2a02      	cmp	r2, #2
    5784:	d000      	beq.n	5788 <lfs_dir_commit+0x854>
    5786:	e5b0      	b.n	52ea <lfs_dir_commit+0x3b6>
    5788:	6a9a      	ldr	r2, [r3, #40]	; 0x28
    578a:	3201      	adds	r2, #1
    578c:	629a      	str	r2, [r3, #40]	; 0x28
    578e:	e5ac      	b.n	52ea <lfs_dir_commit+0x3b6>
    5790:	464b      	mov	r3, r9
    5792:	4649      	mov	r1, r9
    5794:	8a9b      	ldrh	r3, [r3, #20]
    5796:	3301      	adds	r3, #1
    5798:	828b      	strh	r3, [r1, #20]
    579a:	e5e5      	b.n	5368 <lfs_dir_commit+0x434>
    579c:	aa4c      	add	r2, sp, #304	; 0x130
    579e:	4649      	mov	r1, r9
    57a0:	4650      	mov	r0, sl
    57a2:	f7fb fe39 	bl	1418 <lfs_fs_pred>
    57a6:	2800      	cmp	r0, #0
    57a8:	d100      	bne.n	57ac <lfs_dir_commit+0x878>
    57aa:	e326      	b.n	5dfa <lfs_dir_commit+0xec6>
    57ac:	1c83      	adds	r3, r0, #2
    57ae:	d100      	bne.n	57b2 <lfs_dir_commit+0x87e>
    57b0:	e490      	b.n	50d4 <lfs_dir_commit+0x1a0>
    57b2:	e65b      	b.n	546c <lfs_dir_commit+0x538>
    57b4:	464b      	mov	r3, r9
    57b6:	464a      	mov	r2, r9
    57b8:	8a9b      	ldrh	r3, [r3, #20]
    57ba:	3b01      	subs	r3, #1
    57bc:	8293      	strh	r3, [r2, #20]
    57be:	e484      	b.n	50ca <lfs_dir_commit+0x196>
    57c0:	2201      	movs	r2, #1
    57c2:	4252      	negs	r2, r2
    57c4:	609a      	str	r2, [r3, #8]
    57c6:	60da      	str	r2, [r3, #12]
    57c8:	e544      	b.n	5254 <lfs_dir_commit+0x320>
    57ca:	4649      	mov	r1, r9
    57cc:	9b0f      	ldr	r3, [sp, #60]	; 0x3c
    57ce:	68db      	ldr	r3, [r3, #12]
    57d0:	681c      	ldr	r4, [r3, #0]
    57d2:	618c      	str	r4, [r1, #24]
    57d4:	685b      	ldr	r3, [r3, #4]
    57d6:	61cb      	str	r3, [r1, #28]
    57d8:	2301      	movs	r3, #1
    57da:	4018      	ands	r0, r3
    57dc:	75c8      	strb	r0, [r1, #23]
    57de:	e5c3      	b.n	5368 <lfs_dir_commit+0x434>
    57e0:	4649      	mov	r1, r9
    57e2:	9b0f      	ldr	r3, [sp, #60]	; 0x3c
    57e4:	695b      	ldr	r3, [r3, #20]
    57e6:	681c      	ldr	r4, [r3, #0]
    57e8:	618c      	str	r4, [r1, #24]
    57ea:	685b      	ldr	r3, [r3, #4]
    57ec:	61cb      	str	r3, [r1, #28]
    57ee:	2301      	movs	r3, #1
    57f0:	4018      	ands	r0, r3
    57f2:	75c8      	strb	r0, [r1, #23]
    57f4:	e5d4      	b.n	53a0 <lfs_dir_commit+0x46c>
    57f6:	46d9      	mov	r9, fp
    57f8:	464b      	mov	r3, r9
    57fa:	8a9b      	ldrh	r3, [r3, #20]
    57fc:	e4fb      	b.n	51f6 <lfs_dir_commit+0x2c2>
    57fe:	465a      	mov	r2, fp
    5800:	4653      	mov	r3, sl
    5802:	6e92      	ldr	r2, [r2, #104]	; 0x68
    5804:	681b      	ldr	r3, [r3, #0]
    5806:	6a11      	ldr	r1, [r2, #32]
    5808:	428b      	cmp	r3, r1
    580a:	d205      	bcs.n	5818 <lfs_dir_commit+0x8e4>
    580c:	4641      	mov	r1, r8
    580e:	69d2      	ldr	r2, [r2, #28]
    5810:	1d0c      	adds	r4, r1, #4
    5812:	4294      	cmp	r4, r2
    5814:	d800      	bhi.n	5818 <lfs_dir_commit+0x8e4>
    5816:	e671      	b.n	54fc <lfs_dir_commit+0x5c8>
    5818:	9b12      	ldr	r3, [sp, #72]	; 0x48
    581a:	46da      	mov	sl, fp
    581c:	4699      	mov	r9, r3
    581e:	e7eb      	b.n	57f8 <lfs_dir_commit+0x8c4>
    5820:	0592      	lsls	r2, r2, #22
    5822:	0d93      	lsrs	r3, r2, #22
    5824:	1c5a      	adds	r2, r3, #1
    5826:	9222      	str	r2, [sp, #136]	; 0x88
    5828:	9a21      	ldr	r2, [sp, #132]	; 0x84
    582a:	931f      	str	r3, [sp, #124]	; 0x7c
    582c:	4694      	mov	ip, r2
    582e:	1aeb      	subs	r3, r5, r3
    5830:	4463      	add	r3, ip
    5832:	b29b      	uxth	r3, r3
    5834:	9326      	str	r3, [sp, #152]	; 0x98
    5836:	b21b      	sxth	r3, r3
    5838:	9329      	str	r3, [sp, #164]	; 0xa4
    583a:	029b      	lsls	r3, r3, #10
    583c:	931d      	str	r3, [sp, #116]	; 0x74
    583e:	9b3d      	ldr	r3, [sp, #244]	; 0xf4
    5840:	930e      	str	r3, [sp, #56]	; 0x38
    5842:	2b04      	cmp	r3, #4
    5844:	d800      	bhi.n	5848 <lfs_dir_commit+0x914>
    5846:	e6b6      	b.n	55b6 <lfs_dir_commit+0x682>
    5848:	465a      	mov	r2, fp
    584a:	6e92      	ldr	r2, [r2, #104]	; 0x68
    584c:	9b3a      	ldr	r3, [sp, #232]	; 0xe8
    584e:	6a11      	ldr	r1, [r2, #32]
    5850:	4299      	cmp	r1, r3
    5852:	d9e1      	bls.n	5818 <lfs_dir_commit+0x8e4>
    5854:	69d2      	ldr	r2, [r2, #28]
    5856:	2a07      	cmp	r2, #7
    5858:	d9de      	bls.n	5818 <lfs_dir_commit+0x8e4>
    585a:	2201      	movs	r2, #1
    585c:	4252      	negs	r2, r2
    585e:	4691      	mov	r9, r2
    5860:	4652      	mov	r2, sl
    5862:	9216      	str	r2, [sp, #88]	; 0x58
    5864:	4642      	mov	r2, r8
    5866:	9614      	str	r6, [sp, #80]	; 0x50
    5868:	2704      	movs	r7, #4
    586a:	464e      	mov	r6, r9
    586c:	46da      	mov	sl, fp
    586e:	3408      	adds	r4, #8
    5870:	9217      	str	r2, [sp, #92]	; 0x5c
    5872:	2204      	movs	r2, #4
    5874:	9203      	str	r2, [sp, #12]
    5876:	aa33      	add	r2, sp, #204	; 0xcc
    5878:	9202      	str	r2, [sp, #8]
    587a:	9300      	str	r3, [sp, #0]
    587c:	9701      	str	r7, [sp, #4]
    587e:	2304      	movs	r3, #4
    5880:	4652      	mov	r2, sl
    5882:	2100      	movs	r1, #0
    5884:	9811      	ldr	r0, [sp, #68]	; 0x44
    5886:	f7fa fc8b 	bl	1a0 <lfs_bd_read.isra.21.part.22>
    588a:	2800      	cmp	r0, #0
    588c:	d000      	beq.n	5890 <lfs_dir_commit+0x95c>
    588e:	e094      	b.n	59ba <lfs_dir_commit+0xa86>
    5890:	9b33      	ldr	r3, [sp, #204]	; 0xcc
    5892:	2280      	movs	r2, #128	; 0x80
    5894:	ba1b      	rev	r3, r3
    5896:	405e      	eors	r6, r3
    5898:	9b3a      	ldr	r3, [sp, #232]	; 0xe8
    589a:	943d      	str	r4, [sp, #244]	; 0xf4
    589c:	2480      	movs	r4, #128	; 0x80
    589e:	930e      	str	r3, [sp, #56]	; 0x38
    58a0:	933c      	str	r3, [sp, #240]	; 0xf0
    58a2:	23c0      	movs	r3, #192	; 0xc0
    58a4:	0612      	lsls	r2, r2, #24
    58a6:	4316      	orrs	r6, r2
    58a8:	05a4      	lsls	r4, r4, #22
    58aa:	4074      	eors	r4, r6
    58ac:	05db      	lsls	r3, r3, #23
    58ae:	9633      	str	r6, [sp, #204]	; 0xcc
    58b0:	401c      	ands	r4, r3
    58b2:	d137      	bne.n	5924 <lfs_dir_commit+0x9f0>
    58b4:	ab33      	add	r3, sp, #204	; 0xcc
    58b6:	9308      	str	r3, [sp, #32]
    58b8:	4b9c      	ldr	r3, [pc, #624]	; (5b2c <lfs_dir_commit+0xbf8>)
    58ba:	9406      	str	r4, [sp, #24]
    58bc:	9307      	str	r3, [sp, #28]
    58be:	9405      	str	r4, [sp, #20]
    58c0:	9404      	str	r4, [sp, #16]
    58c2:	9403      	str	r4, [sp, #12]
    58c4:	9402      	str	r4, [sp, #8]
    58c6:	9401      	str	r4, [sp, #4]
    58c8:	9400      	str	r4, [sp, #0]
    58ca:	0033      	movs	r3, r6
    58cc:	003a      	movs	r2, r7
    58ce:	a93a      	add	r1, sp, #232	; 0xe8
    58d0:	4650      	mov	r0, sl
    58d2:	f7fa ff4d 	bl	770 <lfs_dir_traverse>
    58d6:	2800      	cmp	r0, #0
    58d8:	db6f      	blt.n	59ba <lfs_dir_commit+0xa86>
    58da:	d123      	bne.n	5924 <lfs_dir_commit+0x9f0>
    58dc:	9a33      	ldr	r2, [sp, #204]	; 0xcc
    58de:	991f      	ldr	r1, [sp, #124]	; 0x7c
    58e0:	0a93      	lsrs	r3, r2, #10
    58e2:	0598      	lsls	r0, r3, #22
    58e4:	0d80      	lsrs	r0, r0, #22
    58e6:	4281      	cmp	r1, r0
    58e8:	d81c      	bhi.n	5924 <lfs_dir_commit+0x9f0>
    58ea:	9922      	ldr	r1, [sp, #136]	; 0x88
    58ec:	4281      	cmp	r1, r0
    58ee:	d919      	bls.n	5924 <lfs_dir_commit+0x9f0>
    58f0:	0051      	lsls	r1, r2, #1
    58f2:	0d49      	lsrs	r1, r1, #21
    58f4:	d016      	beq.n	5924 <lfs_dir_commit+0x9f0>
    58f6:	2502      	movs	r5, #2
    58f8:	35ff      	adds	r5, #255	; 0xff
    58fa:	42a9      	cmp	r1, r5
    58fc:	d060      	beq.n	59c0 <lfs_dir_commit+0xa8c>
    58fe:	2081      	movs	r0, #129	; 0x81
    5900:	0040      	lsls	r0, r0, #1
    5902:	4281      	cmp	r1, r0
    5904:	d100      	bne.n	5908 <lfs_dir_commit+0x9d4>
    5906:	e200      	b.n	5d0a <lfs_dir_commit+0xdd6>
    5908:	9b1d      	ldr	r3, [sp, #116]	; 0x74
    590a:	469c      	mov	ip, r3
    590c:	9b37      	ldr	r3, [sp, #220]	; 0xdc
    590e:	4462      	add	r2, ip
    5910:	930e      	str	r3, [sp, #56]	; 0x38
    5912:	9b36      	ldr	r3, [sp, #216]	; 0xd8
    5914:	990e      	ldr	r1, [sp, #56]	; 0x38
    5916:	9319      	str	r3, [sp, #100]	; 0x64
    5918:	9819      	ldr	r0, [sp, #100]	; 0x64
    591a:	ab3c      	add	r3, sp, #240	; 0xf0
    591c:	f7fb f9aa 	bl	c74 <lfs_dir_commitattr>
    5920:	2800      	cmp	r0, #0
    5922:	d14a      	bne.n	59ba <lfs_dir_commit+0xa86>
    5924:	05b3      	lsls	r3, r6, #22
    5926:	159b      	asrs	r3, r3, #22
    5928:	3301      	adds	r3, #1
    592a:	425a      	negs	r2, r3
    592c:	4153      	adcs	r3, r2
    592e:	199b      	adds	r3, r3, r6
    5930:	059b      	lsls	r3, r3, #22
    5932:	0d9b      	lsrs	r3, r3, #22
    5934:	3304      	adds	r3, #4
    5936:	18ff      	adds	r7, r7, r3
    5938:	9b3d      	ldr	r3, [sp, #244]	; 0xf4
    593a:	930e      	str	r3, [sp, #56]	; 0x38
    593c:	429f      	cmp	r7, r3
    593e:	d306      	bcc.n	594e <lfs_dir_commit+0xa1a>
    5940:	9b17      	ldr	r3, [sp, #92]	; 0x5c
    5942:	46d3      	mov	fp, sl
    5944:	4698      	mov	r8, r3
    5946:	9b16      	ldr	r3, [sp, #88]	; 0x58
    5948:	9e14      	ldr	r6, [sp, #80]	; 0x50
    594a:	469a      	mov	sl, r3
    594c:	e633      	b.n	55b6 <lfs_dir_commit+0x682>
    594e:	4652      	mov	r2, sl
    5950:	6e92      	ldr	r2, [r2, #104]	; 0x68
    5952:	9b3a      	ldr	r3, [sp, #232]	; 0xe8
    5954:	6a11      	ldr	r1, [r2, #32]
    5956:	428b      	cmp	r3, r1
    5958:	d203      	bcs.n	5962 <lfs_dir_commit+0xa2e>
    595a:	69d2      	ldr	r2, [r2, #28]
    595c:	1d3c      	adds	r4, r7, #4
    595e:	4294      	cmp	r4, r2
    5960:	d987      	bls.n	5872 <lfs_dir_commit+0x93e>
    5962:	9b12      	ldr	r3, [sp, #72]	; 0x48
    5964:	4699      	mov	r9, r3
    5966:	e747      	b.n	57f8 <lfs_dir_commit+0x8c4>
    5968:	0592      	lsls	r2, r2, #22
    596a:	d100      	bne.n	596e <lfs_dir_commit+0xa3a>
    596c:	e623      	b.n	55b6 <lfs_dir_commit+0x682>
    596e:	ad3a      	add	r5, sp, #232	; 0xe8
    5970:	9f24      	ldr	r7, [sp, #144]	; 0x90
    5972:	001a      	movs	r2, r3
    5974:	e008      	b.n	5988 <lfs_dir_commit+0xa54>
    5976:	9b32      	ldr	r3, [sp, #200]	; 0xc8
    5978:	3401      	adds	r4, #1
    597a:	059a      	lsls	r2, r3, #22
    597c:	350c      	adds	r5, #12
    597e:	0d92      	lsrs	r2, r2, #22
    5980:	4294      	cmp	r4, r2
    5982:	d300      	bcc.n	5986 <lfs_dir_commit+0xa52>
    5984:	e617      	b.n	55b6 <lfs_dir_commit+0x682>
    5986:	0a9a      	lsrs	r2, r3, #10
    5988:	21c0      	movs	r1, #192	; 0xc0
    598a:	0089      	lsls	r1, r1, #2
    598c:	468c      	mov	ip, r1
    598e:	0592      	lsls	r2, r2, #22
    5990:	0d92      	lsrs	r2, r2, #22
    5992:	68ab      	ldr	r3, [r5, #8]
    5994:	19d2      	adds	r2, r2, r7
    5996:	0292      	lsls	r2, r2, #10
    5998:	431a      	orrs	r2, r3
    599a:	782b      	ldrb	r3, [r5, #0]
    599c:	4463      	add	r3, ip
    599e:	051b      	lsls	r3, r3, #20
    59a0:	431a      	orrs	r2, r3
    59a2:	9b37      	ldr	r3, [sp, #220]	; 0xdc
    59a4:	930e      	str	r3, [sp, #56]	; 0x38
    59a6:	9b36      	ldr	r3, [sp, #216]	; 0xd8
    59a8:	990e      	ldr	r1, [sp, #56]	; 0x38
    59aa:	9314      	str	r3, [sp, #80]	; 0x50
    59ac:	9814      	ldr	r0, [sp, #80]	; 0x50
    59ae:	686b      	ldr	r3, [r5, #4]
    59b0:	f7fb f960 	bl	c74 <lfs_dir_commitattr>
    59b4:	2800      	cmp	r0, #0
    59b6:	d0de      	beq.n	5976 <lfs_dir_commit+0xa42>
    59b8:	46da      	mov	sl, fp
    59ba:	9b12      	ldr	r3, [sp, #72]	; 0x48
    59bc:	4699      	mov	r9, r3
    59be:	e54d      	b.n	545c <lfs_dir_commit+0x528>
    59c0:	0592      	lsls	r2, r2, #22
    59c2:	0d93      	lsrs	r3, r2, #22
    59c4:	1c5a      	adds	r2, r3, #1
    59c6:	9227      	str	r2, [sp, #156]	; 0x9c
    59c8:	9a26      	ldr	r2, [sp, #152]	; 0x98
    59ca:	9323      	str	r3, [sp, #140]	; 0x8c
    59cc:	4694      	mov	ip, r2
    59ce:	1ac3      	subs	r3, r0, r3
    59d0:	4463      	add	r3, ip
    59d2:	b29b      	uxth	r3, r3
    59d4:	932a      	str	r3, [sp, #168]	; 0xa8
    59d6:	b21b      	sxth	r3, r3
    59d8:	932c      	str	r3, [sp, #176]	; 0xb0
    59da:	029b      	lsls	r3, r3, #10
    59dc:	9320      	str	r3, [sp, #128]	; 0x80
    59de:	9b3f      	ldr	r3, [sp, #252]	; 0xfc
    59e0:	930e      	str	r3, [sp, #56]	; 0x38
    59e2:	2b04      	cmp	r3, #4
    59e4:	d99e      	bls.n	5924 <lfs_dir_commit+0x9f0>
    59e6:	4652      	mov	r2, sl
    59e8:	6e92      	ldr	r2, [r2, #104]	; 0x68
    59ea:	9b3c      	ldr	r3, [sp, #240]	; 0xf0
    59ec:	6a11      	ldr	r1, [r2, #32]
    59ee:	4299      	cmp	r1, r3
    59f0:	d9b7      	bls.n	5962 <lfs_dir_commit+0xa2e>
    59f2:	69d2      	ldr	r2, [r2, #28]
    59f4:	2a07      	cmp	r2, #7
    59f6:	d9b4      	bls.n	5962 <lfs_dir_commit+0xa2e>
    59f8:	2204      	movs	r2, #4
    59fa:	4693      	mov	fp, r2
    59fc:	3a05      	subs	r2, #5
    59fe:	46d9      	mov	r9, fp
    5a00:	0015      	movs	r5, r2
    5a02:	46bb      	mov	fp, r7
    5a04:	3408      	adds	r4, #8
    5a06:	9619      	str	r6, [sp, #100]	; 0x64
    5a08:	2204      	movs	r2, #4
    5a0a:	9203      	str	r2, [sp, #12]
    5a0c:	aa34      	add	r2, sp, #208	; 0xd0
    5a0e:	9202      	str	r2, [sp, #8]
    5a10:	464a      	mov	r2, r9
    5a12:	9300      	str	r3, [sp, #0]
    5a14:	9201      	str	r2, [sp, #4]
    5a16:	2304      	movs	r3, #4
    5a18:	4652      	mov	r2, sl
    5a1a:	2100      	movs	r1, #0
    5a1c:	9811      	ldr	r0, [sp, #68]	; 0x44
    5a1e:	f7fa fbbf 	bl	1a0 <lfs_bd_read.isra.21.part.22>
    5a22:	2800      	cmp	r0, #0
    5a24:	d1c9      	bne.n	59ba <lfs_dir_commit+0xa86>
    5a26:	9b34      	ldr	r3, [sp, #208]	; 0xd0
    5a28:	943f      	str	r4, [sp, #252]	; 0xfc
    5a2a:	ba1b      	rev	r3, r3
    5a2c:	405d      	eors	r5, r3
    5a2e:	2380      	movs	r3, #128	; 0x80
    5a30:	061b      	lsls	r3, r3, #24
    5a32:	431d      	orrs	r5, r3
    5a34:	9b3c      	ldr	r3, [sp, #240]	; 0xf0
    5a36:	2480      	movs	r4, #128	; 0x80
    5a38:	930e      	str	r3, [sp, #56]	; 0x38
    5a3a:	933e      	str	r3, [sp, #248]	; 0xf8
    5a3c:	23c0      	movs	r3, #192	; 0xc0
    5a3e:	05a4      	lsls	r4, r4, #22
    5a40:	406c      	eors	r4, r5
    5a42:	05db      	lsls	r3, r3, #23
    5a44:	9534      	str	r5, [sp, #208]	; 0xd0
    5a46:	401c      	ands	r4, r3
    5a48:	d138      	bne.n	5abc <lfs_dir_commit+0xb88>
    5a4a:	ab34      	add	r3, sp, #208	; 0xd0
    5a4c:	9308      	str	r3, [sp, #32]
    5a4e:	4b37      	ldr	r3, [pc, #220]	; (5b2c <lfs_dir_commit+0xbf8>)
    5a50:	9406      	str	r4, [sp, #24]
    5a52:	9307      	str	r3, [sp, #28]
    5a54:	9405      	str	r4, [sp, #20]
    5a56:	9404      	str	r4, [sp, #16]
    5a58:	9403      	str	r4, [sp, #12]
    5a5a:	9402      	str	r4, [sp, #8]
    5a5c:	9401      	str	r4, [sp, #4]
    5a5e:	9400      	str	r4, [sp, #0]
    5a60:	002b      	movs	r3, r5
    5a62:	464a      	mov	r2, r9
    5a64:	a93c      	add	r1, sp, #240	; 0xf0
    5a66:	4650      	mov	r0, sl
    5a68:	f7fa fe82 	bl	770 <lfs_dir_traverse>
    5a6c:	2800      	cmp	r0, #0
    5a6e:	dba4      	blt.n	59ba <lfs_dir_commit+0xa86>
    5a70:	d124      	bne.n	5abc <lfs_dir_commit+0xb88>
    5a72:	9a34      	ldr	r2, [sp, #208]	; 0xd0
    5a74:	9923      	ldr	r1, [sp, #140]	; 0x8c
    5a76:	0a93      	lsrs	r3, r2, #10
    5a78:	0598      	lsls	r0, r3, #22
    5a7a:	0d80      	lsrs	r0, r0, #22
    5a7c:	4281      	cmp	r1, r0
    5a7e:	d81d      	bhi.n	5abc <lfs_dir_commit+0xb88>
    5a80:	9927      	ldr	r1, [sp, #156]	; 0x9c
    5a82:	4281      	cmp	r1, r0
    5a84:	d91a      	bls.n	5abc <lfs_dir_commit+0xb88>
    5a86:	0051      	lsls	r1, r2, #1
    5a88:	0d49      	lsrs	r1, r1, #21
    5a8a:	d017      	beq.n	5abc <lfs_dir_commit+0xb88>
    5a8c:	2602      	movs	r6, #2
    5a8e:	36ff      	adds	r6, #255	; 0xff
    5a90:	42b1      	cmp	r1, r6
    5a92:	d04d      	beq.n	5b30 <lfs_dir_commit+0xbfc>
    5a94:	2081      	movs	r0, #129	; 0x81
    5a96:	0040      	lsls	r0, r0, #1
    5a98:	4281      	cmp	r1, r0
    5a9a:	d100      	bne.n	5a9e <lfs_dir_commit+0xb6a>
    5a9c:	e184      	b.n	5da8 <lfs_dir_commit+0xe74>
    5a9e:	9b20      	ldr	r3, [sp, #128]	; 0x80
    5aa0:	469c      	mov	ip, r3
    5aa2:	9b37      	ldr	r3, [sp, #220]	; 0xdc
    5aa4:	4462      	add	r2, ip
    5aa6:	930e      	str	r3, [sp, #56]	; 0x38
    5aa8:	9b36      	ldr	r3, [sp, #216]	; 0xd8
    5aaa:	990e      	ldr	r1, [sp, #56]	; 0x38
    5aac:	931a      	str	r3, [sp, #104]	; 0x68
    5aae:	981a      	ldr	r0, [sp, #104]	; 0x68
    5ab0:	ab3e      	add	r3, sp, #248	; 0xf8
    5ab2:	f7fb f8df 	bl	c74 <lfs_dir_commitattr>
    5ab6:	2800      	cmp	r0, #0
    5ab8:	d000      	beq.n	5abc <lfs_dir_commit+0xb88>
    5aba:	e77e      	b.n	59ba <lfs_dir_commit+0xa86>
    5abc:	05ab      	lsls	r3, r5, #22
    5abe:	159b      	asrs	r3, r3, #22
    5ac0:	3301      	adds	r3, #1
    5ac2:	425a      	negs	r2, r3
    5ac4:	4153      	adcs	r3, r2
    5ac6:	195b      	adds	r3, r3, r5
    5ac8:	059b      	lsls	r3, r3, #22
    5aca:	0d9b      	lsrs	r3, r3, #22
    5acc:	3304      	adds	r3, #4
    5ace:	4499      	add	r9, r3
    5ad0:	9b3f      	ldr	r3, [sp, #252]	; 0xfc
    5ad2:	930e      	str	r3, [sp, #56]	; 0x38
    5ad4:	4599      	cmp	r9, r3
    5ad6:	d302      	bcc.n	5ade <lfs_dir_commit+0xbaa>
    5ad8:	465f      	mov	r7, fp
    5ada:	9e19      	ldr	r6, [sp, #100]	; 0x64
    5adc:	e722      	b.n	5924 <lfs_dir_commit+0x9f0>
    5ade:	4652      	mov	r2, sl
    5ae0:	6e92      	ldr	r2, [r2, #104]	; 0x68
    5ae2:	9b3c      	ldr	r3, [sp, #240]	; 0xf0
    5ae4:	6a11      	ldr	r1, [r2, #32]
    5ae6:	428b      	cmp	r3, r1
    5ae8:	d300      	bcc.n	5aec <lfs_dir_commit+0xbb8>
    5aea:	e73a      	b.n	5962 <lfs_dir_commit+0xa2e>
    5aec:	4649      	mov	r1, r9
    5aee:	69d2      	ldr	r2, [r2, #28]
    5af0:	1d0c      	adds	r4, r1, #4
    5af2:	4294      	cmp	r4, r2
    5af4:	d988      	bls.n	5a08 <lfs_dir_commit+0xad4>
    5af6:	e734      	b.n	5962 <lfs_dir_commit+0xa2e>
    5af8:	464b      	mov	r3, r9
    5afa:	4649      	mov	r1, r9
    5afc:	8a9b      	ldrh	r3, [r3, #20]
    5afe:	3301      	adds	r3, #1
    5b00:	828b      	strh	r3, [r1, #20]
    5b02:	e44d      	b.n	53a0 <lfs_dir_commit+0x46c>
    5b04:	2201      	movs	r2, #1
    5b06:	4252      	negs	r2, r2
    5b08:	609a      	str	r2, [r3, #8]
    5b0a:	60da      	str	r2, [r3, #12]
    5b0c:	f7ff fbc3 	bl	5296 <lfs_dir_commit+0x362>
    5b10:	464b      	mov	r3, r9
    5b12:	464a      	mov	r2, r9
    5b14:	8a9b      	ldrh	r3, [r3, #20]
    5b16:	3b01      	subs	r3, #1
    5b18:	8293      	strh	r3, [r2, #20]
    5b1a:	9b10      	ldr	r3, [sp, #64]	; 0x40
    5b1c:	2201      	movs	r2, #1
    5b1e:	2b01      	cmp	r3, #1
    5b20:	d001      	beq.n	5b26 <lfs_dir_commit+0xbf2>
    5b22:	f7ff fc09 	bl	5338 <lfs_dir_commit+0x404>
    5b26:	f7ff fad0 	bl	50ca <lfs_dir_commit+0x196>
    5b2a:	46c0      	nop			; (mov r8, r8)
    5b2c:	00000000 	.word	0x00000000
    5b30:	0592      	lsls	r2, r2, #22
    5b32:	0d93      	lsrs	r3, r2, #22
    5b34:	1c5a      	adds	r2, r3, #1
    5b36:	1ac0      	subs	r0, r0, r3
    5b38:	9328      	str	r3, [sp, #160]	; 0xa0
    5b3a:	9b2a      	ldr	r3, [sp, #168]	; 0xa8
    5b3c:	922b      	str	r2, [sp, #172]	; 0xac
    5b3e:	469c      	mov	ip, r3
    5b40:	4460      	add	r0, ip
    5b42:	b283      	uxth	r3, r0
    5b44:	932d      	str	r3, [sp, #180]	; 0xb4
    5b46:	b21b      	sxth	r3, r3
    5b48:	932e      	str	r3, [sp, #184]	; 0xb8
    5b4a:	029b      	lsls	r3, r3, #10
    5b4c:	9325      	str	r3, [sp, #148]	; 0x94
    5b4e:	9b41      	ldr	r3, [sp, #260]	; 0x104
    5b50:	930e      	str	r3, [sp, #56]	; 0x38
    5b52:	2b04      	cmp	r3, #4
    5b54:	d9b2      	bls.n	5abc <lfs_dir_commit+0xb88>
    5b56:	4652      	mov	r2, sl
    5b58:	6e92      	ldr	r2, [r2, #104]	; 0x68
    5b5a:	9b3e      	ldr	r3, [sp, #248]	; 0xf8
    5b5c:	6a11      	ldr	r1, [r2, #32]
    5b5e:	4299      	cmp	r1, r3
    5b60:	d800      	bhi.n	5b64 <lfs_dir_commit+0xc30>
    5b62:	e6fe      	b.n	5962 <lfs_dir_commit+0xa2e>
    5b64:	69d2      	ldr	r2, [r2, #28]
    5b66:	2a07      	cmp	r2, #7
    5b68:	d800      	bhi.n	5b6c <lfs_dir_commit+0xc38>
    5b6a:	e6fa      	b.n	5962 <lfs_dir_commit+0xa2e>
    5b6c:	46c8      	mov	r8, r9
    5b6e:	2704      	movs	r7, #4
    5b70:	46a9      	mov	r9, r5
    5b72:	3ef9      	subs	r6, #249	; 0xf9
    5b74:	3c01      	subs	r4, #1
    5b76:	2204      	movs	r2, #4
    5b78:	9203      	str	r2, [sp, #12]
    5b7a:	aa35      	add	r2, sp, #212	; 0xd4
    5b7c:	9202      	str	r2, [sp, #8]
    5b7e:	9300      	str	r3, [sp, #0]
    5b80:	9701      	str	r7, [sp, #4]
    5b82:	2304      	movs	r3, #4
    5b84:	4652      	mov	r2, sl
    5b86:	2100      	movs	r1, #0
    5b88:	9811      	ldr	r0, [sp, #68]	; 0x44
    5b8a:	f7fa fb09 	bl	1a0 <lfs_bd_read.isra.21.part.22>
    5b8e:	2800      	cmp	r0, #0
    5b90:	d000      	beq.n	5b94 <lfs_dir_commit+0xc60>
    5b92:	e712      	b.n	59ba <lfs_dir_commit+0xa86>
    5b94:	9b35      	ldr	r3, [sp, #212]	; 0xd4
    5b96:	ad41      	add	r5, sp, #260	; 0x104
    5b98:	ba1b      	rev	r3, r3
    5b9a:	405c      	eors	r4, r3
    5b9c:	2380      	movs	r3, #128	; 0x80
    5b9e:	061b      	lsls	r3, r3, #24
    5ba0:	431c      	orrs	r4, r3
    5ba2:	9b3e      	ldr	r3, [sp, #248]	; 0xf8
    5ba4:	606e      	str	r6, [r5, #4]
    5ba6:	2680      	movs	r6, #128	; 0x80
    5ba8:	930e      	str	r3, [sp, #56]	; 0x38
    5baa:	9341      	str	r3, [sp, #260]	; 0x104
    5bac:	23c0      	movs	r3, #192	; 0xc0
    5bae:	05b6      	lsls	r6, r6, #22
    5bb0:	4066      	eors	r6, r4
    5bb2:	05db      	lsls	r3, r3, #23
    5bb4:	9435      	str	r4, [sp, #212]	; 0xd4
    5bb6:	401e      	ands	r6, r3
    5bb8:	d13d      	bne.n	5c36 <lfs_dir_commit+0xd02>
    5bba:	ab35      	add	r3, sp, #212	; 0xd4
    5bbc:	9308      	str	r3, [sp, #32]
    5bbe:	4bc8      	ldr	r3, [pc, #800]	; (5ee0 <lfs_dir_commit+0xfac>)
    5bc0:	9006      	str	r0, [sp, #24]
    5bc2:	9307      	str	r3, [sp, #28]
    5bc4:	9005      	str	r0, [sp, #20]
    5bc6:	9004      	str	r0, [sp, #16]
    5bc8:	9003      	str	r0, [sp, #12]
    5bca:	9002      	str	r0, [sp, #8]
    5bcc:	9001      	str	r0, [sp, #4]
    5bce:	9000      	str	r0, [sp, #0]
    5bd0:	0023      	movs	r3, r4
    5bd2:	003a      	movs	r2, r7
    5bd4:	a93e      	add	r1, sp, #248	; 0xf8
    5bd6:	4650      	mov	r0, sl
    5bd8:	f7fa fdca 	bl	770 <lfs_dir_traverse>
    5bdc:	2800      	cmp	r0, #0
    5bde:	da00      	bge.n	5be2 <lfs_dir_commit+0xcae>
    5be0:	e6eb      	b.n	59ba <lfs_dir_commit+0xa86>
    5be2:	d128      	bne.n	5c36 <lfs_dir_commit+0xd02>
    5be4:	9a35      	ldr	r2, [sp, #212]	; 0xd4
    5be6:	0a93      	lsrs	r3, r2, #10
    5be8:	0599      	lsls	r1, r3, #22
    5bea:	931a      	str	r3, [sp, #104]	; 0x68
    5bec:	0d8b      	lsrs	r3, r1, #22
    5bee:	9928      	ldr	r1, [sp, #160]	; 0xa0
    5bf0:	930e      	str	r3, [sp, #56]	; 0x38
    5bf2:	468c      	mov	ip, r1
    5bf4:	459c      	cmp	ip, r3
    5bf6:	d81e      	bhi.n	5c36 <lfs_dir_commit+0xd02>
    5bf8:	992b      	ldr	r1, [sp, #172]	; 0xac
    5bfa:	4299      	cmp	r1, r3
    5bfc:	d91b      	bls.n	5c36 <lfs_dir_commit+0xd02>
    5bfe:	0051      	lsls	r1, r2, #1
    5c00:	0d49      	lsrs	r1, r1, #21
    5c02:	d018      	beq.n	5c36 <lfs_dir_commit+0xd02>
    5c04:	2302      	movs	r3, #2
    5c06:	33ff      	adds	r3, #255	; 0xff
    5c08:	4299      	cmp	r1, r3
    5c0a:	d100      	bne.n	5c0e <lfs_dir_commit+0xcda>
    5c0c:	e11c      	b.n	5e48 <lfs_dir_commit+0xf14>
    5c0e:	2081      	movs	r0, #129	; 0x81
    5c10:	0040      	lsls	r0, r0, #1
    5c12:	4281      	cmp	r1, r0
    5c14:	d100      	bne.n	5c18 <lfs_dir_commit+0xce4>
    5c16:	e139      	b.n	5e8c <lfs_dir_commit+0xf58>
    5c18:	9b25      	ldr	r3, [sp, #148]	; 0x94
    5c1a:	469c      	mov	ip, r3
    5c1c:	9b37      	ldr	r3, [sp, #220]	; 0xdc
    5c1e:	4462      	add	r2, ip
    5c20:	930e      	str	r3, [sp, #56]	; 0x38
    5c22:	9b36      	ldr	r3, [sp, #216]	; 0xd8
    5c24:	990e      	ldr	r1, [sp, #56]	; 0x38
    5c26:	931a      	str	r3, [sp, #104]	; 0x68
    5c28:	981a      	ldr	r0, [sp, #104]	; 0x68
    5c2a:	002b      	movs	r3, r5
    5c2c:	f7fb f822 	bl	c74 <lfs_dir_commitattr>
    5c30:	2800      	cmp	r0, #0
    5c32:	d000      	beq.n	5c36 <lfs_dir_commit+0xd02>
    5c34:	e6c1      	b.n	59ba <lfs_dir_commit+0xa86>
    5c36:	05a3      	lsls	r3, r4, #22
    5c38:	159b      	asrs	r3, r3, #22
    5c3a:	3301      	adds	r3, #1
    5c3c:	425a      	negs	r2, r3
    5c3e:	4153      	adcs	r3, r2
    5c40:	191b      	adds	r3, r3, r4
    5c42:	059b      	lsls	r3, r3, #22
    5c44:	0d9b      	lsrs	r3, r3, #22
    5c46:	3304      	adds	r3, #4
    5c48:	18ff      	adds	r7, r7, r3
    5c4a:	9b41      	ldr	r3, [sp, #260]	; 0x104
    5c4c:	930e      	str	r3, [sp, #56]	; 0x38
    5c4e:	429f      	cmp	r7, r3
    5c50:	d200      	bcs.n	5c54 <lfs_dir_commit+0xd20>
    5c52:	e0ec      	b.n	5e2e <lfs_dir_commit+0xefa>
    5c54:	464d      	mov	r5, r9
    5c56:	46c1      	mov	r9, r8
    5c58:	e730      	b.n	5abc <lfs_dir_commit+0xb88>
    5c5a:	464b      	mov	r3, r9
    5c5c:	4649      	mov	r1, r9
    5c5e:	8a9b      	ldrh	r3, [r3, #20]
    5c60:	3301      	adds	r3, #1
    5c62:	828b      	strh	r3, [r1, #20]
    5c64:	f7ff fa2f 	bl	50c6 <lfs_dir_commit+0x192>
    5c68:	2201      	movs	r2, #1
    5c6a:	4252      	negs	r2, r2
    5c6c:	609a      	str	r2, [r3, #8]
    5c6e:	60da      	str	r2, [r3, #12]
    5c70:	f7ff fb1f 	bl	52b2 <lfs_dir_commit+0x37e>
    5c74:	464b      	mov	r3, r9
    5c76:	464a      	mov	r2, r9
    5c78:	8a9b      	ldrh	r3, [r3, #20]
    5c7a:	3b01      	subs	r3, #1
    5c7c:	8293      	strh	r3, [r2, #20]
    5c7e:	9b10      	ldr	r3, [sp, #64]	; 0x40
    5c80:	2201      	movs	r2, #1
    5c82:	2b02      	cmp	r3, #2
    5c84:	d001      	beq.n	5c8a <lfs_dir_commit+0xd56>
    5c86:	f7ff fb73 	bl	5370 <lfs_dir_commit+0x43c>
    5c8a:	f7ff fa1e 	bl	50ca <lfs_dir_commit+0x196>
    5c8e:	230c      	movs	r3, #12
    5c90:	9302      	str	r3, [sp, #8]
    5c92:	9b0d      	ldr	r3, [sp, #52]	; 0x34
    5c94:	ac41      	add	r4, sp, #260	; 0x104
    5c96:	9300      	str	r3, [sp, #0]
    5c98:	9401      	str	r4, [sp, #4]
    5c9a:	4b92      	ldr	r3, [pc, #584]	; (5ee4 <lfs_dir_commit+0xfb0>)
    5c9c:	4a92      	ldr	r2, [pc, #584]	; (5ee8 <lfs_dir_commit+0xfb4>)
    5c9e:	4649      	mov	r1, r9
    5ca0:	4650      	mov	r0, sl
    5ca2:	f7fb fc15 	bl	14d0 <lfs_dir_getslice>
    5ca6:	2800      	cmp	r0, #0
    5ca8:	da00      	bge.n	5cac <lfs_dir_commit+0xd78>
    5caa:	e0bb      	b.n	5e24 <lfs_dir_commit+0xef0>
    5cac:	9b3e      	ldr	r3, [sp, #248]	; 0xf8
    5cae:	9a41      	ldr	r2, [sp, #260]	; 0x104
    5cb0:	4053      	eors	r3, r2
    5cb2:	933e      	str	r3, [sp, #248]	; 0xf8
    5cb4:	9a42      	ldr	r2, [sp, #264]	; 0x108
    5cb6:	9b3f      	ldr	r3, [sp, #252]	; 0xfc
    5cb8:	4053      	eors	r3, r2
    5cba:	933f      	str	r3, [sp, #252]	; 0xfc
    5cbc:	9a43      	ldr	r2, [sp, #268]	; 0x10c
    5cbe:	9b40      	ldr	r3, [sp, #256]	; 0x100
    5cc0:	4053      	eors	r3, r2
    5cc2:	9340      	str	r3, [sp, #256]	; 0x100
    5cc4:	9b4d      	ldr	r3, [sp, #308]	; 0x134
    5cc6:	9a51      	ldr	r2, [sp, #324]	; 0x144
    5cc8:	3310      	adds	r3, #16
    5cca:	920b      	str	r2, [sp, #44]	; 0x2c
    5ccc:	4293      	cmp	r3, r2
    5cce:	d900      	bls.n	5cd2 <lfs_dir_commit+0xd9e>
    5cd0:	e592      	b.n	57f8 <lfs_dir_commit+0x8c4>
    5cd2:	9b4e      	ldr	r3, [sp, #312]	; 0x138
    5cd4:	4d85      	ldr	r5, [pc, #532]	; (5eec <lfs_dir_commit+0xfb8>)
    5cd6:	930b      	str	r3, [sp, #44]	; 0x2c
    5cd8:	406b      	eors	r3, r5
    5cda:	ba1b      	rev	r3, r3
    5cdc:	9341      	str	r3, [sp, #260]	; 0x104
    5cde:	0022      	movs	r2, r4
    5ce0:	2304      	movs	r3, #4
    5ce2:	a94c      	add	r1, sp, #304	; 0x130
    5ce4:	4650      	mov	r0, sl
    5ce6:	f7fa ff3f 	bl	b68 <lfs_dir_commitprog>
    5cea:	2800      	cmp	r0, #0
    5cec:	d001      	beq.n	5cf2 <lfs_dir_commit+0xdbe>
    5cee:	f7ff fbb5 	bl	545c <lfs_dir_commit+0x528>
    5cf2:	230c      	movs	r3, #12
    5cf4:	aa3e      	add	r2, sp, #248	; 0xf8
    5cf6:	a94c      	add	r1, sp, #304	; 0x130
    5cf8:	4650      	mov	r0, sl
    5cfa:	f7fa ff35 	bl	b68 <lfs_dir_commitprog>
    5cfe:	2800      	cmp	r0, #0
    5d00:	d001      	beq.n	5d06 <lfs_dir_commit+0xdd2>
    5d02:	f7ff fbab 	bl	545c <lfs_dir_commit+0x528>
    5d06:	954e      	str	r5, [sp, #312]	; 0x138
    5d08:	e509      	b.n	571e <lfs_dir_commit+0x7ea>
    5d0a:	0592      	lsls	r2, r2, #22
    5d0c:	d100      	bne.n	5d10 <lfs_dir_commit+0xddc>
    5d0e:	e609      	b.n	5924 <lfs_dir_commit+0x9f0>
    5d10:	46b0      	mov	r8, r6
    5d12:	ad3c      	add	r5, sp, #240	; 0xf0
    5d14:	9e29      	ldr	r6, [sp, #164]	; 0xa4
    5d16:	001a      	movs	r2, r3
    5d18:	e007      	b.n	5d2a <lfs_dir_commit+0xdf6>
    5d1a:	9b33      	ldr	r3, [sp, #204]	; 0xcc
    5d1c:	3401      	adds	r4, #1
    5d1e:	059a      	lsls	r2, r3, #22
    5d20:	350c      	adds	r5, #12
    5d22:	0d92      	lsrs	r2, r2, #22
    5d24:	4294      	cmp	r4, r2
    5d26:	d27b      	bcs.n	5e20 <lfs_dir_commit+0xeec>
    5d28:	0a9a      	lsrs	r2, r3, #10
    5d2a:	21c0      	movs	r1, #192	; 0xc0
    5d2c:	0089      	lsls	r1, r1, #2
    5d2e:	468c      	mov	ip, r1
    5d30:	0592      	lsls	r2, r2, #22
    5d32:	0d92      	lsrs	r2, r2, #22
    5d34:	68ab      	ldr	r3, [r5, #8]
    5d36:	1992      	adds	r2, r2, r6
    5d38:	0292      	lsls	r2, r2, #10
    5d3a:	431a      	orrs	r2, r3
    5d3c:	782b      	ldrb	r3, [r5, #0]
    5d3e:	4463      	add	r3, ip
    5d40:	051b      	lsls	r3, r3, #20
    5d42:	431a      	orrs	r2, r3
    5d44:	9b37      	ldr	r3, [sp, #220]	; 0xdc
    5d46:	930e      	str	r3, [sp, #56]	; 0x38
    5d48:	9b36      	ldr	r3, [sp, #216]	; 0xd8
    5d4a:	990e      	ldr	r1, [sp, #56]	; 0x38
    5d4c:	9319      	str	r3, [sp, #100]	; 0x64
    5d4e:	9819      	ldr	r0, [sp, #100]	; 0x64
    5d50:	686b      	ldr	r3, [r5, #4]
    5d52:	f7fa ff8f 	bl	c74 <lfs_dir_commitattr>
    5d56:	2800      	cmp	r0, #0
    5d58:	d0df      	beq.n	5d1a <lfs_dir_commit+0xde6>
    5d5a:	e62e      	b.n	59ba <lfs_dir_commit+0xa86>
    5d5c:	2201      	movs	r2, #1
    5d5e:	4252      	negs	r2, r2
    5d60:	609a      	str	r2, [r3, #8]
    5d62:	60da      	str	r2, [r3, #12]
    5d64:	f7ff fab3 	bl	52ce <lfs_dir_commit+0x39a>
    5d68:	464b      	mov	r3, r9
    5d6a:	464a      	mov	r2, r9
    5d6c:	8a9b      	ldrh	r3, [r3, #20]
    5d6e:	3b01      	subs	r3, #1
    5d70:	8293      	strh	r3, [r2, #20]
    5d72:	9b10      	ldr	r3, [sp, #64]	; 0x40
    5d74:	2201      	movs	r2, #1
    5d76:	2b03      	cmp	r3, #3
    5d78:	d001      	beq.n	5d7e <lfs_dir_commit+0xe4a>
    5d7a:	f7ff fb15 	bl	53a8 <lfs_dir_commit+0x474>
    5d7e:	f7ff f9a4 	bl	50ca <lfs_dir_commit+0x196>
    5d82:	464b      	mov	r3, r9
    5d84:	464a      	mov	r2, r9
    5d86:	8a9b      	ldrh	r3, [r3, #20]
    5d88:	3b01      	subs	r3, #1
    5d8a:	8293      	strh	r3, [r2, #20]
    5d8c:	9b10      	ldr	r3, [sp, #64]	; 0x40
    5d8e:	2201      	movs	r2, #1
    5d90:	2b05      	cmp	r3, #5
    5d92:	d101      	bne.n	5d98 <lfs_dir_commit+0xe64>
    5d94:	f7ff f976 	bl	5084 <lfs_dir_commit+0x150>
    5d98:	f7ff f997 	bl	50ca <lfs_dir_commit+0x196>
    5d9c:	2201      	movs	r2, #1
    5d9e:	4252      	negs	r2, r2
    5da0:	609a      	str	r2, [r3, #8]
    5da2:	60da      	str	r2, [r3, #12]
    5da4:	f7ff faa1 	bl	52ea <lfs_dir_commit+0x3b6>
    5da8:	0592      	lsls	r2, r2, #22
    5daa:	d100      	bne.n	5dae <lfs_dir_commit+0xe7a>
    5dac:	e686      	b.n	5abc <lfs_dir_commit+0xb88>
    5dae:	ae3e      	add	r6, sp, #248	; 0xf8
    5db0:	9f2c      	ldr	r7, [sp, #176]	; 0xb0
    5db2:	001a      	movs	r2, r3
    5db4:	e008      	b.n	5dc8 <lfs_dir_commit+0xe94>
    5db6:	9b34      	ldr	r3, [sp, #208]	; 0xd0
    5db8:	3401      	adds	r4, #1
    5dba:	059a      	lsls	r2, r3, #22
    5dbc:	360c      	adds	r6, #12
    5dbe:	0d92      	lsrs	r2, r2, #22
    5dc0:	4294      	cmp	r4, r2
    5dc2:	d300      	bcc.n	5dc6 <lfs_dir_commit+0xe92>
    5dc4:	e67a      	b.n	5abc <lfs_dir_commit+0xb88>
    5dc6:	0a9a      	lsrs	r2, r3, #10
    5dc8:	21c0      	movs	r1, #192	; 0xc0
    5dca:	0089      	lsls	r1, r1, #2
    5dcc:	468c      	mov	ip, r1
    5dce:	0592      	lsls	r2, r2, #22
    5dd0:	0d92      	lsrs	r2, r2, #22
    5dd2:	68b3      	ldr	r3, [r6, #8]
    5dd4:	19d2      	adds	r2, r2, r7
    5dd6:	0292      	lsls	r2, r2, #10
    5dd8:	431a      	orrs	r2, r3
    5dda:	7833      	ldrb	r3, [r6, #0]
    5ddc:	4463      	add	r3, ip
    5dde:	051b      	lsls	r3, r3, #20
    5de0:	431a      	orrs	r2, r3
    5de2:	9b37      	ldr	r3, [sp, #220]	; 0xdc
    5de4:	930e      	str	r3, [sp, #56]	; 0x38
    5de6:	9b36      	ldr	r3, [sp, #216]	; 0xd8
    5de8:	990e      	ldr	r1, [sp, #56]	; 0x38
    5dea:	931a      	str	r3, [sp, #104]	; 0x68
    5dec:	981a      	ldr	r0, [sp, #104]	; 0x68
    5dee:	6873      	ldr	r3, [r6, #4]
    5df0:	f7fa ff40 	bl	c74 <lfs_dir_commitattr>
    5df4:	2800      	cmp	r0, #0
    5df6:	d0de      	beq.n	5db6 <lfs_dir_commit+0xe82>
    5df8:	e5df      	b.n	59ba <lfs_dir_commit+0xa86>
    5dfa:	22af      	movs	r2, #175	; 0xaf
    5dfc:	ab26      	add	r3, sp, #152	; 0x98
    5dfe:	189b      	adds	r3, r3, r2
    5e00:	781b      	ldrb	r3, [r3, #0]
    5e02:	2b00      	cmp	r3, #0
    5e04:	d101      	bne.n	5e0a <lfs_dir_commit+0xed6>
    5e06:	f7ff f965 	bl	50d4 <lfs_dir_commit+0x1a0>
    5e0a:	464a      	mov	r2, r9
    5e0c:	a94c      	add	r1, sp, #304	; 0x130
    5e0e:	4650      	mov	r0, sl
    5e10:	f000 f872 	bl	5ef8 <lfs_dir_drop>
    5e14:	2800      	cmp	r0, #0
    5e16:	d101      	bne.n	5e1c <lfs_dir_commit+0xee8>
    5e18:	f7ff f95c 	bl	50d4 <lfs_dir_commit+0x1a0>
    5e1c:	f7ff fb26 	bl	546c <lfs_dir_commit+0x538>
    5e20:	4646      	mov	r6, r8
    5e22:	e57f      	b.n	5924 <lfs_dir_commit+0x9f0>
    5e24:	1c83      	adds	r3, r0, #2
    5e26:	d001      	beq.n	5e2c <lfs_dir_commit+0xef8>
    5e28:	f7ff fb20 	bl	546c <lfs_dir_commit+0x538>
    5e2c:	e74a      	b.n	5cc4 <lfs_dir_commit+0xd90>
    5e2e:	4652      	mov	r2, sl
    5e30:	6e92      	ldr	r2, [r2, #104]	; 0x68
    5e32:	9b3e      	ldr	r3, [sp, #248]	; 0xf8
    5e34:	6a11      	ldr	r1, [r2, #32]
    5e36:	428b      	cmp	r3, r1
    5e38:	d300      	bcc.n	5e3c <lfs_dir_commit+0xf08>
    5e3a:	e592      	b.n	5962 <lfs_dir_commit+0xa2e>
    5e3c:	69d2      	ldr	r2, [r2, #28]
    5e3e:	1d3e      	adds	r6, r7, #4
    5e40:	4296      	cmp	r6, r2
    5e42:	d800      	bhi.n	5e46 <lfs_dir_commit+0xf12>
    5e44:	e697      	b.n	5b76 <lfs_dir_commit+0xc42>
    5e46:	e58c      	b.n	5962 <lfs_dir_commit+0xa2e>
    5e48:	992d      	ldr	r1, [sp, #180]	; 0xb4
    5e4a:	ab36      	add	r3, sp, #216	; 0xd8
    5e4c:	468c      	mov	ip, r1
    5e4e:	9308      	str	r3, [sp, #32]
    5e50:	4b27      	ldr	r3, [pc, #156]	; (5ef0 <lfs_dir_commit+0xfbc>)
    5e52:	0592      	lsls	r2, r2, #22
    5e54:	9307      	str	r3, [sp, #28]
    5e56:	9b0e      	ldr	r3, [sp, #56]	; 0x38
    5e58:	0d92      	lsrs	r2, r2, #22
    5e5a:	1a9b      	subs	r3, r3, r2
    5e5c:	4463      	add	r3, ip
    5e5e:	b21b      	sxth	r3, r3
    5e60:	9306      	str	r3, [sp, #24]
    5e62:	1c53      	adds	r3, r2, #1
    5e64:	9305      	str	r3, [sp, #20]
    5e66:	2380      	movs	r3, #128	; 0x80
    5e68:	059b      	lsls	r3, r3, #22
    5e6a:	9303      	str	r3, [sp, #12]
    5e6c:	4b21      	ldr	r3, [pc, #132]	; (5ef4 <lfs_dir_commit+0xfc0>)
    5e6e:	9204      	str	r2, [sp, #16]
    5e70:	9302      	str	r3, [sp, #8]
    5e72:	2301      	movs	r3, #1
    5e74:	9001      	str	r0, [sp, #4]
    5e76:	9000      	str	r0, [sp, #0]
    5e78:	425b      	negs	r3, r3
    5e7a:	2200      	movs	r2, #0
    5e7c:	0029      	movs	r1, r5
    5e7e:	4650      	mov	r0, sl
    5e80:	f7fa fc76 	bl	770 <lfs_dir_traverse>
    5e84:	2800      	cmp	r0, #0
    5e86:	d100      	bne.n	5e8a <lfs_dir_commit+0xf56>
    5e88:	e6d5      	b.n	5c36 <lfs_dir_commit+0xd02>
    5e8a:	e596      	b.n	59ba <lfs_dir_commit+0xa86>
    5e8c:	0592      	lsls	r2, r2, #22
    5e8e:	d100      	bne.n	5e92 <lfs_dir_commit+0xf5e>
    5e90:	e6d1      	b.n	5c36 <lfs_dir_commit+0xd02>
    5e92:	942f      	str	r4, [sp, #188]	; 0xbc
    5e94:	9a1a      	ldr	r2, [sp, #104]	; 0x68
    5e96:	9c2e      	ldr	r4, [sp, #184]	; 0xb8
    5e98:	e007      	b.n	5eaa <lfs_dir_commit+0xf76>
    5e9a:	9b35      	ldr	r3, [sp, #212]	; 0xd4
    5e9c:	3601      	adds	r6, #1
    5e9e:	059a      	lsls	r2, r3, #22
    5ea0:	350c      	adds	r5, #12
    5ea2:	0d92      	lsrs	r2, r2, #22
    5ea4:	4296      	cmp	r6, r2
    5ea6:	d219      	bcs.n	5edc <lfs_dir_commit+0xfa8>
    5ea8:	0a9a      	lsrs	r2, r3, #10
    5eaa:	21c0      	movs	r1, #192	; 0xc0
    5eac:	0089      	lsls	r1, r1, #2
    5eae:	468c      	mov	ip, r1
    5eb0:	0592      	lsls	r2, r2, #22
    5eb2:	0d92      	lsrs	r2, r2, #22
    5eb4:	68ab      	ldr	r3, [r5, #8]
    5eb6:	1912      	adds	r2, r2, r4
    5eb8:	0292      	lsls	r2, r2, #10
    5eba:	431a      	orrs	r2, r3
    5ebc:	782b      	ldrb	r3, [r5, #0]
    5ebe:	4463      	add	r3, ip
    5ec0:	051b      	lsls	r3, r3, #20
    5ec2:	431a      	orrs	r2, r3
    5ec4:	9b37      	ldr	r3, [sp, #220]	; 0xdc
    5ec6:	930e      	str	r3, [sp, #56]	; 0x38
    5ec8:	9b36      	ldr	r3, [sp, #216]	; 0xd8
    5eca:	990e      	ldr	r1, [sp, #56]	; 0x38
    5ecc:	931a      	str	r3, [sp, #104]	; 0x68
    5ece:	981a      	ldr	r0, [sp, #104]	; 0x68
    5ed0:	686b      	ldr	r3, [r5, #4]
    5ed2:	f7fa fecf 	bl	c74 <lfs_dir_commitattr>
    5ed6:	2800      	cmp	r0, #0
    5ed8:	d0df      	beq.n	5e9a <lfs_dir_commit+0xf66>
    5eda:	e56e      	b.n	59ba <lfs_dir_commit+0xa86>
    5edc:	9c2f      	ldr	r4, [sp, #188]	; 0xbc
    5ede:	e6aa      	b.n	5c36 <lfs_dir_commit+0xd02>
    5ee0:	00000000 	.word	0x00000000
    5ee4:	7ff0000c 	.word	0x7ff0000c
    5ee8:	7ff00000 	.word	0x7ff00000
    5eec:	7ffffc0c 	.word	0x7ffffc0c
    5ef0:	00000000 	.word	0x00000000
    5ef4:	600ffc00 	.word	0x600ffc00

00005ef8 <lfs_dir_drop>:
    5ef8:	230c      	movs	r3, #12
    5efa:	b5f0      	push	{r4, r5, r6, r7, lr}
    5efc:	b089      	sub	sp, #36	; 0x24
    5efe:	0015      	movs	r5, r2
    5f00:	9302      	str	r3, [sp, #8]
    5f02:	2300      	movs	r3, #0
    5f04:	ae05      	add	r6, sp, #20
    5f06:	000f      	movs	r7, r1
    5f08:	9300      	str	r3, [sp, #0]
    5f0a:	9601      	str	r6, [sp, #4]
    5f0c:	4b14      	ldr	r3, [pc, #80]	; (5f60 <lfs_dir_drop+0x68>)
    5f0e:	4a15      	ldr	r2, [pc, #84]	; (5f64 <lfs_dir_drop+0x6c>)
    5f10:	0029      	movs	r1, r5
    5f12:	0004      	movs	r4, r0
    5f14:	f7fb fadc 	bl	14d0 <lfs_dir_getslice>
    5f18:	2800      	cmp	r0, #0
    5f1a:	db1e      	blt.n	5f5a <lfs_dir_drop+0x62>
    5f1c:	6ca3      	ldr	r3, [r4, #72]	; 0x48
    5f1e:	9a05      	ldr	r2, [sp, #20]
    5f20:	4053      	eors	r3, r2
    5f22:	64a3      	str	r3, [r4, #72]	; 0x48
    5f24:	9a06      	ldr	r2, [sp, #24]
    5f26:	6ce3      	ldr	r3, [r4, #76]	; 0x4c
    5f28:	4053      	eors	r3, r2
    5f2a:	64e3      	str	r3, [r4, #76]	; 0x4c
    5f2c:	9a07      	ldr	r2, [sp, #28]
    5f2e:	6d23      	ldr	r3, [r4, #80]	; 0x50
    5f30:	4053      	eors	r3, r2
    5f32:	6523      	str	r3, [r4, #80]	; 0x50
    5f34:	22c0      	movs	r2, #192	; 0xc0
    5f36:	00d2      	lsls	r2, r2, #3
    5f38:	4694      	mov	ip, r2
    5f3a:	7deb      	ldrb	r3, [r5, #23]
    5f3c:	4a0a      	ldr	r2, [pc, #40]	; (5f68 <lfs_dir_drop+0x70>)
    5f3e:	4463      	add	r3, ip
    5f40:	051b      	lsls	r3, r3, #20
    5f42:	4313      	orrs	r3, r2
    5f44:	9305      	str	r3, [sp, #20]
    5f46:	3518      	adds	r5, #24
    5f48:	2301      	movs	r3, #1
    5f4a:	0032      	movs	r2, r6
    5f4c:	0039      	movs	r1, r7
    5f4e:	0020      	movs	r0, r4
    5f50:	6075      	str	r5, [r6, #4]
    5f52:	f7fe ffef 	bl	4f34 <lfs_dir_commit>
    5f56:	b009      	add	sp, #36	; 0x24
    5f58:	bdf0      	pop	{r4, r5, r6, r7, pc}
    5f5a:	1c83      	adds	r3, r0, #2
    5f5c:	d1fb      	bne.n	5f56 <lfs_dir_drop+0x5e>
    5f5e:	e7e9      	b.n	5f34 <lfs_dir_drop+0x3c>
    5f60:	7ff0000c 	.word	0x7ff0000c
    5f64:	7ff00000 	.word	0x7ff00000
    5f68:	000ffc08 	.word	0x000ffc08

00005f6c <lfs_fs_forceconsistency>:
    5f6c:	b5f0      	push	{r4, r5, r6, r7, lr}
    5f6e:	46de      	mov	lr, fp
    5f70:	4657      	mov	r7, sl
    5f72:	464e      	mov	r6, r9
    5f74:	4645      	mov	r5, r8
    5f76:	22e0      	movs	r2, #224	; 0xe0
    5f78:	b5e0      	push	{r5, r6, r7, lr}
    5f7a:	6bc3      	ldr	r3, [r0, #60]	; 0x3c
    5f7c:	00d2      	lsls	r2, r2, #3
    5f7e:	0d19      	lsrs	r1, r3, #20
    5f80:	b0a9      	sub	sp, #164	; 0xa4
    5f82:	0004      	movs	r4, r0
    5f84:	4211      	tst	r1, r2
    5f86:	d000      	beq.n	5f8a <lfs_fs_forceconsistency+0x1e>
    5f88:	e0ae      	b.n	60e8 <lfs_fs_forceconsistency+0x17c>
    5f8a:	6b23      	ldr	r3, [r4, #48]	; 0x30
    5f8c:	059b      	lsls	r3, r3, #22
    5f8e:	d031      	beq.n	5ff4 <lfs_fs_forceconsistency+0x88>
    5f90:	ad18      	add	r5, sp, #96	; 0x60
    5f92:	221c      	movs	r2, #28
    5f94:	2100      	movs	r1, #0
    5f96:	0028      	movs	r0, r5
    5f98:	f7ff fffe 	bl	0 <memset>
    5f9c:	2301      	movs	r3, #1
    5f9e:	ae20      	add	r6, sp, #128	; 0x80
    5fa0:	75eb      	strb	r3, [r5, #23]
    5fa2:	61eb      	str	r3, [r5, #28]
    5fa4:	2301      	movs	r3, #1
    5fa6:	2200      	movs	r2, #0
    5fa8:	425b      	negs	r3, r3
    5faa:	9203      	str	r2, [sp, #12]
    5fac:	9202      	str	r2, [sp, #8]
    5fae:	9201      	str	r2, [sp, #4]
    5fb0:	9300      	str	r3, [sp, #0]
    5fb2:	aa1e      	add	r2, sp, #120	; 0x78
    5fb4:	0031      	movs	r1, r6
    5fb6:	0020      	movs	r0, r4
    5fb8:	f7fa ff56 	bl	e68 <lfs_dir_fetchmatch>
    5fbc:	2800      	cmp	r0, #0
    5fbe:	d11a      	bne.n	5ff6 <lfs_fs_forceconsistency+0x8a>
    5fc0:	7deb      	ldrb	r3, [r5, #23]
    5fc2:	2b00      	cmp	r3, #0
    5fc4:	d01e      	beq.n	6004 <lfs_fs_forceconsistency+0x98>
    5fc6:	2220      	movs	r2, #32
    5fc8:	0031      	movs	r1, r6
    5fca:	0028      	movs	r0, r5
    5fcc:	f7ff fffe 	bl	0 <memcpy>
    5fd0:	9b1e      	ldr	r3, [sp, #120]	; 0x78
    5fd2:	3301      	adds	r3, #1
    5fd4:	d002      	beq.n	5fdc <lfs_fs_forceconsistency+0x70>
    5fd6:	9b1f      	ldr	r3, [sp, #124]	; 0x7c
    5fd8:	3301      	adds	r3, #1
    5fda:	d1e3      	bne.n	5fa4 <lfs_fs_forceconsistency+0x38>
    5fdc:	6b22      	ldr	r2, [r4, #48]	; 0x30
    5fde:	4253      	negs	r3, r2
    5fe0:	b25b      	sxtb	r3, r3
    5fe2:	189b      	adds	r3, r3, r2
    5fe4:	059a      	lsls	r2, r3, #22
    5fe6:	1e51      	subs	r1, r2, #1
    5fe8:	418a      	sbcs	r2, r1
    5fea:	005b      	lsls	r3, r3, #1
    5fec:	07d2      	lsls	r2, r2, #31
    5fee:	085b      	lsrs	r3, r3, #1
    5ff0:	4313      	orrs	r3, r2
    5ff2:	6323      	str	r3, [r4, #48]	; 0x30
    5ff4:	2000      	movs	r0, #0
    5ff6:	b029      	add	sp, #164	; 0xa4
    5ff8:	bc3c      	pop	{r2, r3, r4, r5}
    5ffa:	4690      	mov	r8, r2
    5ffc:	4699      	mov	r9, r3
    5ffe:	46a2      	mov	sl, r4
    6000:	46ab      	mov	fp, r5
    6002:	bdf0      	pop	{r4, r5, r6, r7, pc}
    6004:	2301      	movs	r3, #1
    6006:	2200      	movs	r2, #0
    6008:	9216      	str	r2, [sp, #88]	; 0x58
    600a:	9317      	str	r3, [sp, #92]	; 0x5c
    600c:	6ea3      	ldr	r3, [r4, #104]	; 0x68
    600e:	6a1b      	ldr	r3, [r3, #32]
    6010:	085b      	lsrs	r3, r3, #1
    6012:	d100      	bne.n	6016 <lfs_fs_forceconsistency+0xaa>
    6014:	e0d1      	b.n	61ba <lfs_fs_forceconsistency+0x24e>
    6016:	ab0a      	add	r3, sp, #40	; 0x28
    6018:	4698      	mov	r8, r3
    601a:	4b6f      	ldr	r3, [pc, #444]	; (61d8 <lfs_fs_forceconsistency+0x26c>)
    601c:	2700      	movs	r7, #0
    601e:	469b      	mov	fp, r3
    6020:	2300      	movs	r3, #0
    6022:	4699      	mov	r9, r3
    6024:	4b6d      	ldr	r3, [pc, #436]	; (61dc <lfs_fs_forceconsistency+0x270>)
    6026:	469a      	mov	sl, r3
    6028:	e009      	b.n	603e <lfs_fs_forceconsistency+0xd2>
    602a:	9b17      	ldr	r3, [sp, #92]	; 0x5c
    602c:	3701      	adds	r7, #1
    602e:	3301      	adds	r3, #1
    6030:	d020      	beq.n	6074 <lfs_fs_forceconsistency+0x108>
    6032:	6ea3      	ldr	r3, [r4, #104]	; 0x68
    6034:	6a1b      	ldr	r3, [r3, #32]
    6036:	085b      	lsrs	r3, r3, #1
    6038:	42bb      	cmp	r3, r7
    603a:	d800      	bhi.n	603e <lfs_fs_forceconsistency+0xd2>
    603c:	e0bd      	b.n	61ba <lfs_fs_forceconsistency+0x24e>
    603e:	4643      	mov	r3, r8
    6040:	601c      	str	r4, [r3, #0]
    6042:	9b1e      	ldr	r3, [sp, #120]	; 0x78
    6044:	aa16      	add	r2, sp, #88	; 0x58
    6046:	930b      	str	r3, [sp, #44]	; 0x2c
    6048:	9b1f      	ldr	r3, [sp, #124]	; 0x7c
    604a:	a910      	add	r1, sp, #64	; 0x40
    604c:	930c      	str	r3, [sp, #48]	; 0x30
    604e:	4643      	mov	r3, r8
    6050:	9303      	str	r3, [sp, #12]
    6052:	465b      	mov	r3, fp
    6054:	9302      	str	r3, [sp, #8]
    6056:	464b      	mov	r3, r9
    6058:	9301      	str	r3, [sp, #4]
    605a:	4653      	mov	r3, sl
    605c:	0020      	movs	r0, r4
    605e:	9300      	str	r3, [sp, #0]
    6060:	4b5f      	ldr	r3, [pc, #380]	; (61e0 <lfs_fs_forceconsistency+0x274>)
    6062:	f7fa ff01 	bl	e68 <lfs_dir_fetchmatch>
    6066:	2202      	movs	r2, #2
    6068:	1c83      	adds	r3, r0, #2
    606a:	4393      	bics	r3, r2
    606c:	d172      	bne.n	6154 <lfs_fs_forceconsistency+0x1e8>
    606e:	9b16      	ldr	r3, [sp, #88]	; 0x58
    6070:	3301      	adds	r3, #1
    6072:	d1da      	bne.n	602a <lfs_fs_forceconsistency+0xbe>
    6074:	4b5b      	ldr	r3, [pc, #364]	; (61e4 <lfs_fs_forceconsistency+0x278>)
    6076:	4a5c      	ldr	r2, [pc, #368]	; (61e8 <lfs_fs_forceconsistency+0x27c>)
    6078:	9301      	str	r3, [sp, #4]
    607a:	69eb      	ldr	r3, [r5, #28]
    607c:	495b      	ldr	r1, [pc, #364]	; (61ec <lfs_fs_forceconsistency+0x280>)
    607e:	9300      	str	r3, [sp, #0]
    6080:	69ab      	ldr	r3, [r5, #24]
    6082:	485b      	ldr	r0, [pc, #364]	; (61f0 <lfs_fs_forceconsistency+0x284>)
    6084:	f7ff fffe 	bl	0 <printf>
    6088:	230c      	movs	r3, #12
    608a:	9302      	str	r3, [sp, #8]
    608c:	ab0d      	add	r3, sp, #52	; 0x34
    608e:	9301      	str	r3, [sp, #4]
    6090:	2300      	movs	r3, #0
    6092:	4a58      	ldr	r2, [pc, #352]	; (61f4 <lfs_fs_forceconsistency+0x288>)
    6094:	9300      	str	r3, [sp, #0]
    6096:	0031      	movs	r1, r6
    6098:	4b57      	ldr	r3, [pc, #348]	; (61f8 <lfs_fs_forceconsistency+0x28c>)
    609a:	0020      	movs	r0, r4
    609c:	f7fb fa18 	bl	14d0 <lfs_dir_getslice>
    60a0:	2800      	cmp	r0, #0
    60a2:	da00      	bge.n	60a6 <lfs_fs_forceconsistency+0x13a>
    60a4:	e094      	b.n	61d0 <lfs_fs_forceconsistency+0x264>
    60a6:	6ca3      	ldr	r3, [r4, #72]	; 0x48
    60a8:	9a0d      	ldr	r2, [sp, #52]	; 0x34
    60aa:	4053      	eors	r3, r2
    60ac:	64a3      	str	r3, [r4, #72]	; 0x48
    60ae:	9a0e      	ldr	r2, [sp, #56]	; 0x38
    60b0:	6ce3      	ldr	r3, [r4, #76]	; 0x4c
    60b2:	4053      	eors	r3, r2
    60b4:	64e3      	str	r3, [r4, #76]	; 0x4c
    60b6:	9a0f      	ldr	r2, [sp, #60]	; 0x3c
    60b8:	6d23      	ldr	r3, [r4, #80]	; 0x50
    60ba:	4053      	eors	r3, r2
    60bc:	6523      	str	r3, [r4, #80]	; 0x50
    60be:	22c0      	movs	r2, #192	; 0xc0
    60c0:	00d2      	lsls	r2, r2, #3
    60c2:	4694      	mov	ip, r2
    60c4:	7df3      	ldrb	r3, [r6, #23]
    60c6:	4a4d      	ldr	r2, [pc, #308]	; (61fc <lfs_fs_forceconsistency+0x290>)
    60c8:	4463      	add	r3, ip
    60ca:	051b      	lsls	r3, r3, #20
    60cc:	4313      	orrs	r3, r2
    60ce:	9308      	str	r3, [sp, #32]
    60d0:	ab26      	add	r3, sp, #152	; 0x98
    60d2:	9309      	str	r3, [sp, #36]	; 0x24
    60d4:	aa08      	add	r2, sp, #32
    60d6:	2301      	movs	r3, #1
    60d8:	0029      	movs	r1, r5
    60da:	0020      	movs	r0, r4
    60dc:	f7fe ff2a 	bl	4f34 <lfs_dir_commit>
    60e0:	2800      	cmp	r0, #0
    60e2:	d100      	bne.n	60e6 <lfs_fs_forceconsistency+0x17a>
    60e4:	e774      	b.n	5fd0 <lfs_fs_forceconsistency+0x64>
    60e6:	e786      	b.n	5ff6 <lfs_fs_forceconsistency+0x8a>
    60e8:	4a3e      	ldr	r2, [pc, #248]	; (61e4 <lfs_fs_forceconsistency+0x278>)
    60ea:	031b      	lsls	r3, r3, #12
    60ec:	0d9b      	lsrs	r3, r3, #22
    60ee:	9202      	str	r2, [sp, #8]
    60f0:	9301      	str	r3, [sp, #4]
    60f2:	6c43      	ldr	r3, [r0, #68]	; 0x44
    60f4:	4a42      	ldr	r2, [pc, #264]	; (6200 <lfs_fs_forceconsistency+0x294>)
    60f6:	9300      	str	r3, [sp, #0]
    60f8:	6c03      	ldr	r3, [r0, #64]	; 0x40
    60fa:	493c      	ldr	r1, [pc, #240]	; (61ec <lfs_fs_forceconsistency+0x280>)
    60fc:	4841      	ldr	r0, [pc, #260]	; (6204 <lfs_fs_forceconsistency+0x298>)
    60fe:	f7ff fffe 	bl	0 <printf>
    6102:	2200      	movs	r2, #0
    6104:	2301      	movs	r3, #1
    6106:	9203      	str	r2, [sp, #12]
    6108:	9202      	str	r2, [sp, #8]
    610a:	9201      	str	r2, [sp, #4]
    610c:	0022      	movs	r2, r4
    610e:	425b      	negs	r3, r3
    6110:	ae20      	add	r6, sp, #128	; 0x80
    6112:	9300      	str	r3, [sp, #0]
    6114:	3240      	adds	r2, #64	; 0x40
    6116:	0031      	movs	r1, r6
    6118:	0020      	movs	r0, r4
    611a:	f7fa fea5 	bl	e68 <lfs_dir_fetchmatch>
    611e:	2800      	cmp	r0, #0
    6120:	d000      	beq.n	6124 <lfs_fs_forceconsistency+0x1b8>
    6122:	e768      	b.n	5ff6 <lfs_fs_forceconsistency+0x8a>
    6124:	6b21      	ldr	r1, [r4, #48]	; 0x30
    6126:	6be3      	ldr	r3, [r4, #60]	; 0x3c
    6128:	4a37      	ldr	r2, [pc, #220]	; (6208 <lfs_fs_forceconsistency+0x29c>)
    612a:	031b      	lsls	r3, r3, #12
    612c:	400a      	ands	r2, r1
    612e:	0d9b      	lsrs	r3, r3, #22
    6130:	6322      	str	r2, [r4, #48]	; 0x30
    6132:	4a36      	ldr	r2, [pc, #216]	; (620c <lfs_fs_forceconsistency+0x2a0>)
    6134:	029b      	lsls	r3, r3, #10
    6136:	4313      	orrs	r3, r2
    6138:	6360      	str	r0, [r4, #52]	; 0x34
    613a:	63a0      	str	r0, [r4, #56]	; 0x38
    613c:	9304      	str	r3, [sp, #16]
    613e:	9005      	str	r0, [sp, #20]
    6140:	2301      	movs	r3, #1
    6142:	aa04      	add	r2, sp, #16
    6144:	0031      	movs	r1, r6
    6146:	0020      	movs	r0, r4
    6148:	f7fe fef4 	bl	4f34 <lfs_dir_commit>
    614c:	2800      	cmp	r0, #0
    614e:	d100      	bne.n	6152 <lfs_fs_forceconsistency+0x1e6>
    6150:	e71b      	b.n	5f8a <lfs_fs_forceconsistency+0x1e>
    6152:	e750      	b.n	5ff6 <lfs_fs_forceconsistency+0x8a>
    6154:	2800      	cmp	r0, #0
    6156:	da00      	bge.n	615a <lfs_fs_forceconsistency+0x1ee>
    6158:	e74d      	b.n	5ff6 <lfs_fs_forceconsistency+0x8a>
    615a:	0583      	lsls	r3, r0, #22
    615c:	0d9b      	lsrs	r3, r3, #22
    615e:	9302      	str	r3, [sp, #8]
    6160:	ab0d      	add	r3, sp, #52	; 0x34
    6162:	9301      	str	r3, [sp, #4]
    6164:	464b      	mov	r3, r9
    6166:	4a2a      	ldr	r2, [pc, #168]	; (6210 <lfs_fs_forceconsistency+0x2a4>)
    6168:	9300      	str	r3, [sp, #0]
    616a:	a910      	add	r1, sp, #64	; 0x40
    616c:	0003      	movs	r3, r0
    616e:	0020      	movs	r0, r4
    6170:	f7fb f9ae 	bl	14d0 <lfs_dir_getslice>
    6174:	2800      	cmp	r0, #0
    6176:	da00      	bge.n	617a <lfs_fs_forceconsistency+0x20e>
    6178:	e73d      	b.n	5ff6 <lfs_fs_forceconsistency+0x8a>
    617a:	9a0d      	ldr	r2, [sp, #52]	; 0x34
    617c:	9b1e      	ldr	r3, [sp, #120]	; 0x78
    617e:	991f      	ldr	r1, [sp, #124]	; 0x7c
    6180:	980e      	ldr	r0, [sp, #56]	; 0x38
    6182:	429a      	cmp	r2, r3
    6184:	d01c      	beq.n	61c0 <lfs_fs_forceconsistency+0x254>
    6186:	428a      	cmp	r2, r1
    6188:	d01f      	beq.n	61ca <lfs_fs_forceconsistency+0x25e>
    618a:	4f16      	ldr	r7, [pc, #88]	; (61e4 <lfs_fs_forceconsistency+0x278>)
    618c:	9002      	str	r0, [sp, #8]
    618e:	9201      	str	r2, [sp, #4]
    6190:	9100      	str	r1, [sp, #0]
    6192:	4a20      	ldr	r2, [pc, #128]	; (6214 <lfs_fs_forceconsistency+0x2a8>)
    6194:	4915      	ldr	r1, [pc, #84]	; (61ec <lfs_fs_forceconsistency+0x280>)
    6196:	9703      	str	r7, [sp, #12]
    6198:	481f      	ldr	r0, [pc, #124]	; (6218 <lfs_fs_forceconsistency+0x2ac>)
    619a:	f7ff fffe 	bl	0 <printf>
    619e:	4b1f      	ldr	r3, [pc, #124]	; (621c <lfs_fs_forceconsistency+0x2b0>)
    61a0:	aa06      	add	r2, sp, #24
    61a2:	9306      	str	r3, [sp, #24]
    61a4:	ab0d      	add	r3, sp, #52	; 0x34
    61a6:	9307      	str	r3, [sp, #28]
    61a8:	0029      	movs	r1, r5
    61aa:	2301      	movs	r3, #1
    61ac:	0020      	movs	r0, r4
    61ae:	f7fe fec1 	bl	4f34 <lfs_dir_commit>
    61b2:	2800      	cmp	r0, #0
    61b4:	d000      	beq.n	61b8 <lfs_fs_forceconsistency+0x24c>
    61b6:	e71e      	b.n	5ff6 <lfs_fs_forceconsistency+0x8a>
    61b8:	e70a      	b.n	5fd0 <lfs_fs_forceconsistency+0x64>
    61ba:	2054      	movs	r0, #84	; 0x54
    61bc:	4240      	negs	r0, r0
    61be:	e71a      	b.n	5ff6 <lfs_fs_forceconsistency+0x8a>
    61c0:	4288      	cmp	r0, r1
    61c2:	d100      	bne.n	61c6 <lfs_fs_forceconsistency+0x25a>
    61c4:	e6ff      	b.n	5fc6 <lfs_fs_forceconsistency+0x5a>
    61c6:	428a      	cmp	r2, r1
    61c8:	d1df      	bne.n	618a <lfs_fs_forceconsistency+0x21e>
    61ca:	4283      	cmp	r3, r0
    61cc:	d1dd      	bne.n	618a <lfs_fs_forceconsistency+0x21e>
    61ce:	e6fa      	b.n	5fc6 <lfs_fs_forceconsistency+0x5a>
    61d0:	1c83      	adds	r3, r0, #2
    61d2:	d000      	beq.n	61d6 <lfs_fs_forceconsistency+0x26a>
    61d4:	e70f      	b.n	5ff6 <lfs_fs_forceconsistency+0x8a>
    61d6:	e772      	b.n	60be <lfs_fs_forceconsistency+0x152>
    61d8:	00000000 	.word	0x00000000
    61dc:	20000008 	.word	0x20000008
    61e0:	7ff003ff 	.word	0x7ff003ff
    61e4:	00000074 	.word	0x00000074
    61e8:	0000104f 	.word	0x0000104f
    61ec:	00000000 	.word	0x00000000
    61f0:	000001e8 	.word	0x000001e8
    61f4:	7ff00000 	.word	0x7ff00000
    61f8:	7ff0000c 	.word	0x7ff0000c
    61fc:	000ffc08 	.word	0x000ffc08
    6200:	0000101c 	.word	0x0000101c
    6204:	000001b4 	.word	0x000001b4
    6208:	800003ff 	.word	0x800003ff
    620c:	4ff00000 	.word	0x4ff00000
    6210:	7ffffc00 	.word	0x7ffffc00
    6214:	00001066 	.word	0x00001066
    6218:	00000218 	.word	0x00000218
    621c:	600ffc08 	.word	0x600ffc08

00006220 <lfs_file_rawopencfg>:
    6220:	b5f0      	push	{r4, r5, r6, r7, lr}
    6222:	4657      	mov	r7, sl
    6224:	4645      	mov	r5, r8
    6226:	46de      	mov	lr, fp
    6228:	464e      	mov	r6, r9
    622a:	b5e0      	push	{r5, r6, r7, lr}
    622c:	001d      	movs	r5, r3
    622e:	b08d      	sub	sp, #52	; 0x34
    6230:	0007      	movs	r7, r0
    6232:	000c      	movs	r4, r1
    6234:	9205      	str	r2, [sp, #20]
    6236:	07ab      	lsls	r3, r5, #30
    6238:	d504      	bpl.n	6244 <lfs_file_rawopencfg+0x24>
    623a:	f7ff fe97 	bl	5f6c <lfs_fs_forceconsistency>
    623e:	1e06      	subs	r6, r0, #0
    6240:	d000      	beq.n	6244 <lfs_file_rawopencfg+0x24>
    6242:	e088      	b.n	6356 <lfs_file_rawopencfg+0x136>
    6244:	9b16      	ldr	r3, [sp, #88]	; 0x58
    6246:	6325      	str	r5, [r4, #48]	; 0x30
    6248:	6523      	str	r3, [r4, #80]	; 0x50
    624a:	2300      	movs	r3, #0
    624c:	6363      	str	r3, [r4, #52]	; 0x34
    624e:	63e3      	str	r3, [r4, #60]	; 0x3c
    6250:	64e3      	str	r3, [r4, #76]	; 0x4c
    6252:	4698      	mov	r8, r3
    6254:	3308      	adds	r3, #8
    6256:	4699      	mov	r9, r3
    6258:	44a1      	add	r9, r4
    625a:	1d23      	adds	r3, r4, #4
    625c:	aa05      	add	r2, sp, #20
    625e:	4649      	mov	r1, r9
    6260:	0038      	movs	r0, r7
    6262:	f7fb fc91 	bl	1b88 <lfs_dir_find>
    6266:	1e06      	subs	r6, r0, #0
    6268:	da00      	bge.n	626c <lfs_file_rawopencfg+0x4c>
    626a:	e07c      	b.n	6366 <lfs_file_rawopencfg+0x146>
    626c:	2301      	movs	r3, #1
    626e:	71a3      	strb	r3, [r4, #6]
    6270:	6abb      	ldr	r3, [r7, #40]	; 0x28
    6272:	6023      	str	r3, [r4, #0]
    6274:	62bc      	str	r4, [r7, #40]	; 0x28
    6276:	05ab      	lsls	r3, r5, #22
    6278:	d500      	bpl.n	627c <lfs_file_rawopencfg+0x5c>
    627a:	e0b9      	b.n	63f0 <lfs_file_rawopencfg+0x1d0>
    627c:	0d36      	lsrs	r6, r6, #20
    627e:	2e01      	cmp	r6, #1
    6280:	d000      	beq.n	6284 <lfs_file_rawopencfg+0x64>
    6282:	e0b0      	b.n	63e6 <lfs_file_rawopencfg+0x1c6>
    6284:	88a2      	ldrh	r2, [r4, #4]
    6286:	0292      	lsls	r2, r2, #10
    6288:	056b      	lsls	r3, r5, #21
    628a:	d400      	bmi.n	628e <lfs_file_rawopencfg+0x6e>
    628c:	e10b      	b.n	64a6 <lfs_file_rawopencfg+0x286>
    628e:	4b96      	ldr	r3, [pc, #600]	; (64e8 <lfs_file_rawopencfg+0x2c8>)
    6290:	4313      	orrs	r3, r2
    6292:	469b      	mov	fp, r3
    6294:	2380      	movs	r3, #128	; 0x80
    6296:	6b22      	ldr	r2, [r4, #48]	; 0x30
    6298:	025b      	lsls	r3, r3, #9
    629a:	4313      	orrs	r3, r2
    629c:	6323      	str	r3, [r4, #48]	; 0x30
    629e:	6d21      	ldr	r1, [r4, #80]	; 0x50
    62a0:	688b      	ldr	r3, [r1, #8]
    62a2:	2b00      	cmp	r3, #0
    62a4:	d042      	beq.n	632c <lfs_file_rawopencfg+0x10c>
    62a6:	2201      	movs	r2, #1
    62a8:	4690      	mov	r8, r2
    62aa:	2200      	movs	r2, #0
    62ac:	6b23      	ldr	r3, [r4, #48]	; 0x30
    62ae:	2500      	movs	r5, #0
    62b0:	4692      	mov	sl, r2
    62b2:	e014      	b.n	62de <lfs_file_rawopencfg+0xbe>
    62b4:	079a      	lsls	r2, r3, #30
    62b6:	d50e      	bpl.n	62d6 <lfs_file_rawopencfg+0xb6>
    62b8:	6848      	ldr	r0, [r1, #4]
    62ba:	006a      	lsls	r2, r5, #1
    62bc:	4684      	mov	ip, r0
    62be:	1952      	adds	r2, r2, r5
    62c0:	0092      	lsls	r2, r2, #2
    62c2:	4462      	add	r2, ip
    62c4:	6892      	ldr	r2, [r2, #8]
    62c6:	6f78      	ldr	r0, [r7, #116]	; 0x74
    62c8:	4282      	cmp	r2, r0
    62ca:	d900      	bls.n	62ce <lfs_file_rawopencfg+0xae>
    62cc:	e0ba      	b.n	6444 <lfs_file_rawopencfg+0x224>
    62ce:	2280      	movs	r2, #128	; 0x80
    62d0:	0252      	lsls	r2, r2, #9
    62d2:	4313      	orrs	r3, r2
    62d4:	6323      	str	r3, [r4, #48]	; 0x30
    62d6:	688a      	ldr	r2, [r1, #8]
    62d8:	3501      	adds	r5, #1
    62da:	42aa      	cmp	r2, r5
    62dc:	d926      	bls.n	632c <lfs_file_rawopencfg+0x10c>
    62de:	4642      	mov	r2, r8
    62e0:	421a      	tst	r2, r3
    62e2:	d0e7      	beq.n	62b4 <lfs_file_rawopencfg+0x94>
    62e4:	20c0      	movs	r0, #192	; 0xc0
    62e6:	0080      	lsls	r0, r0, #2
    62e8:	4684      	mov	ip, r0
    62ea:	006a      	lsls	r2, r5, #1
    62ec:	684b      	ldr	r3, [r1, #4]
    62ee:	1952      	adds	r2, r2, r5
    62f0:	0092      	lsls	r2, r2, #2
    62f2:	189a      	adds	r2, r3, r2
    62f4:	88a3      	ldrh	r3, [r4, #4]
    62f6:	6891      	ldr	r1, [r2, #8]
    62f8:	029b      	lsls	r3, r3, #10
    62fa:	430b      	orrs	r3, r1
    62fc:	7811      	ldrb	r1, [r2, #0]
    62fe:	0038      	movs	r0, r7
    6300:	4461      	add	r1, ip
    6302:	0509      	lsls	r1, r1, #20
    6304:	430b      	orrs	r3, r1
    6306:	0599      	lsls	r1, r3, #22
    6308:	0d89      	lsrs	r1, r1, #22
    630a:	9102      	str	r1, [sp, #8]
    630c:	6852      	ldr	r2, [r2, #4]
    630e:	4649      	mov	r1, r9
    6310:	9201      	str	r2, [sp, #4]
    6312:	4652      	mov	r2, sl
    6314:	9200      	str	r2, [sp, #0]
    6316:	4a75      	ldr	r2, [pc, #468]	; (64ec <lfs_file_rawopencfg+0x2cc>)
    6318:	f7fb f8da 	bl	14d0 <lfs_dir_getslice>
    631c:	6b23      	ldr	r3, [r4, #48]	; 0x30
    631e:	1e06      	subs	r6, r0, #0
    6320:	6d21      	ldr	r1, [r4, #80]	; 0x50
    6322:	dac7      	bge.n	62b4 <lfs_file_rawopencfg+0x94>
    6324:	1c82      	adds	r2, r0, #2
    6326:	d0c5      	beq.n	62b4 <lfs_file_rawopencfg+0x94>
    6328:	6aba      	ldr	r2, [r7, #40]	; 0x28
    632a:	e021      	b.n	6370 <lfs_file_rawopencfg+0x150>
    632c:	6ebb      	ldr	r3, [r7, #104]	; 0x68
    632e:	6808      	ldr	r0, [r1, #0]
    6330:	6a9d      	ldr	r5, [r3, #40]	; 0x28
    6332:	2800      	cmp	r0, #0
    6334:	d100      	bne.n	6338 <lfs_file_rawopencfg+0x118>
    6336:	e0c9      	b.n	64cc <lfs_file_rawopencfg+0x2ac>
    6338:	64e0      	str	r0, [r4, #76]	; 0x4c
    633a:	002a      	movs	r2, r5
    633c:	21ff      	movs	r1, #255	; 0xff
    633e:	f7ff fffe 	bl	0 <memset>
    6342:	2301      	movs	r3, #1
    6344:	425b      	negs	r3, r3
    6346:	6423      	str	r3, [r4, #64]	; 0x40
    6348:	465b      	mov	r3, fp
    634a:	4a69      	ldr	r2, [pc, #420]	; (64f0 <lfs_file_rawopencfg+0x2d0>)
    634c:	0d1b      	lsrs	r3, r3, #20
    634e:	4293      	cmp	r3, r2
    6350:	d100      	bne.n	6354 <lfs_file_rawopencfg+0x134>
    6352:	e07b      	b.n	644c <lfs_file_rawopencfg+0x22c>
    6354:	2600      	movs	r6, #0
    6356:	0030      	movs	r0, r6
    6358:	b00d      	add	sp, #52	; 0x34
    635a:	bc3c      	pop	{r2, r3, r4, r5}
    635c:	4690      	mov	r8, r2
    635e:	4699      	mov	r9, r3
    6360:	46a2      	mov	sl, r4
    6362:	46ab      	mov	fp, r5
    6364:	bdf0      	pop	{r4, r5, r6, r7, pc}
    6366:	6aba      	ldr	r2, [r7, #40]	; 0x28
    6368:	1c83      	adds	r3, r0, #2
    636a:	d01f      	beq.n	63ac <lfs_file_rawopencfg+0x18c>
    636c:	6b23      	ldr	r3, [r4, #48]	; 0x30
    636e:	6d21      	ldr	r1, [r4, #80]	; 0x50
    6370:	2080      	movs	r0, #128	; 0x80
    6372:	0300      	lsls	r0, r0, #12
    6374:	4303      	orrs	r3, r0
    6376:	6323      	str	r3, [r4, #48]	; 0x30
    6378:	2a00      	cmp	r2, #0
    637a:	d008      	beq.n	638e <lfs_file_rawopencfg+0x16e>
    637c:	4294      	cmp	r4, r2
    637e:	d103      	bne.n	6388 <lfs_file_rawopencfg+0x168>
    6380:	e02f      	b.n	63e2 <lfs_file_rawopencfg+0x1c2>
    6382:	42a3      	cmp	r3, r4
    6384:	d00a      	beq.n	639c <lfs_file_rawopencfg+0x17c>
    6386:	001a      	movs	r2, r3
    6388:	6813      	ldr	r3, [r2, #0]
    638a:	2b00      	cmp	r3, #0
    638c:	d1f9      	bne.n	6382 <lfs_file_rawopencfg+0x162>
    638e:	680b      	ldr	r3, [r1, #0]
    6390:	2b00      	cmp	r3, #0
    6392:	d1e0      	bne.n	6356 <lfs_file_rawopencfg+0x136>
    6394:	6ce0      	ldr	r0, [r4, #76]	; 0x4c
    6396:	f7ff fffe 	bl	0 <free>
    639a:	e7dc      	b.n	6356 <lfs_file_rawopencfg+0x136>
    639c:	0017      	movs	r7, r2
    639e:	0022      	movs	r2, r4
    63a0:	6813      	ldr	r3, [r2, #0]
    63a2:	603b      	str	r3, [r7, #0]
    63a4:	680b      	ldr	r3, [r1, #0]
    63a6:	2b00      	cmp	r3, #0
    63a8:	d1d5      	bne.n	6356 <lfs_file_rawopencfg+0x136>
    63aa:	e7f3      	b.n	6394 <lfs_file_rawopencfg+0x174>
    63ac:	88a3      	ldrh	r3, [r4, #4]
    63ae:	469a      	mov	sl, r3
    63b0:	4b50      	ldr	r3, [pc, #320]	; (64f4 <lfs_file_rawopencfg+0x2d4>)
    63b2:	459a      	cmp	sl, r3
    63b4:	d0da      	beq.n	636c <lfs_file_rawopencfg+0x14c>
    63b6:	2301      	movs	r3, #1
    63b8:	6022      	str	r2, [r4, #0]
    63ba:	71a3      	strb	r3, [r4, #6]
    63bc:	62bc      	str	r4, [r7, #40]	; 0x28
    63be:	05eb      	lsls	r3, r5, #23
    63c0:	d51b      	bpl.n	63fa <lfs_file_rawopencfg+0x1da>
    63c2:	9d05      	ldr	r5, [sp, #20]
    63c4:	0028      	movs	r0, r5
    63c6:	f7ff fffe 	bl	0 <strlen>
    63ca:	6efb      	ldr	r3, [r7, #108]	; 0x6c
    63cc:	4283      	cmp	r3, r0
    63ce:	d217      	bcs.n	6400 <lfs_file_rawopencfg+0x1e0>
    63d0:	2624      	movs	r6, #36	; 0x24
    63d2:	6b23      	ldr	r3, [r4, #48]	; 0x30
    63d4:	6d21      	ldr	r1, [r4, #80]	; 0x50
    63d6:	4276      	negs	r6, r6
    63d8:	2280      	movs	r2, #128	; 0x80
    63da:	0312      	lsls	r2, r2, #12
    63dc:	4313      	orrs	r3, r2
    63de:	0022      	movs	r2, r4
    63e0:	6323      	str	r3, [r4, #48]	; 0x30
    63e2:	3728      	adds	r7, #40	; 0x28
    63e4:	e7dc      	b.n	63a0 <lfs_file_rawopencfg+0x180>
    63e6:	2615      	movs	r6, #21
    63e8:	6b23      	ldr	r3, [r4, #48]	; 0x30
    63ea:	6d21      	ldr	r1, [r4, #80]	; 0x50
    63ec:	4276      	negs	r6, r6
    63ee:	e7f3      	b.n	63d8 <lfs_file_rawopencfg+0x1b8>
    63f0:	2611      	movs	r6, #17
    63f2:	6b23      	ldr	r3, [r4, #48]	; 0x30
    63f4:	6d21      	ldr	r1, [r4, #80]	; 0x50
    63f6:	4276      	negs	r6, r6
    63f8:	e7ee      	b.n	63d8 <lfs_file_rawopencfg+0x1b8>
    63fa:	6b23      	ldr	r3, [r4, #48]	; 0x30
    63fc:	6d21      	ldr	r1, [r4, #80]	; 0x50
    63fe:	e7eb      	b.n	63d8 <lfs_file_rawopencfg+0x1b8>
    6400:	4653      	mov	r3, sl
    6402:	4a3d      	ldr	r2, [pc, #244]	; (64f8 <lfs_file_rawopencfg+0x2d8>)
    6404:	029b      	lsls	r3, r3, #10
    6406:	431a      	orrs	r2, r3
    6408:	9206      	str	r2, [sp, #24]
    640a:	4642      	mov	r2, r8
    640c:	9509      	str	r5, [sp, #36]	; 0x24
    640e:	4d36      	ldr	r5, [pc, #216]	; (64e8 <lfs_file_rawopencfg+0x2c8>)
    6410:	9207      	str	r2, [sp, #28]
    6412:	2280      	movs	r2, #128	; 0x80
    6414:	4318      	orrs	r0, r3
    6416:	432b      	orrs	r3, r5
    6418:	930a      	str	r3, [sp, #40]	; 0x28
    641a:	4643      	mov	r3, r8
    641c:	0352      	lsls	r2, r2, #13
    641e:	4310      	orrs	r0, r2
    6420:	9008      	str	r0, [sp, #32]
    6422:	930b      	str	r3, [sp, #44]	; 0x2c
    6424:	aa06      	add	r2, sp, #24
    6426:	2303      	movs	r3, #3
    6428:	4649      	mov	r1, r9
    642a:	0038      	movs	r0, r7
    642c:	f7fe fd82 	bl	4f34 <lfs_dir_commit>
    6430:	46ab      	mov	fp, r5
    6432:	2800      	cmp	r0, #0
    6434:	d100      	bne.n	6438 <lfs_file_rawopencfg+0x218>
    6436:	e732      	b.n	629e <lfs_file_rawopencfg+0x7e>
    6438:	2624      	movs	r6, #36	; 0x24
    643a:	6b23      	ldr	r3, [r4, #48]	; 0x30
    643c:	6aba      	ldr	r2, [r7, #40]	; 0x28
    643e:	6d21      	ldr	r1, [r4, #80]	; 0x50
    6440:	4276      	negs	r6, r6
    6442:	e795      	b.n	6370 <lfs_file_rawopencfg+0x150>
    6444:	261c      	movs	r6, #28
    6446:	6aba      	ldr	r2, [r7, #40]	; 0x28
    6448:	4276      	negs	r6, r6
    644a:	e791      	b.n	6370 <lfs_file_rawopencfg+0x150>
    644c:	2280      	movs	r2, #128	; 0x80
    644e:	6b20      	ldr	r0, [r4, #48]	; 0x30
    6450:	0352      	lsls	r2, r2, #13
    6452:	4302      	orrs	r2, r0
    6454:	6322      	str	r2, [r4, #48]	; 0x30
    6456:	2200      	movs	r2, #0
    6458:	465b      	mov	r3, fp
    645a:	2102      	movs	r1, #2
    645c:	6462      	str	r2, [r4, #68]	; 0x44
    645e:	6eba      	ldr	r2, [r7, #104]	; 0x68
    6460:	059b      	lsls	r3, r3, #22
    6462:	6a92      	ldr	r2, [r2, #40]	; 0x28
    6464:	4249      	negs	r1, r1
    6466:	0d9b      	lsrs	r3, r3, #22
    6468:	62a1      	str	r1, [r4, #40]	; 0x28
    646a:	62e3      	str	r3, [r4, #44]	; 0x2c
    646c:	6421      	str	r1, [r4, #64]	; 0x40
    646e:	64a2      	str	r2, [r4, #72]	; 0x48
    6470:	d100      	bne.n	6474 <lfs_file_rawopencfg+0x254>
    6472:	e76f      	b.n	6354 <lfs_file_rawopencfg+0x134>
    6474:	88a3      	ldrh	r3, [r4, #4]
    6476:	4921      	ldr	r1, [pc, #132]	; (64fc <lfs_file_rawopencfg+0x2dc>)
    6478:	029b      	lsls	r3, r3, #10
    647a:	428a      	cmp	r2, r1
    647c:	d900      	bls.n	6480 <lfs_file_rawopencfg+0x260>
    647e:	000a      	movs	r2, r1
    6480:	4313      	orrs	r3, r2
    6482:	2280      	movs	r2, #128	; 0x80
    6484:	0592      	lsls	r2, r2, #22
    6486:	431a      	orrs	r2, r3
    6488:	059b      	lsls	r3, r3, #22
    648a:	0d9b      	lsrs	r3, r3, #22
    648c:	9300      	str	r3, [sp, #0]
    648e:	4649      	mov	r1, r9
    6490:	6ce3      	ldr	r3, [r4, #76]	; 0x4c
    6492:	0038      	movs	r0, r7
    6494:	f7fb f9e2 	bl	185c <lfs_dir_getslice.constprop.39>
    6498:	1e06      	subs	r6, r0, #0
    649a:	db00      	blt.n	649e <lfs_file_rawopencfg+0x27e>
    649c:	e75a      	b.n	6354 <lfs_file_rawopencfg+0x134>
    649e:	6b23      	ldr	r3, [r4, #48]	; 0x30
    64a0:	6aba      	ldr	r2, [r7, #40]	; 0x28
    64a2:	6d21      	ldr	r1, [r4, #80]	; 0x50
    64a4:	e764      	b.n	6370 <lfs_file_rawopencfg+0x150>
    64a6:	4b16      	ldr	r3, [pc, #88]	; (6500 <lfs_file_rawopencfg+0x2e0>)
    64a8:	4649      	mov	r1, r9
    64aa:	431a      	orrs	r2, r3
    64ac:	2308      	movs	r3, #8
    64ae:	9300      	str	r3, [sp, #0]
    64b0:	0023      	movs	r3, r4
    64b2:	0038      	movs	r0, r7
    64b4:	3328      	adds	r3, #40	; 0x28
    64b6:	f7fb f9d1 	bl	185c <lfs_dir_getslice.constprop.39>
    64ba:	4683      	mov	fp, r0
    64bc:	2800      	cmp	r0, #0
    64be:	db00      	blt.n	64c2 <lfs_file_rawopencfg+0x2a2>
    64c0:	e6ed      	b.n	629e <lfs_file_rawopencfg+0x7e>
    64c2:	6b23      	ldr	r3, [r4, #48]	; 0x30
    64c4:	6aba      	ldr	r2, [r7, #40]	; 0x28
    64c6:	6d21      	ldr	r1, [r4, #80]	; 0x50
    64c8:	0006      	movs	r6, r0
    64ca:	e751      	b.n	6370 <lfs_file_rawopencfg+0x150>
    64cc:	0028      	movs	r0, r5
    64ce:	f7ff fffe 	bl	0 <malloc>
    64d2:	64e0      	str	r0, [r4, #76]	; 0x4c
    64d4:	2800      	cmp	r0, #0
    64d6:	d000      	beq.n	64da <lfs_file_rawopencfg+0x2ba>
    64d8:	e72f      	b.n	633a <lfs_file_rawopencfg+0x11a>
    64da:	260c      	movs	r6, #12
    64dc:	6b23      	ldr	r3, [r4, #48]	; 0x30
    64de:	6aba      	ldr	r2, [r7, #40]	; 0x28
    64e0:	6d21      	ldr	r1, [r4, #80]	; 0x50
    64e2:	4276      	negs	r6, r6
    64e4:	e744      	b.n	6370 <lfs_file_rawopencfg+0x150>
    64e6:	46c0      	nop			; (mov r8, r8)
    64e8:	20100000 	.word	0x20100000
    64ec:	7ffffc00 	.word	0x7ffffc00
    64f0:	00000201 	.word	0x00000201
    64f4:	000003ff 	.word	0x000003ff
    64f8:	40100000 	.word	0x40100000
    64fc:	000003fe 	.word	0x000003fe
    6500:	20000008 	.word	0x20000008

00006504 <lfs_format>:
    6504:	b530      	push	{r4, r5, lr}
    6506:	b09b      	sub	sp, #108	; 0x6c
    6508:	0004      	movs	r4, r0
    650a:	f7f9 fdc7 	bl	9c <lfs_init>
    650e:	1e05      	subs	r5, r0, #0
    6510:	d002      	beq.n	6518 <lfs_format+0x14>
    6512:	0028      	movs	r0, r5
    6514:	b01b      	add	sp, #108	; 0x6c
    6516:	bd30      	pop	{r4, r5, pc}
    6518:	6ea3      	ldr	r3, [r4, #104]	; 0x68
    651a:	2100      	movs	r1, #0
    651c:	6ada      	ldr	r2, [r3, #44]	; 0x2c
    651e:	6e60      	ldr	r0, [r4, #100]	; 0x64
    6520:	f7ff fffe 	bl	0 <memset>
    6524:	6ea3      	ldr	r3, [r4, #104]	; 0x68
    6526:	6565      	str	r5, [r4, #84]	; 0x54
    6528:	6a1a      	ldr	r2, [r3, #32]
    652a:	6adb      	ldr	r3, [r3, #44]	; 0x2c
    652c:	00db      	lsls	r3, r3, #3
    652e:	4293      	cmp	r3, r2
    6530:	d900      	bls.n	6534 <lfs_format+0x30>
    6532:	0013      	movs	r3, r2
    6534:	65a3      	str	r3, [r4, #88]	; 0x58
    6536:	2300      	movs	r3, #0
    6538:	6622      	str	r2, [r4, #96]	; 0x60
    653a:	65e3      	str	r3, [r4, #92]	; 0x5c
    653c:	a912      	add	r1, sp, #72	; 0x48
    653e:	0020      	movs	r0, r4
    6540:	f7fc f8d0 	bl	26e4 <lfs_dir_alloc.part.26>
    6544:	1e05      	subs	r5, r0, #0
    6546:	d120      	bne.n	658a <lfs_format+0x86>
    6548:	2280      	movs	r2, #128	; 0x80
    654a:	0292      	lsls	r2, r2, #10
    654c:	9206      	str	r2, [sp, #24]
    654e:	6ea2      	ldr	r2, [r4, #104]	; 0x68
    6550:	ab06      	add	r3, sp, #24
    6552:	69d1      	ldr	r1, [r2, #28]
    6554:	6a12      	ldr	r2, [r2, #32]
    6556:	9107      	str	r1, [sp, #28]
    6558:	9208      	str	r2, [sp, #32]
    655a:	6ee2      	ldr	r2, [r4, #108]	; 0x6c
    655c:	900d      	str	r0, [sp, #52]	; 0x34
    655e:	9209      	str	r2, [sp, #36]	; 0x24
    6560:	6f22      	ldr	r2, [r4, #112]	; 0x70
    6562:	9311      	str	r3, [sp, #68]	; 0x44
    6564:	920a      	str	r2, [sp, #40]	; 0x28
    6566:	6f62      	ldr	r2, [r4, #116]	; 0x74
    6568:	2303      	movs	r3, #3
    656a:	920b      	str	r2, [sp, #44]	; 0x2c
    656c:	4a21      	ldr	r2, [pc, #132]	; (65f4 <lfs_format+0xf0>)
    656e:	a912      	add	r1, sp, #72	; 0x48
    6570:	920c      	str	r2, [sp, #48]	; 0x30
    6572:	4a21      	ldr	r2, [pc, #132]	; (65f8 <lfs_format+0xf4>)
    6574:	0020      	movs	r0, r4
    6576:	920e      	str	r2, [sp, #56]	; 0x38
    6578:	4a20      	ldr	r2, [pc, #128]	; (65fc <lfs_format+0xf8>)
    657a:	920f      	str	r2, [sp, #60]	; 0x3c
    657c:	4a20      	ldr	r2, [pc, #128]	; (6600 <lfs_format+0xfc>)
    657e:	9210      	str	r2, [sp, #64]	; 0x40
    6580:	aa0c      	add	r2, sp, #48	; 0x30
    6582:	f7fe fcd7 	bl	4f34 <lfs_dir_commit>
    6586:	1e05      	subs	r5, r0, #0
    6588:	d00d      	beq.n	65a6 <lfs_format+0xa2>
    658a:	6ea3      	ldr	r3, [r4, #104]	; 0x68
    658c:	6b1a      	ldr	r2, [r3, #48]	; 0x30
    658e:	2a00      	cmp	r2, #0
    6590:	d02b      	beq.n	65ea <lfs_format+0xe6>
    6592:	6b5a      	ldr	r2, [r3, #52]	; 0x34
    6594:	2a00      	cmp	r2, #0
    6596:	d023      	beq.n	65e0 <lfs_format+0xdc>
    6598:	6b9b      	ldr	r3, [r3, #56]	; 0x38
    659a:	2b00      	cmp	r3, #0
    659c:	d1b9      	bne.n	6512 <lfs_format+0xe>
    659e:	6e60      	ldr	r0, [r4, #100]	; 0x64
    65a0:	f7ff fffe 	bl	0 <free>
    65a4:	e7b5      	b.n	6512 <lfs_format+0xe>
    65a6:	225e      	movs	r2, #94	; 0x5e
    65a8:	466b      	mov	r3, sp
    65aa:	189b      	adds	r3, r3, r2
    65ac:	7018      	strb	r0, [r3, #0]
    65ae:	2200      	movs	r2, #0
    65b0:	2300      	movs	r3, #0
    65b2:	a912      	add	r1, sp, #72	; 0x48
    65b4:	0020      	movs	r0, r4
    65b6:	f7fe fcbd 	bl	4f34 <lfs_dir_commit>
    65ba:	1e05      	subs	r5, r0, #0
    65bc:	d1e5      	bne.n	658a <lfs_format+0x86>
    65be:	2200      	movs	r2, #0
    65c0:	2301      	movs	r3, #1
    65c2:	9204      	str	r2, [sp, #16]
    65c4:	9305      	str	r3, [sp, #20]
    65c6:	2301      	movs	r3, #1
    65c8:	425b      	negs	r3, r3
    65ca:	9003      	str	r0, [sp, #12]
    65cc:	9002      	str	r0, [sp, #8]
    65ce:	9001      	str	r0, [sp, #4]
    65d0:	9300      	str	r3, [sp, #0]
    65d2:	aa04      	add	r2, sp, #16
    65d4:	a912      	add	r1, sp, #72	; 0x48
    65d6:	0020      	movs	r0, r4
    65d8:	f7fa fc46 	bl	e68 <lfs_dir_fetchmatch>
    65dc:	0005      	movs	r5, r0
    65de:	e7d4      	b.n	658a <lfs_format+0x86>
    65e0:	69e0      	ldr	r0, [r4, #28]
    65e2:	f7ff fffe 	bl	0 <free>
    65e6:	6ea3      	ldr	r3, [r4, #104]	; 0x68
    65e8:	e7d6      	b.n	6598 <lfs_format+0x94>
    65ea:	68e0      	ldr	r0, [r4, #12]
    65ec:	f7ff fffe 	bl	0 <free>
    65f0:	6ea3      	ldr	r3, [r4, #104]	; 0x68
    65f2:	e7ce      	b.n	6592 <lfs_format+0x8e>
    65f4:	40100000 	.word	0x40100000
    65f8:	0ff00008 	.word	0x0ff00008
    65fc:	0000025c 	.word	0x0000025c
    6600:	20100018 	.word	0x20100018

00006604 <lfs_mount>:
    6604:	b5f0      	push	{r4, r5, r6, r7, lr}
    6606:	46de      	mov	lr, fp
    6608:	4657      	mov	r7, sl
    660a:	464e      	mov	r6, r9
    660c:	4645      	mov	r5, r8
    660e:	b5e0      	push	{r5, r6, r7, lr}
    6610:	b097      	sub	sp, #92	; 0x5c
    6612:	0004      	movs	r4, r0
    6614:	f7f9 fd42 	bl	9c <lfs_init>
    6618:	2800      	cmp	r0, #0
    661a:	d000      	beq.n	661e <lfs_mount+0x1a>
    661c:	e09f      	b.n	675e <lfs_mount+0x15a>
    661e:	221c      	movs	r2, #28
    6620:	2100      	movs	r1, #0
    6622:	a80e      	add	r0, sp, #56	; 0x38
    6624:	f7ff fffe 	bl	0 <memset>
    6628:	2301      	movs	r3, #1
    662a:	9315      	str	r3, [sp, #84]	; 0x54
    662c:	6ea3      	ldr	r3, [r4, #104]	; 0x68
    662e:	6a1a      	ldr	r2, [r3, #32]
    6630:	0852      	lsrs	r2, r2, #1
    6632:	d100      	bne.n	6636 <lfs_mount+0x32>
    6634:	e0cb      	b.n	67ce <lfs_mount+0x1ca>
    6636:	2300      	movs	r3, #0
    6638:	4698      	mov	r8, r3
    663a:	4b85      	ldr	r3, [pc, #532]	; (6850 <lfs_mount+0x24c>)
    663c:	2700      	movs	r7, #0
    663e:	469b      	mov	fp, r3
    6640:	4b84      	ldr	r3, [pc, #528]	; (6854 <lfs_mount+0x250>)
    6642:	469a      	mov	sl, r3
    6644:	2308      	movs	r3, #8
    6646:	4699      	mov	r9, r3
    6648:	e019      	b.n	667e <lfs_mount+0x7a>
    664a:	6b23      	ldr	r3, [r4, #48]	; 0x30
    664c:	9a08      	ldr	r2, [sp, #32]
    664e:	4053      	eors	r3, r2
    6650:	6323      	str	r3, [r4, #48]	; 0x30
    6652:	9a09      	ldr	r2, [sp, #36]	; 0x24
    6654:	6b63      	ldr	r3, [r4, #52]	; 0x34
    6656:	4053      	eors	r3, r2
    6658:	6363      	str	r3, [r4, #52]	; 0x34
    665a:	9a0a      	ldr	r2, [sp, #40]	; 0x28
    665c:	6ba3      	ldr	r3, [r4, #56]	; 0x38
    665e:	4053      	eors	r3, r2
    6660:	63a3      	str	r3, [r4, #56]	; 0x38
    6662:	9b14      	ldr	r3, [sp, #80]	; 0x50
    6664:	3301      	adds	r3, #1
    6666:	d100      	bne.n	666a <lfs_mount+0x66>
    6668:	e08e      	b.n	6788 <lfs_mount+0x184>
    666a:	9b15      	ldr	r3, [sp, #84]	; 0x54
    666c:	3301      	adds	r3, #1
    666e:	d100      	bne.n	6672 <lfs_mount+0x6e>
    6670:	e08a      	b.n	6788 <lfs_mount+0x184>
    6672:	6ea3      	ldr	r3, [r4, #104]	; 0x68
    6674:	6a1a      	ldr	r2, [r3, #32]
    6676:	0852      	lsrs	r2, r2, #1
    6678:	4542      	cmp	r2, r8
    667a:	d800      	bhi.n	667e <lfs_mount+0x7a>
    667c:	e0a7      	b.n	67ce <lfs_mount+0x1ca>
    667e:	2301      	movs	r3, #1
    6680:	469c      	mov	ip, r3
    6682:	465b      	mov	r3, fp
    6684:	9306      	str	r3, [sp, #24]
    6686:	464b      	mov	r3, r9
    6688:	9307      	str	r3, [sp, #28]
    668a:	ab05      	add	r3, sp, #20
    668c:	9303      	str	r3, [sp, #12]
    668e:	4653      	mov	r3, sl
    6690:	9302      	str	r3, [sp, #8]
    6692:	4b71      	ldr	r3, [pc, #452]	; (6858 <lfs_mount+0x254>)
    6694:	9701      	str	r7, [sp, #4]
    6696:	9300      	str	r3, [sp, #0]
    6698:	aa14      	add	r2, sp, #80	; 0x50
    669a:	4b70      	ldr	r3, [pc, #448]	; (685c <lfs_mount+0x258>)
    669c:	a90e      	add	r1, sp, #56	; 0x38
    669e:	0020      	movs	r0, r4
    66a0:	44e0      	add	r8, ip
    66a2:	9405      	str	r4, [sp, #20]
    66a4:	f7fa fbe0 	bl	e68 <lfs_dir_fetchmatch>
    66a8:	1e05      	subs	r5, r0, #0
    66aa:	db46      	blt.n	673a <lfs_mount+0x136>
    66ac:	ae08      	add	r6, sp, #32
    66ae:	2800      	cmp	r0, #0
    66b0:	d035      	beq.n	671e <lfs_mount+0x11a>
    66b2:	0585      	lsls	r5, r0, #22
    66b4:	15ad      	asrs	r5, r5, #22
    66b6:	ae08      	add	r6, sp, #32
    66b8:	1c6b      	adds	r3, r5, #1
    66ba:	d030      	beq.n	671e <lfs_mount+0x11a>
    66bc:	9b0e      	ldr	r3, [sp, #56]	; 0x38
    66be:	9601      	str	r6, [sp, #4]
    66c0:	6223      	str	r3, [r4, #32]
    66c2:	9b0f      	ldr	r3, [sp, #60]	; 0x3c
    66c4:	9700      	str	r7, [sp, #0]
    66c6:	6263      	str	r3, [r4, #36]	; 0x24
    66c8:	2318      	movs	r3, #24
    66ca:	4a64      	ldr	r2, [pc, #400]	; (685c <lfs_mount+0x258>)
    66cc:	9302      	str	r3, [sp, #8]
    66ce:	a90e      	add	r1, sp, #56	; 0x38
    66d0:	4b63      	ldr	r3, [pc, #396]	; (6860 <lfs_mount+0x25c>)
    66d2:	0020      	movs	r0, r4
    66d4:	f7fa fefc 	bl	14d0 <lfs_dir_getslice>
    66d8:	1e05      	subs	r5, r0, #0
    66da:	db2e      	blt.n	673a <lfs_mount+0x136>
    66dc:	6832      	ldr	r2, [r6, #0]
    66de:	0c13      	lsrs	r3, r2, #16
    66e0:	b291      	uxth	r1, r2
    66e2:	2b02      	cmp	r3, #2
    66e4:	d000      	beq.n	66e8 <lfs_mount+0xe4>
    66e6:	e075      	b.n	67d4 <lfs_mount+0x1d0>
    66e8:	2900      	cmp	r1, #0
    66ea:	d000      	beq.n	66ee <lfs_mount+0xea>
    66ec:	e072      	b.n	67d4 <lfs_mount+0x1d0>
    66ee:	68f3      	ldr	r3, [r6, #12]
    66f0:	2b00      	cmp	r3, #0
    66f2:	d004      	beq.n	66fe <lfs_mount+0xfa>
    66f4:	6ee2      	ldr	r2, [r4, #108]	; 0x6c
    66f6:	4293      	cmp	r3, r2
    66f8:	d900      	bls.n	66fc <lfs_mount+0xf8>
    66fa:	e087      	b.n	680c <lfs_mount+0x208>
    66fc:	66e3      	str	r3, [r4, #108]	; 0x6c
    66fe:	6933      	ldr	r3, [r6, #16]
    6700:	2b00      	cmp	r3, #0
    6702:	d004      	beq.n	670e <lfs_mount+0x10a>
    6704:	6f22      	ldr	r2, [r4, #112]	; 0x70
    6706:	4293      	cmp	r3, r2
    6708:	d900      	bls.n	670c <lfs_mount+0x108>
    670a:	e08a      	b.n	6822 <lfs_mount+0x21e>
    670c:	6723      	str	r3, [r4, #112]	; 0x70
    670e:	6973      	ldr	r3, [r6, #20]
    6710:	2b00      	cmp	r3, #0
    6712:	d004      	beq.n	671e <lfs_mount+0x11a>
    6714:	6f62      	ldr	r2, [r4, #116]	; 0x74
    6716:	4293      	cmp	r3, r2
    6718:	d900      	bls.n	671c <lfs_mount+0x118>
    671a:	e08d      	b.n	6838 <lfs_mount+0x234>
    671c:	6763      	str	r3, [r4, #116]	; 0x74
    671e:	230c      	movs	r3, #12
    6720:	9601      	str	r6, [sp, #4]
    6722:	9302      	str	r3, [sp, #8]
    6724:	9700      	str	r7, [sp, #0]
    6726:	4b4f      	ldr	r3, [pc, #316]	; (6864 <lfs_mount+0x260>)
    6728:	4a4f      	ldr	r2, [pc, #316]	; (6868 <lfs_mount+0x264>)
    672a:	a90e      	add	r1, sp, #56	; 0x38
    672c:	0020      	movs	r0, r4
    672e:	f7fa fecf 	bl	14d0 <lfs_dir_getslice>
    6732:	1e05      	subs	r5, r0, #0
    6734:	da89      	bge.n	664a <lfs_mount+0x46>
    6736:	1c83      	adds	r3, r0, #2
    6738:	d093      	beq.n	6662 <lfs_mount+0x5e>
    673a:	6ea3      	ldr	r3, [r4, #104]	; 0x68
    673c:	6b1a      	ldr	r2, [r3, #48]	; 0x30
    673e:	2a00      	cmp	r2, #0
    6740:	d013      	beq.n	676a <lfs_mount+0x166>
    6742:	6b5a      	ldr	r2, [r3, #52]	; 0x34
    6744:	2a00      	cmp	r2, #0
    6746:	d017      	beq.n	6778 <lfs_mount+0x174>
    6748:	6b9b      	ldr	r3, [r3, #56]	; 0x38
    674a:	2b00      	cmp	r3, #0
    674c:	d009      	beq.n	6762 <lfs_mount+0x15e>
    674e:	0028      	movs	r0, r5
    6750:	b017      	add	sp, #92	; 0x5c
    6752:	bc3c      	pop	{r2, r3, r4, r5}
    6754:	4690      	mov	r8, r2
    6756:	4699      	mov	r9, r3
    6758:	46a2      	mov	sl, r4
    675a:	46ab      	mov	fp, r5
    675c:	bdf0      	pop	{r4, r5, r6, r7, pc}
    675e:	0005      	movs	r5, r0
    6760:	e7f5      	b.n	674e <lfs_mount+0x14a>
    6762:	6e60      	ldr	r0, [r4, #100]	; 0x64
    6764:	f7ff fffe 	bl	0 <free>
    6768:	e7f1      	b.n	674e <lfs_mount+0x14a>
    676a:	68e0      	ldr	r0, [r4, #12]
    676c:	f7ff fffe 	bl	0 <free>
    6770:	6ea3      	ldr	r3, [r4, #104]	; 0x68
    6772:	6b5a      	ldr	r2, [r3, #52]	; 0x34
    6774:	2a00      	cmp	r2, #0
    6776:	d1e7      	bne.n	6748 <lfs_mount+0x144>
    6778:	69e0      	ldr	r0, [r4, #28]
    677a:	f7ff fffe 	bl	0 <free>
    677e:	6ea3      	ldr	r3, [r4, #104]	; 0x68
    6780:	6b9b      	ldr	r3, [r3, #56]	; 0x38
    6782:	2b00      	cmp	r3, #0
    6784:	d1e3      	bne.n	674e <lfs_mount+0x14a>
    6786:	e7ec      	b.n	6762 <lfs_mount+0x15e>
    6788:	6a23      	ldr	r3, [r4, #32]
    678a:	3301      	adds	r3, #1
    678c:	d02f      	beq.n	67ee <lfs_mount+0x1ea>
    678e:	6a63      	ldr	r3, [r4, #36]	; 0x24
    6790:	3301      	adds	r3, #1
    6792:	d02c      	beq.n	67ee <lfs_mount+0x1ea>
    6794:	6b23      	ldr	r3, [r4, #48]	; 0x30
    6796:	6b61      	ldr	r1, [r4, #52]	; 0x34
    6798:	001a      	movs	r2, r3
    679a:	6ba0      	ldr	r0, [r4, #56]	; 0x38
    679c:	430a      	orrs	r2, r1
    679e:	4302      	orrs	r2, r0
    67a0:	d129      	bne.n	67f6 <lfs_mount+0x1f2>
    67a2:	0fd3      	lsrs	r3, r2, #31
    67a4:	189a      	adds	r2, r3, r2
    67a6:	6322      	str	r2, [r4, #48]	; 0x30
    67a8:	0023      	movs	r3, r4
    67aa:	0022      	movs	r2, r4
    67ac:	333c      	adds	r3, #60	; 0x3c
    67ae:	3230      	adds	r2, #48	; 0x30
    67b0:	ca23      	ldmia	r2!, {r0, r1, r5}
    67b2:	c323      	stmia	r3!, {r0, r1, r5}
    67b4:	6ea3      	ldr	r3, [r4, #104]	; 0x68
    67b6:	6ae0      	ldr	r0, [r4, #44]	; 0x2c
    67b8:	6a1d      	ldr	r5, [r3, #32]
    67ba:	0029      	movs	r1, r5
    67bc:	f7ff fffe 	bl	0 <__aeabi_uidivmod>
    67c0:	2300      	movs	r3, #0
    67c2:	6625      	str	r5, [r4, #96]	; 0x60
    67c4:	6561      	str	r1, [r4, #84]	; 0x54
    67c6:	65a3      	str	r3, [r4, #88]	; 0x58
    67c8:	65e3      	str	r3, [r4, #92]	; 0x5c
    67ca:	2500      	movs	r5, #0
    67cc:	e7bf      	b.n	674e <lfs_mount+0x14a>
    67ce:	2554      	movs	r5, #84	; 0x54
    67d0:	426d      	negs	r5, r5
    67d2:	e7b3      	b.n	673c <lfs_mount+0x138>
    67d4:	2516      	movs	r5, #22
    67d6:	4925      	ldr	r1, [pc, #148]	; (686c <lfs_mount+0x268>)
    67d8:	0412      	lsls	r2, r2, #16
    67da:	0c12      	lsrs	r2, r2, #16
    67dc:	9101      	str	r1, [sp, #4]
    67de:	9200      	str	r2, [sp, #0]
    67e0:	4923      	ldr	r1, [pc, #140]	; (6870 <lfs_mount+0x26c>)
    67e2:	4a24      	ldr	r2, [pc, #144]	; (6874 <lfs_mount+0x270>)
    67e4:	4824      	ldr	r0, [pc, #144]	; (6878 <lfs_mount+0x274>)
    67e6:	f7ff fffe 	bl	0 <printf>
    67ea:	426d      	negs	r5, r5
    67ec:	e7a5      	b.n	673a <lfs_mount+0x136>
    67ee:	2516      	movs	r5, #22
    67f0:	6ea3      	ldr	r3, [r4, #104]	; 0x68
    67f2:	426d      	negs	r5, r5
    67f4:	e7a2      	b.n	673c <lfs_mount+0x138>
    67f6:	4a1d      	ldr	r2, [pc, #116]	; (686c <lfs_mount+0x268>)
    67f8:	9001      	str	r0, [sp, #4]
    67fa:	9202      	str	r2, [sp, #8]
    67fc:	9100      	str	r1, [sp, #0]
    67fe:	4a1f      	ldr	r2, [pc, #124]	; (687c <lfs_mount+0x278>)
    6800:	491b      	ldr	r1, [pc, #108]	; (6870 <lfs_mount+0x26c>)
    6802:	481f      	ldr	r0, [pc, #124]	; (6880 <lfs_mount+0x27c>)
    6804:	f7ff fffe 	bl	0 <printf>
    6808:	6b22      	ldr	r2, [r4, #48]	; 0x30
    680a:	e7ca      	b.n	67a2 <lfs_mount+0x19e>
    680c:	2516      	movs	r5, #22
    680e:	4917      	ldr	r1, [pc, #92]	; (686c <lfs_mount+0x268>)
    6810:	9200      	str	r2, [sp, #0]
    6812:	9101      	str	r1, [sp, #4]
    6814:	4a1b      	ldr	r2, [pc, #108]	; (6884 <lfs_mount+0x280>)
    6816:	4916      	ldr	r1, [pc, #88]	; (6870 <lfs_mount+0x26c>)
    6818:	481b      	ldr	r0, [pc, #108]	; (6888 <lfs_mount+0x284>)
    681a:	f7ff fffe 	bl	0 <printf>
    681e:	426d      	negs	r5, r5
    6820:	e78b      	b.n	673a <lfs_mount+0x136>
    6822:	2516      	movs	r5, #22
    6824:	4911      	ldr	r1, [pc, #68]	; (686c <lfs_mount+0x268>)
    6826:	9200      	str	r2, [sp, #0]
    6828:	9101      	str	r1, [sp, #4]
    682a:	4a18      	ldr	r2, [pc, #96]	; (688c <lfs_mount+0x288>)
    682c:	4910      	ldr	r1, [pc, #64]	; (6870 <lfs_mount+0x26c>)
    682e:	4818      	ldr	r0, [pc, #96]	; (6890 <lfs_mount+0x28c>)
    6830:	f7ff fffe 	bl	0 <printf>
    6834:	426d      	negs	r5, r5
    6836:	e780      	b.n	673a <lfs_mount+0x136>
    6838:	2516      	movs	r5, #22
    683a:	490c      	ldr	r1, [pc, #48]	; (686c <lfs_mount+0x268>)
    683c:	9200      	str	r2, [sp, #0]
    683e:	9101      	str	r1, [sp, #4]
    6840:	4a14      	ldr	r2, [pc, #80]	; (6894 <lfs_mount+0x290>)
    6842:	490b      	ldr	r1, [pc, #44]	; (6870 <lfs_mount+0x26c>)
    6844:	4814      	ldr	r0, [pc, #80]	; (6898 <lfs_mount+0x294>)
    6846:	f7ff fffe 	bl	0 <printf>
    684a:	426d      	negs	r5, r5
    684c:	e775      	b.n	673a <lfs_mount+0x136>
    684e:	46c0      	nop			; (mov r8, r8)
    6850:	0000025c 	.word	0x0000025c
    6854:	00000000 	.word	0x00000000
    6858:	0ff00008 	.word	0x0ff00008
    685c:	7ffffc00 	.word	0x7ffffc00
    6860:	20100018 	.word	0x20100018
    6864:	7ff0000c 	.word	0x7ff0000c
    6868:	7ff00000 	.word	0x7ff00000
    686c:	00000074 	.word	0x00000074
    6870:	00000000 	.word	0x00000000
    6874:	00000e8e 	.word	0x00000e8e
    6878:	00000268 	.word	0x00000268
    687c:	00000ec8 	.word	0x00000ec8
    6880:	00000330 	.word	0x00000330
    6884:	00000e97 	.word	0x00000e97
    6888:	00000294 	.word	0x00000294
    688c:	00000ea2 	.word	0x00000ea2
    6890:	000002c8 	.word	0x000002c8
    6894:	00000ead 	.word	0x00000ead
    6898:	000002fc 	.word	0x000002fc

0000689c <lfs_unmount>:
    689c:	6e83      	ldr	r3, [r0, #104]	; 0x68
    689e:	b510      	push	{r4, lr}
    68a0:	6b1a      	ldr	r2, [r3, #48]	; 0x30
    68a2:	0004      	movs	r4, r0
    68a4:	2a00      	cmp	r2, #0
    68a6:	d007      	beq.n	68b8 <lfs_unmount+0x1c>
    68a8:	6b5a      	ldr	r2, [r3, #52]	; 0x34
    68aa:	2a00      	cmp	r2, #0
    68ac:	d00b      	beq.n	68c6 <lfs_unmount+0x2a>
    68ae:	6b9b      	ldr	r3, [r3, #56]	; 0x38
    68b0:	2b00      	cmp	r3, #0
    68b2:	d00f      	beq.n	68d4 <lfs_unmount+0x38>
    68b4:	2000      	movs	r0, #0
    68b6:	bd10      	pop	{r4, pc}
    68b8:	68c0      	ldr	r0, [r0, #12]
    68ba:	f7ff fffe 	bl	0 <free>
    68be:	6ea3      	ldr	r3, [r4, #104]	; 0x68
    68c0:	6b5a      	ldr	r2, [r3, #52]	; 0x34
    68c2:	2a00      	cmp	r2, #0
    68c4:	d1f3      	bne.n	68ae <lfs_unmount+0x12>
    68c6:	69e0      	ldr	r0, [r4, #28]
    68c8:	f7ff fffe 	bl	0 <free>
    68cc:	6ea3      	ldr	r3, [r4, #104]	; 0x68
    68ce:	6b9b      	ldr	r3, [r3, #56]	; 0x38
    68d0:	2b00      	cmp	r3, #0
    68d2:	d1ef      	bne.n	68b4 <lfs_unmount+0x18>
    68d4:	6e60      	ldr	r0, [r4, #100]	; 0x64
    68d6:	f7ff fffe 	bl	0 <free>
    68da:	e7eb      	b.n	68b4 <lfs_unmount+0x18>

000068dc <lfs_remove>:
    68dc:	b530      	push	{r4, r5, lr}
    68de:	b09d      	sub	sp, #116	; 0x74
    68e0:	0004      	movs	r4, r0
    68e2:	9107      	str	r1, [sp, #28]
    68e4:	f7ff fb42 	bl	5f6c <lfs_fs_forceconsistency>
    68e8:	2800      	cmp	r0, #0
    68ea:	d001      	beq.n	68f0 <lfs_remove+0x14>
    68ec:	b01d      	add	sp, #116	; 0x74
    68ee:	bd30      	pop	{r4, r5, pc}
    68f0:	2300      	movs	r3, #0
    68f2:	aa07      	add	r2, sp, #28
    68f4:	a90a      	add	r1, sp, #40	; 0x28
    68f6:	0020      	movs	r0, r4
    68f8:	f7fb f946 	bl	1b88 <lfs_dir_find>
    68fc:	2800      	cmp	r0, #0
    68fe:	dbf5      	blt.n	68ec <lfs_remove+0x10>
    6900:	4a3b      	ldr	r2, [pc, #236]	; (69f0 <lfs_remove+0x114>)
    6902:	0303      	lsls	r3, r0, #12
    6904:	0d9b      	lsrs	r3, r3, #22
    6906:	4293      	cmp	r3, r2
    6908:	d06c      	beq.n	69e4 <lfs_remove+0x108>
    690a:	6aa2      	ldr	r2, [r4, #40]	; 0x28
    690c:	029d      	lsls	r5, r3, #10
    690e:	9212      	str	r2, [sp, #72]	; 0x48
    6910:	0d00      	lsrs	r0, r0, #20
    6912:	2802      	cmp	r0, #2
    6914:	d00d      	beq.n	6932 <lfs_remove+0x56>
    6916:	4b37      	ldr	r3, [pc, #220]	; (69f4 <lfs_remove+0x118>)
    6918:	aa08      	add	r2, sp, #32
    691a:	432b      	orrs	r3, r5
    691c:	9308      	str	r3, [sp, #32]
    691e:	2300      	movs	r3, #0
    6920:	a90a      	add	r1, sp, #40	; 0x28
    6922:	9309      	str	r3, [sp, #36]	; 0x24
    6924:	0020      	movs	r0, r4
    6926:	3301      	adds	r3, #1
    6928:	f7fe fb04 	bl	4f34 <lfs_dir_commit>
    692c:	9b12      	ldr	r3, [sp, #72]	; 0x48
    692e:	62a3      	str	r3, [r4, #40]	; 0x28
    6930:	e7dc      	b.n	68ec <lfs_remove+0x10>
    6932:	2308      	movs	r3, #8
    6934:	4a30      	ldr	r2, [pc, #192]	; (69f8 <lfs_remove+0x11c>)
    6936:	9300      	str	r3, [sp, #0]
    6938:	432a      	orrs	r2, r5
    693a:	ab08      	add	r3, sp, #32
    693c:	a90a      	add	r1, sp, #40	; 0x28
    693e:	0020      	movs	r0, r4
    6940:	f7fa ff8c 	bl	185c <lfs_dir_getslice.constprop.39>
    6944:	2800      	cmp	r0, #0
    6946:	dbd1      	blt.n	68ec <lfs_remove+0x10>
    6948:	2301      	movs	r3, #1
    694a:	2200      	movs	r2, #0
    694c:	425b      	negs	r3, r3
    694e:	9203      	str	r2, [sp, #12]
    6950:	9202      	str	r2, [sp, #8]
    6952:	9201      	str	r2, [sp, #4]
    6954:	9300      	str	r3, [sp, #0]
    6956:	aa08      	add	r2, sp, #32
    6958:	a914      	add	r1, sp, #80	; 0x50
    695a:	0020      	movs	r0, r4
    695c:	f7fa fa84 	bl	e68 <lfs_dir_fetchmatch>
    6960:	2800      	cmp	r0, #0
    6962:	d1c3      	bne.n	68ec <lfs_remove+0x10>
    6964:	9b19      	ldr	r3, [sp, #100]	; 0x64
    6966:	9305      	str	r3, [sp, #20]
    6968:	9a05      	ldr	r2, [sp, #20]
    696a:	4b24      	ldr	r3, [pc, #144]	; (69fc <lfs_remove+0x120>)
    696c:	421a      	tst	r2, r3
    696e:	d13c      	bne.n	69ea <lfs_remove+0x10e>
    6970:	6b23      	ldr	r3, [r4, #48]	; 0x30
    6972:	9009      	str	r0, [sp, #36]	; 0x24
    6974:	3301      	adds	r3, #1
    6976:	059a      	lsls	r2, r3, #22
    6978:	1e51      	subs	r1, r2, #1
    697a:	418a      	sbcs	r2, r1
    697c:	005b      	lsls	r3, r3, #1
    697e:	07d2      	lsls	r2, r2, #31
    6980:	085b      	lsrs	r3, r3, #1
    6982:	4313      	orrs	r3, r2
    6984:	2246      	movs	r2, #70	; 0x46
    6986:	6323      	str	r3, [r4, #48]	; 0x30
    6988:	ab02      	add	r3, sp, #8
    698a:	189b      	adds	r3, r3, r2
    698c:	7018      	strb	r0, [r3, #0]
    698e:	3a02      	subs	r2, #2
    6990:	ab02      	add	r3, sp, #8
    6992:	189b      	adds	r3, r3, r2
    6994:	8018      	strh	r0, [r3, #0]
    6996:	ab12      	add	r3, sp, #72	; 0x48
    6998:	62a3      	str	r3, [r4, #40]	; 0x28
    699a:	4b16      	ldr	r3, [pc, #88]	; (69f4 <lfs_remove+0x118>)
    699c:	aa08      	add	r2, sp, #32
    699e:	432b      	orrs	r3, r5
    69a0:	9308      	str	r3, [sp, #32]
    69a2:	a90a      	add	r1, sp, #40	; 0x28
    69a4:	2301      	movs	r3, #1
    69a6:	0020      	movs	r0, r4
    69a8:	f7fe fac4 	bl	4f34 <lfs_dir_commit>
    69ac:	2800      	cmp	r0, #0
    69ae:	d1bd      	bne.n	692c <lfs_remove+0x50>
    69b0:	9b12      	ldr	r3, [sp, #72]	; 0x48
    69b2:	0020      	movs	r0, r4
    69b4:	62a3      	str	r3, [r4, #40]	; 0x28
    69b6:	6b23      	ldr	r3, [r4, #48]	; 0x30
    69b8:	3b01      	subs	r3, #1
    69ba:	059a      	lsls	r2, r3, #22
    69bc:	1e51      	subs	r1, r2, #1
    69be:	418a      	sbcs	r2, r1
    69c0:	005b      	lsls	r3, r3, #1
    69c2:	07d2      	lsls	r2, r2, #31
    69c4:	085b      	lsrs	r3, r3, #1
    69c6:	4313      	orrs	r3, r2
    69c8:	6323      	str	r3, [r4, #48]	; 0x30
    69ca:	aa0a      	add	r2, sp, #40	; 0x28
    69cc:	a914      	add	r1, sp, #80	; 0x50
    69ce:	f7fa fd23 	bl	1418 <lfs_fs_pred>
    69d2:	2800      	cmp	r0, #0
    69d4:	d000      	beq.n	69d8 <lfs_remove+0xfc>
    69d6:	e789      	b.n	68ec <lfs_remove+0x10>
    69d8:	aa14      	add	r2, sp, #80	; 0x50
    69da:	a90a      	add	r1, sp, #40	; 0x28
    69dc:	0020      	movs	r0, r4
    69de:	f7ff fa8b 	bl	5ef8 <lfs_dir_drop>
    69e2:	e783      	b.n	68ec <lfs_remove+0x10>
    69e4:	2016      	movs	r0, #22
    69e6:	4240      	negs	r0, r0
    69e8:	e780      	b.n	68ec <lfs_remove+0x10>
    69ea:	2027      	movs	r0, #39	; 0x27
    69ec:	4240      	negs	r0, r0
    69ee:	e77d      	b.n	68ec <lfs_remove+0x10>
    69f0:	000003ff 	.word	0x000003ff
    69f4:	4ff00000 	.word	0x4ff00000
    69f8:	20000008 	.word	0x20000008
    69fc:	ff00ffff 	.word	0xff00ffff

00006a00 <lfs_rename>:
    6a00:	b5f0      	push	{r4, r5, r6, r7, lr}
    6a02:	46de      	mov	lr, fp
    6a04:	4645      	mov	r5, r8
    6a06:	4657      	mov	r7, sl
    6a08:	464e      	mov	r6, r9
    6a0a:	b5e0      	push	{r5, r6, r7, lr}
    6a0c:	b0b3      	sub	sp, #204	; 0xcc
    6a0e:	0004      	movs	r4, r0
    6a10:	910a      	str	r1, [sp, #40]	; 0x28
    6a12:	920b      	str	r2, [sp, #44]	; 0x2c
    6a14:	f7ff faaa 	bl	5f6c <lfs_fs_forceconsistency>
    6a18:	1e05      	subs	r5, r0, #0
    6a1a:	d007      	beq.n	6a2c <lfs_rename+0x2c>
    6a1c:	0028      	movs	r0, r5
    6a1e:	b033      	add	sp, #204	; 0xcc
    6a20:	bc3c      	pop	{r2, r3, r4, r5}
    6a22:	4690      	mov	r8, r2
    6a24:	4699      	mov	r9, r3
    6a26:	46a2      	mov	sl, r4
    6a28:	46ab      	mov	fp, r5
    6a2a:	bdf0      	pop	{r4, r5, r6, r7, pc}
    6a2c:	2300      	movs	r3, #0
    6a2e:	aa0a      	add	r2, sp, #40	; 0x28
    6a30:	a90e      	add	r1, sp, #56	; 0x38
    6a32:	0020      	movs	r0, r4
    6a34:	f7fb f8a8 	bl	1b88 <lfs_dir_find>
    6a38:	1e07      	subs	r7, r0, #0
    6a3a:	da00      	bge.n	6a3e <lfs_rename+0x3e>
    6a3c:	e0f0      	b.n	6c20 <lfs_rename+0x220>
    6a3e:	4bd3      	ldr	r3, [pc, #844]	; (6d8c <lfs_rename+0x38c>)
    6a40:	0306      	lsls	r6, r0, #12
    6a42:	0db6      	lsrs	r6, r6, #22
    6a44:	4699      	mov	r9, r3
    6a46:	429e      	cmp	r6, r3
    6a48:	d100      	bne.n	6a4c <lfs_rename+0x4c>
    6a4a:	e0e6      	b.n	6c1a <lfs_rename+0x21a>
    6a4c:	aa04      	add	r2, sp, #16
    6a4e:	4694      	mov	ip, r2
    6a50:	2316      	movs	r3, #22
    6a52:	aa0b      	add	r2, sp, #44	; 0x2c
    6a54:	4463      	add	r3, ip
    6a56:	a916      	add	r1, sp, #88	; 0x58
    6a58:	0020      	movs	r0, r4
    6a5a:	f7fb f895 	bl	1b88 <lfs_dir_find>
    6a5e:	4680      	mov	r8, r0
    6a60:	1e03      	subs	r3, r0, #0
    6a62:	da00      	bge.n	6a66 <lfs_rename+0x66>
    6a64:	e0a1      	b.n	6baa <lfs_rename+0x1aa>
    6a66:	0303      	lsls	r3, r0, #12
    6a68:	0d9b      	lsrs	r3, r3, #22
    6a6a:	454b      	cmp	r3, r9
    6a6c:	d100      	bne.n	6a70 <lfs_rename+0x70>
    6a6e:	e0d4      	b.n	6c1a <lfs_rename+0x21a>
    6a70:	9b0e      	ldr	r3, [sp, #56]	; 0x38
    6a72:	6aa2      	ldr	r2, [r4, #40]	; 0x28
    6a74:	469b      	mov	fp, r3
    6a76:	9b16      	ldr	r3, [sp, #88]	; 0x58
    6a78:	459b      	cmp	fp, r3
    6a7a:	d100      	bne.n	6a7e <lfs_rename+0x7e>
    6a7c:	e0b5      	b.n	6bea <lfs_rename+0x1ea>
    6a7e:	990f      	ldr	r1, [sp, #60]	; 0x3c
    6a80:	0008      	movs	r0, r1
    6a82:	9107      	str	r1, [sp, #28]
    6a84:	9917      	ldr	r1, [sp, #92]	; 0x5c
    6a86:	4281      	cmp	r1, r0
    6a88:	d100      	bne.n	6a8c <lfs_rename+0x8c>
    6a8a:	e0ae      	b.n	6bea <lfs_rename+0x1ea>
    6a8c:	4559      	cmp	r1, fp
    6a8e:	d100      	bne.n	6a92 <lfs_rename+0x92>
    6a90:	e0c8      	b.n	6c24 <lfs_rename+0x224>
    6a92:	9907      	ldr	r1, [sp, #28]
    6a94:	1acb      	subs	r3, r1, r3
    6a96:	0019      	movs	r1, r3
    6a98:	1e4b      	subs	r3, r1, #1
    6a9a:	4199      	sbcs	r1, r3
    6a9c:	468a      	mov	sl, r1
    6a9e:	4643      	mov	r3, r8
    6aa0:	921e      	str	r2, [sp, #120]	; 0x78
    6aa2:	3302      	adds	r3, #2
    6aa4:	d100      	bne.n	6aa8 <lfs_rename+0xa8>
    6aa6:	e10b      	b.n	6cc0 <lfs_rename+0x2c0>
    6aa8:	4643      	mov	r3, r8
    6aaa:	0d3a      	lsrs	r2, r7, #20
    6aac:	005b      	lsls	r3, r3, #1
    6aae:	0d5b      	lsrs	r3, r3, #21
    6ab0:	9205      	str	r2, [sp, #20]
    6ab2:	4293      	cmp	r3, r2
    6ab4:	d000      	beq.n	6ab8 <lfs_rename+0xb8>
    6ab6:	e165      	b.n	6d84 <lfs_rename+0x384>
    6ab8:	4651      	mov	r1, sl
    6aba:	aa04      	add	r2, sp, #16
    6abc:	8ad2      	ldrh	r2, [r2, #22]
    6abe:	2900      	cmp	r1, #0
    6ac0:	d100      	bne.n	6ac4 <lfs_rename+0xc4>
    6ac2:	e09c      	b.n	6bfe <lfs_rename+0x1fe>
    6ac4:	0292      	lsls	r2, r2, #10
    6ac6:	4691      	mov	r9, r2
    6ac8:	2b02      	cmp	r3, #2
    6aca:	d100      	bne.n	6ace <lfs_rename+0xce>
    6acc:	e112      	b.n	6cf4 <lfs_rename+0x2f4>
    6ace:	9b0b      	ldr	r3, [sp, #44]	; 0x2c
    6ad0:	9606      	str	r6, [sp, #24]
    6ad2:	9304      	str	r3, [sp, #16]
    6ad4:	af28      	add	r7, sp, #160	; 0xa0
    6ad6:	4aae      	ldr	r2, [pc, #696]	; (6d90 <lfs_rename+0x390>)
    6ad8:	6b23      	ldr	r3, [r4, #48]	; 0x30
    6ada:	401a      	ands	r2, r3
    6adc:	465b      	mov	r3, fp
    6ade:	6363      	str	r3, [r4, #52]	; 0x34
    6ae0:	02b3      	lsls	r3, r6, #10
    6ae2:	431a      	orrs	r2, r3
    6ae4:	4bab      	ldr	r3, [pc, #684]	; (6d94 <lfs_rename+0x394>)
    6ae6:	4313      	orrs	r3, r2
    6ae8:	6323      	str	r3, [r4, #48]	; 0x30
    6aea:	9b07      	ldr	r3, [sp, #28]
    6aec:	63a3      	str	r3, [r4, #56]	; 0x38
    6aee:	2301      	movs	r3, #1
    6af0:	469a      	mov	sl, r3
    6af2:	4643      	mov	r3, r8
    6af4:	3302      	adds	r3, #2
    6af6:	d100      	bne.n	6afa <lfs_rename+0xfa>
    6af8:	e0e0      	b.n	6cbc <lfs_rename+0x2bc>
    6afa:	464a      	mov	r2, r9
    6afc:	4ba5      	ldr	r3, [pc, #660]	; (6d94 <lfs_rename+0x394>)
    6afe:	4313      	orrs	r3, r2
    6b00:	9328      	str	r3, [sp, #160]	; 0xa0
    6b02:	2300      	movs	r3, #0
    6b04:	464a      	mov	r2, r9
    6b06:	469b      	mov	fp, r3
    6b08:	607b      	str	r3, [r7, #4]
    6b0a:	4ba3      	ldr	r3, [pc, #652]	; (6d98 <lfs_rename+0x398>)
    6b0c:	9804      	ldr	r0, [sp, #16]
    6b0e:	4313      	orrs	r3, r2
    6b10:	60bb      	str	r3, [r7, #8]
    6b12:	465b      	mov	r3, fp
    6b14:	60fb      	str	r3, [r7, #12]
    6b16:	f7ff fffe 	bl	0 <strlen>
    6b1a:	464a      	mov	r2, r9
    6b1c:	9b05      	ldr	r3, [sp, #20]
    6b1e:	4310      	orrs	r0, r2
    6b20:	051b      	lsls	r3, r3, #20
    6b22:	4303      	orrs	r3, r0
    6b24:	613b      	str	r3, [r7, #16]
    6b26:	9b04      	ldr	r3, [sp, #16]
    6b28:	9a06      	ldr	r2, [sp, #24]
    6b2a:	617b      	str	r3, [r7, #20]
    6b2c:	464b      	mov	r3, r9
    6b2e:	4313      	orrs	r3, r2
    6b30:	4a9a      	ldr	r2, [pc, #616]	; (6d9c <lfs_rename+0x39c>)
    6b32:	431a      	orrs	r2, r3
    6b34:	ab0e      	add	r3, sp, #56	; 0x38
    6b36:	61fb      	str	r3, [r7, #28]
    6b38:	4653      	mov	r3, sl
    6b3a:	61ba      	str	r2, [r7, #24]
    6b3c:	2b00      	cmp	r3, #0
    6b3e:	d000      	beq.n	6b42 <lfs_rename+0x142>
    6b40:	e089      	b.n	6c56 <lfs_rename+0x256>
    6b42:	4b94      	ldr	r3, [pc, #592]	; (6d94 <lfs_rename+0x394>)
    6b44:	02b6      	lsls	r6, r6, #10
    6b46:	431e      	orrs	r6, r3
    6b48:	4653      	mov	r3, sl
    6b4a:	623e      	str	r6, [r7, #32]
    6b4c:	627b      	str	r3, [r7, #36]	; 0x24
    6b4e:	003a      	movs	r2, r7
    6b50:	2305      	movs	r3, #5
    6b52:	a916      	add	r1, sp, #88	; 0x58
    6b54:	0020      	movs	r0, r4
    6b56:	f7fe f9ed 	bl	4f34 <lfs_dir_commit>
    6b5a:	2800      	cmp	r0, #0
    6b5c:	d000      	beq.n	6b60 <lfs_rename+0x160>
    6b5e:	e0a0      	b.n	6ca2 <lfs_rename+0x2a2>
    6b60:	9b1e      	ldr	r3, [sp, #120]	; 0x78
    6b62:	62a3      	str	r3, [r4, #40]	; 0x28
    6b64:	4643      	mov	r3, r8
    6b66:	3302      	adds	r3, #2
    6b68:	d100      	bne.n	6b6c <lfs_rename+0x16c>
    6b6a:	e757      	b.n	6a1c <lfs_rename+0x1c>
    6b6c:	4643      	mov	r3, r8
    6b6e:	005b      	lsls	r3, r3, #1
    6b70:	0d5b      	lsrs	r3, r3, #21
    6b72:	2b02      	cmp	r3, #2
    6b74:	d000      	beq.n	6b78 <lfs_rename+0x178>
    6b76:	e751      	b.n	6a1c <lfs_rename+0x1c>
    6b78:	6b23      	ldr	r3, [r4, #48]	; 0x30
    6b7a:	0020      	movs	r0, r4
    6b7c:	3b01      	subs	r3, #1
    6b7e:	059a      	lsls	r2, r3, #22
    6b80:	1e51      	subs	r1, r2, #1
    6b82:	418a      	sbcs	r2, r1
    6b84:	005b      	lsls	r3, r3, #1
    6b86:	07d2      	lsls	r2, r2, #31
    6b88:	085b      	lsrs	r3, r3, #1
    6b8a:	4313      	orrs	r3, r2
    6b8c:	6323      	str	r3, [r4, #48]	; 0x30
    6b8e:	aa16      	add	r2, sp, #88	; 0x58
    6b90:	a920      	add	r1, sp, #128	; 0x80
    6b92:	f7fa fc41 	bl	1418 <lfs_fs_pred>
    6b96:	1e05      	subs	r5, r0, #0
    6b98:	d000      	beq.n	6b9c <lfs_rename+0x19c>
    6b9a:	e73f      	b.n	6a1c <lfs_rename+0x1c>
    6b9c:	aa20      	add	r2, sp, #128	; 0x80
    6b9e:	a916      	add	r1, sp, #88	; 0x58
    6ba0:	0020      	movs	r0, r4
    6ba2:	f7ff f9a9 	bl	5ef8 <lfs_dir_drop>
    6ba6:	0005      	movs	r5, r0
    6ba8:	e738      	b.n	6a1c <lfs_rename+0x1c>
    6baa:	3302      	adds	r3, #2
    6bac:	d17d      	bne.n	6caa <lfs_rename+0x2aa>
    6bae:	ab04      	add	r3, sp, #16
    6bb0:	8adb      	ldrh	r3, [r3, #22]
    6bb2:	9305      	str	r3, [sp, #20]
    6bb4:	454b      	cmp	r3, r9
    6bb6:	d078      	beq.n	6caa <lfs_rename+0x2aa>
    6bb8:	9b0e      	ldr	r3, [sp, #56]	; 0x38
    6bba:	6aa2      	ldr	r2, [r4, #40]	; 0x28
    6bbc:	469b      	mov	fp, r3
    6bbe:	9b16      	ldr	r3, [sp, #88]	; 0x58
    6bc0:	459b      	cmp	fp, r3
    6bc2:	d032      	beq.n	6c2a <lfs_rename+0x22a>
    6bc4:	990f      	ldr	r1, [sp, #60]	; 0x3c
    6bc6:	0008      	movs	r0, r1
    6bc8:	9107      	str	r1, [sp, #28]
    6bca:	9917      	ldr	r1, [sp, #92]	; 0x5c
    6bcc:	4281      	cmp	r1, r0
    6bce:	d000      	beq.n	6bd2 <lfs_rename+0x1d2>
    6bd0:	e75c      	b.n	6a8c <lfs_rename+0x8c>
    6bd2:	9b0b      	ldr	r3, [sp, #44]	; 0x2c
    6bd4:	921e      	str	r2, [sp, #120]	; 0x78
    6bd6:	0018      	movs	r0, r3
    6bd8:	9304      	str	r3, [sp, #16]
    6bda:	f7ff fffe 	bl	0 <strlen>
    6bde:	6ee3      	ldr	r3, [r4, #108]	; 0x6c
    6be0:	4283      	cmp	r3, r0
    6be2:	d22b      	bcs.n	6c3c <lfs_rename+0x23c>
    6be4:	2524      	movs	r5, #36	; 0x24
    6be6:	426d      	negs	r5, r5
    6be8:	e718      	b.n	6a1c <lfs_rename+0x1c>
    6bea:	4643      	mov	r3, r8
    6bec:	921e      	str	r2, [sp, #120]	; 0x78
    6bee:	0d3a      	lsrs	r2, r7, #20
    6bf0:	0d1b      	lsrs	r3, r3, #20
    6bf2:	9205      	str	r2, [sp, #20]
    6bf4:	429a      	cmp	r2, r3
    6bf6:	d000      	beq.n	6bfa <lfs_rename+0x1fa>
    6bf8:	e0c4      	b.n	6d84 <lfs_rename+0x384>
    6bfa:	aa04      	add	r2, sp, #16
    6bfc:	8ad2      	ldrh	r2, [r2, #22]
    6bfe:	4296      	cmp	r6, r2
    6c00:	d100      	bne.n	6c04 <lfs_rename+0x204>
    6c02:	e70b      	b.n	6a1c <lfs_rename+0x1c>
    6c04:	0292      	lsls	r2, r2, #10
    6c06:	4691      	mov	r9, r2
    6c08:	2b02      	cmp	r3, #2
    6c0a:	d071      	beq.n	6cf0 <lfs_rename+0x2f0>
    6c0c:	9b0b      	ldr	r3, [sp, #44]	; 0x2c
    6c0e:	9606      	str	r6, [sp, #24]
    6c10:	9304      	str	r3, [sp, #16]
    6c12:	2300      	movs	r3, #0
    6c14:	af28      	add	r7, sp, #160	; 0xa0
    6c16:	469a      	mov	sl, r3
    6c18:	e76f      	b.n	6afa <lfs_rename+0xfa>
    6c1a:	2516      	movs	r5, #22
    6c1c:	426d      	negs	r5, r5
    6c1e:	e6fd      	b.n	6a1c <lfs_rename+0x1c>
    6c20:	0005      	movs	r5, r0
    6c22:	e6fb      	b.n	6a1c <lfs_rename+0x1c>
    6c24:	2300      	movs	r3, #0
    6c26:	469a      	mov	sl, r3
    6c28:	e739      	b.n	6a9e <lfs_rename+0x9e>
    6c2a:	9b0b      	ldr	r3, [sp, #44]	; 0x2c
    6c2c:	921e      	str	r2, [sp, #120]	; 0x78
    6c2e:	0018      	movs	r0, r3
    6c30:	9304      	str	r3, [sp, #16]
    6c32:	f7ff fffe 	bl	0 <strlen>
    6c36:	6ee3      	ldr	r3, [r4, #108]	; 0x6c
    6c38:	4298      	cmp	r0, r3
    6c3a:	d8d3      	bhi.n	6be4 <lfs_rename+0x1e4>
    6c3c:	9b05      	ldr	r3, [sp, #20]
    6c3e:	9606      	str	r6, [sp, #24]
    6c40:	029b      	lsls	r3, r3, #10
    6c42:	4699      	mov	r9, r3
    6c44:	9b05      	ldr	r3, [sp, #20]
    6c46:	429e      	cmp	r6, r3
    6c48:	d231      	bcs.n	6cae <lfs_rename+0x2ae>
    6c4a:	2300      	movs	r3, #0
    6c4c:	0d3a      	lsrs	r2, r7, #20
    6c4e:	469a      	mov	sl, r3
    6c50:	9205      	str	r2, [sp, #20]
    6c52:	af28      	add	r7, sp, #160	; 0xa0
    6c54:	e754      	b.n	6b00 <lfs_rename+0x100>
    6c56:	465b      	mov	r3, fp
    6c58:	003a      	movs	r2, r7
    6c5a:	623b      	str	r3, [r7, #32]
    6c5c:	627b      	str	r3, [r7, #36]	; 0x24
    6c5e:	a916      	add	r1, sp, #88	; 0x58
    6c60:	2305      	movs	r3, #5
    6c62:	0020      	movs	r0, r4
    6c64:	f7fe f966 	bl	4f34 <lfs_dir_commit>
    6c68:	2800      	cmp	r0, #0
    6c6a:	d11a      	bne.n	6ca2 <lfs_rename+0x2a2>
    6c6c:	22e0      	movs	r2, #224	; 0xe0
    6c6e:	6b23      	ldr	r3, [r4, #48]	; 0x30
    6c70:	00d2      	lsls	r2, r2, #3
    6c72:	0d19      	lsrs	r1, r3, #20
    6c74:	4211      	tst	r1, r2
    6c76:	d100      	bne.n	6c7a <lfs_rename+0x27a>
    6c78:	e772      	b.n	6b60 <lfs_rename+0x160>
    6c7a:	4a45      	ldr	r2, [pc, #276]	; (6d90 <lfs_rename+0x390>)
    6c7c:	6360      	str	r0, [r4, #52]	; 0x34
    6c7e:	4013      	ands	r3, r2
    6c80:	6323      	str	r3, [r4, #48]	; 0x30
    6c82:	9b06      	ldr	r3, [sp, #24]
    6c84:	63a0      	str	r0, [r4, #56]	; 0x38
    6c86:	029a      	lsls	r2, r3, #10
    6c88:	4b42      	ldr	r3, [pc, #264]	; (6d94 <lfs_rename+0x394>)
    6c8a:	900d      	str	r0, [sp, #52]	; 0x34
    6c8c:	4313      	orrs	r3, r2
    6c8e:	930c      	str	r3, [sp, #48]	; 0x30
    6c90:	aa0c      	add	r2, sp, #48	; 0x30
    6c92:	2301      	movs	r3, #1
    6c94:	a90e      	add	r1, sp, #56	; 0x38
    6c96:	0020      	movs	r0, r4
    6c98:	f7fe f94c 	bl	4f34 <lfs_dir_commit>
    6c9c:	2800      	cmp	r0, #0
    6c9e:	d100      	bne.n	6ca2 <lfs_rename+0x2a2>
    6ca0:	e75e      	b.n	6b60 <lfs_rename+0x160>
    6ca2:	9b1e      	ldr	r3, [sp, #120]	; 0x78
    6ca4:	62a3      	str	r3, [r4, #40]	; 0x28
    6ca6:	0005      	movs	r5, r0
    6ca8:	e6b8      	b.n	6a1c <lfs_rename+0x1c>
    6caa:	4645      	mov	r5, r8
    6cac:	e6b6      	b.n	6a1c <lfs_rename+0x1c>
    6cae:	2300      	movs	r3, #0
    6cb0:	3601      	adds	r6, #1
    6cb2:	469a      	mov	sl, r3
    6cb4:	0d3b      	lsrs	r3, r7, #20
    6cb6:	b2b6      	uxth	r6, r6
    6cb8:	9305      	str	r3, [sp, #20]
    6cba:	af28      	add	r7, sp, #160	; 0xa0
    6cbc:	2300      	movs	r3, #0
    6cbe:	e71f      	b.n	6b00 <lfs_rename+0x100>
    6cc0:	9b0b      	ldr	r3, [sp, #44]	; 0x2c
    6cc2:	0018      	movs	r0, r3
    6cc4:	9304      	str	r3, [sp, #16]
    6cc6:	f7ff fffe 	bl	0 <strlen>
    6cca:	6ee3      	ldr	r3, [r4, #108]	; 0x6c
    6ccc:	4298      	cmp	r0, r3
    6cce:	d889      	bhi.n	6be4 <lfs_rename+0x1e4>
    6cd0:	ab04      	add	r3, sp, #16
    6cd2:	8adb      	ldrh	r3, [r3, #22]
    6cd4:	9606      	str	r6, [sp, #24]
    6cd6:	9305      	str	r3, [sp, #20]
    6cd8:	029b      	lsls	r3, r3, #10
    6cda:	4699      	mov	r9, r3
    6cdc:	4653      	mov	r3, sl
    6cde:	2b00      	cmp	r3, #0
    6ce0:	d0b0      	beq.n	6c44 <lfs_rename+0x244>
    6ce2:	6b23      	ldr	r3, [r4, #48]	; 0x30
    6ce4:	4a2a      	ldr	r2, [pc, #168]	; (6d90 <lfs_rename+0x390>)
    6ce6:	401a      	ands	r2, r3
    6ce8:	0d3b      	lsrs	r3, r7, #20
    6cea:	9305      	str	r3, [sp, #20]
    6cec:	af28      	add	r7, sp, #160	; 0xa0
    6cee:	e6f5      	b.n	6adc <lfs_rename+0xdc>
    6cf0:	2300      	movs	r3, #0
    6cf2:	469a      	mov	sl, r3
    6cf4:	464b      	mov	r3, r9
    6cf6:	4a2a      	ldr	r2, [pc, #168]	; (6da0 <lfs_rename+0x3a0>)
    6cf8:	af28      	add	r7, sp, #160	; 0xa0
    6cfa:	431a      	orrs	r2, r3
    6cfc:	2308      	movs	r3, #8
    6cfe:	a916      	add	r1, sp, #88	; 0x58
    6d00:	9300      	str	r3, [sp, #0]
    6d02:	0020      	movs	r0, r4
    6d04:	003b      	movs	r3, r7
    6d06:	f7fa fda9 	bl	185c <lfs_dir_getslice.constprop.39>
    6d0a:	2800      	cmp	r0, #0
    6d0c:	dbcb      	blt.n	6ca6 <lfs_rename+0x2a6>
    6d0e:	2301      	movs	r3, #1
    6d10:	2200      	movs	r2, #0
    6d12:	425b      	negs	r3, r3
    6d14:	9203      	str	r2, [sp, #12]
    6d16:	9202      	str	r2, [sp, #8]
    6d18:	9201      	str	r2, [sp, #4]
    6d1a:	9300      	str	r3, [sp, #0]
    6d1c:	003a      	movs	r2, r7
    6d1e:	a920      	add	r1, sp, #128	; 0x80
    6d20:	0020      	movs	r0, r4
    6d22:	f7fa f8a1 	bl	e68 <lfs_dir_fetchmatch>
    6d26:	2800      	cmp	r0, #0
    6d28:	d1bd      	bne.n	6ca6 <lfs_rename+0x2a6>
    6d2a:	9b25      	ldr	r3, [sp, #148]	; 0x94
    6d2c:	4a1d      	ldr	r2, [pc, #116]	; (6da4 <lfs_rename+0x3a4>)
    6d2e:	9304      	str	r3, [sp, #16]
    6d30:	401a      	ands	r2, r3
    6d32:	d123      	bne.n	6d7c <lfs_rename+0x37c>
    6d34:	6b23      	ldr	r3, [r4, #48]	; 0x30
    6d36:	9606      	str	r6, [sp, #24]
    6d38:	3301      	adds	r3, #1
    6d3a:	0599      	lsls	r1, r3, #22
    6d3c:	1e48      	subs	r0, r1, #1
    6d3e:	4181      	sbcs	r1, r0
    6d40:	005b      	lsls	r3, r3, #1
    6d42:	07c9      	lsls	r1, r1, #31
    6d44:	085b      	lsrs	r3, r3, #1
    6d46:	430b      	orrs	r3, r1
    6d48:	216e      	movs	r1, #110	; 0x6e
    6d4a:	6323      	str	r3, [r4, #48]	; 0x30
    6d4c:	ab04      	add	r3, sp, #16
    6d4e:	185b      	adds	r3, r3, r1
    6d50:	701a      	strb	r2, [r3, #0]
    6d52:	3902      	subs	r1, #2
    6d54:	ab04      	add	r3, sp, #16
    6d56:	185b      	adds	r3, r3, r1
    6d58:	801a      	strh	r2, [r3, #0]
    6d5a:	ab1e      	add	r3, sp, #120	; 0x78
    6d5c:	62a3      	str	r3, [r4, #40]	; 0x28
    6d5e:	ab04      	add	r3, sp, #16
    6d60:	8ada      	ldrh	r2, [r3, #22]
    6d62:	0293      	lsls	r3, r2, #10
    6d64:	4699      	mov	r9, r3
    6d66:	9b0b      	ldr	r3, [sp, #44]	; 0x2c
    6d68:	9304      	str	r3, [sp, #16]
    6d6a:	4653      	mov	r3, sl
    6d6c:	2b00      	cmp	r3, #0
    6d6e:	d100      	bne.n	6d72 <lfs_rename+0x372>
    6d70:	e6c3      	b.n	6afa <lfs_rename+0xfa>
    6d72:	9b0e      	ldr	r3, [sp, #56]	; 0x38
    6d74:	469b      	mov	fp, r3
    6d76:	9b0f      	ldr	r3, [sp, #60]	; 0x3c
    6d78:	9307      	str	r3, [sp, #28]
    6d7a:	e6ac      	b.n	6ad6 <lfs_rename+0xd6>
    6d7c:	2027      	movs	r0, #39	; 0x27
    6d7e:	4240      	negs	r0, r0
    6d80:	0005      	movs	r5, r0
    6d82:	e64b      	b.n	6a1c <lfs_rename+0x1c>
    6d84:	2515      	movs	r5, #21
    6d86:	426d      	negs	r5, r5
    6d88:	e648      	b.n	6a1c <lfs_rename+0x1c>
    6d8a:	46c0      	nop			; (mov r8, r8)
    6d8c:	000003ff 	.word	0x000003ff
    6d90:	800003ff 	.word	0x800003ff
    6d94:	4ff00000 	.word	0x4ff00000
    6d98:	40100000 	.word	0x40100000
    6d9c:	10100000 	.word	0x10100000
    6da0:	20000008 	.word	0x20000008
    6da4:	ff00ffff 	.word	0xff00ffff

00006da8 <lfs_stat>:
    6da8:	b570      	push	{r4, r5, r6, lr}
    6daa:	b090      	sub	sp, #64	; 0x40
    6dac:	0014      	movs	r4, r2
    6dae:	9105      	str	r1, [sp, #20]
    6db0:	2300      	movs	r3, #0
    6db2:	aa05      	add	r2, sp, #20
    6db4:	a908      	add	r1, sp, #32
    6db6:	0005      	movs	r5, r0
    6db8:	f7fa fee6 	bl	1b88 <lfs_dir_find>
    6dbc:	2800      	cmp	r0, #0
    6dbe:	db2c      	blt.n	6e1a <lfs_stat+0x72>
    6dc0:	0300      	lsls	r0, r0, #12
    6dc2:	0d86      	lsrs	r6, r0, #22
    6dc4:	0020      	movs	r0, r4
    6dc6:	4b1e      	ldr	r3, [pc, #120]	; (6e40 <lfs_stat+0x98>)
    6dc8:	3008      	adds	r0, #8
    6dca:	429e      	cmp	r6, r3
    6dcc:	d027      	beq.n	6e1e <lfs_stat+0x76>
    6dce:	2200      	movs	r2, #0
    6dd0:	6eeb      	ldr	r3, [r5, #108]	; 0x6c
    6dd2:	02b6      	lsls	r6, r6, #10
    6dd4:	3301      	adds	r3, #1
    6dd6:	4333      	orrs	r3, r6
    6dd8:	0599      	lsls	r1, r3, #22
    6dda:	0d89      	lsrs	r1, r1, #22
    6ddc:	9102      	str	r1, [sp, #8]
    6dde:	9001      	str	r0, [sp, #4]
    6de0:	9200      	str	r2, [sp, #0]
    6de2:	a908      	add	r1, sp, #32
    6de4:	4a17      	ldr	r2, [pc, #92]	; (6e44 <lfs_stat+0x9c>)
    6de6:	0028      	movs	r0, r5
    6de8:	f7fa fb72 	bl	14d0 <lfs_dir_getslice>
    6dec:	2800      	cmp	r0, #0
    6dee:	db14      	blt.n	6e1a <lfs_stat+0x72>
    6df0:	2308      	movs	r3, #8
    6df2:	4a15      	ldr	r2, [pc, #84]	; (6e48 <lfs_stat+0xa0>)
    6df4:	0d00      	lsrs	r0, r0, #20
    6df6:	7020      	strb	r0, [r4, #0]
    6df8:	9300      	str	r3, [sp, #0]
    6dfa:	4332      	orrs	r2, r6
    6dfc:	ab06      	add	r3, sp, #24
    6dfe:	a908      	add	r1, sp, #32
    6e00:	0028      	movs	r0, r5
    6e02:	f7fa fd2b 	bl	185c <lfs_dir_getslice.constprop.39>
    6e06:	2800      	cmp	r0, #0
    6e08:	db07      	blt.n	6e1a <lfs_stat+0x72>
    6e0a:	4a10      	ldr	r2, [pc, #64]	; (6e4c <lfs_stat+0xa4>)
    6e0c:	0d03      	lsrs	r3, r0, #20
    6e0e:	4293      	cmp	r3, r2
    6e10:	d00d      	beq.n	6e2e <lfs_stat+0x86>
    6e12:	4a0f      	ldr	r2, [pc, #60]	; (6e50 <lfs_stat+0xa8>)
    6e14:	4293      	cmp	r3, r2
    6e16:	d00e      	beq.n	6e36 <lfs_stat+0x8e>
    6e18:	2000      	movs	r0, #0
    6e1a:	b010      	add	sp, #64	; 0x40
    6e1c:	bd70      	pop	{r4, r5, r6, pc}
    6e1e:	2202      	movs	r2, #2
    6e20:	490c      	ldr	r1, [pc, #48]	; (6e54 <lfs_stat+0xac>)
    6e22:	f7ff fffe 	bl	0 <memcpy>
    6e26:	2302      	movs	r3, #2
    6e28:	2000      	movs	r0, #0
    6e2a:	7023      	strb	r3, [r4, #0]
    6e2c:	e7f5      	b.n	6e1a <lfs_stat+0x72>
    6e2e:	9b07      	ldr	r3, [sp, #28]
    6e30:	2000      	movs	r0, #0
    6e32:	6063      	str	r3, [r4, #4]
    6e34:	e7f1      	b.n	6e1a <lfs_stat+0x72>
    6e36:	0580      	lsls	r0, r0, #22
    6e38:	0d80      	lsrs	r0, r0, #22
    6e3a:	6060      	str	r0, [r4, #4]
    6e3c:	2000      	movs	r0, #0
    6e3e:	e7ec      	b.n	6e1a <lfs_stat+0x72>
    6e40:	000003ff 	.word	0x000003ff
    6e44:	780ffc00 	.word	0x780ffc00
    6e48:	20000008 	.word	0x20000008
    6e4c:	00000202 	.word	0x00000202
    6e50:	00000201 	.word	0x00000201
    6e54:	00000078 	.word	0x00000078

00006e58 <lfs_getattr>:
    6e58:	b570      	push	{r4, r5, r6, lr}
    6e5a:	b08e      	sub	sp, #56	; 0x38
    6e5c:	0014      	movs	r4, r2
    6e5e:	001e      	movs	r6, r3
    6e60:	9105      	str	r1, [sp, #20]
    6e62:	2300      	movs	r3, #0
    6e64:	aa05      	add	r2, sp, #20
    6e66:	a906      	add	r1, sp, #24
    6e68:	0005      	movs	r5, r0
    6e6a:	f7fa fe8d 	bl	1b88 <lfs_dir_find>
    6e6e:	2800      	cmp	r0, #0
    6e70:	db20      	blt.n	6eb4 <lfs_getattr+0x5c>
    6e72:	4b1c      	ldr	r3, [pc, #112]	; (6ee4 <lfs_getattr+0x8c>)
    6e74:	0300      	lsls	r0, r0, #12
    6e76:	0d80      	lsrs	r0, r0, #22
    6e78:	4298      	cmp	r0, r3
    6e7a:	d01d      	beq.n	6eb8 <lfs_getattr+0x60>
    6e7c:	0280      	lsls	r0, r0, #10
    6e7e:	23c0      	movs	r3, #192	; 0xc0
    6e80:	009b      	lsls	r3, r3, #2
    6e82:	18e3      	adds	r3, r4, r3
    6e84:	9a12      	ldr	r2, [sp, #72]	; 0x48
    6e86:	6f6c      	ldr	r4, [r5, #116]	; 0x74
    6e88:	051b      	lsls	r3, r3, #20
    6e8a:	4294      	cmp	r4, r2
    6e8c:	d900      	bls.n	6e90 <lfs_getattr+0x38>
    6e8e:	0014      	movs	r4, r2
    6e90:	4323      	orrs	r3, r4
    6e92:	4318      	orrs	r0, r3
    6e94:	0583      	lsls	r3, r0, #22
    6e96:	0d9b      	lsrs	r3, r3, #22
    6e98:	9302      	str	r3, [sp, #8]
    6e9a:	2300      	movs	r3, #0
    6e9c:	9601      	str	r6, [sp, #4]
    6e9e:	9300      	str	r3, [sp, #0]
    6ea0:	4a11      	ldr	r2, [pc, #68]	; (6ee8 <lfs_getattr+0x90>)
    6ea2:	0003      	movs	r3, r0
    6ea4:	a906      	add	r1, sp, #24
    6ea6:	0028      	movs	r0, r5
    6ea8:	f7fa fb12 	bl	14d0 <lfs_dir_getslice>
    6eac:	2800      	cmp	r0, #0
    6eae:	db13      	blt.n	6ed8 <lfs_getattr+0x80>
    6eb0:	0580      	lsls	r0, r0, #22
    6eb2:	0d80      	lsrs	r0, r0, #22
    6eb4:	b00e      	add	sp, #56	; 0x38
    6eb6:	bd70      	pop	{r4, r5, r6, pc}
    6eb8:	2200      	movs	r2, #0
    6eba:	2301      	movs	r3, #1
    6ebc:	9203      	str	r2, [sp, #12]
    6ebe:	9202      	str	r2, [sp, #8]
    6ec0:	9201      	str	r2, [sp, #4]
    6ec2:	002a      	movs	r2, r5
    6ec4:	425b      	negs	r3, r3
    6ec6:	9300      	str	r3, [sp, #0]
    6ec8:	3220      	adds	r2, #32
    6eca:	a906      	add	r1, sp, #24
    6ecc:	0028      	movs	r0, r5
    6ece:	f7f9 ffcb 	bl	e68 <lfs_dir_fetchmatch>
    6ed2:	2800      	cmp	r0, #0
    6ed4:	d0d3      	beq.n	6e7e <lfs_getattr+0x26>
    6ed6:	e7ed      	b.n	6eb4 <lfs_getattr+0x5c>
    6ed8:	1c83      	adds	r3, r0, #2
    6eda:	d1eb      	bne.n	6eb4 <lfs_getattr+0x5c>
    6edc:	203d      	movs	r0, #61	; 0x3d
    6ede:	4240      	negs	r0, r0
    6ee0:	e7e8      	b.n	6eb4 <lfs_getattr+0x5c>
    6ee2:	46c0      	nop			; (mov r8, r8)
    6ee4:	000003ff 	.word	0x000003ff
    6ee8:	7ffffc00 	.word	0x7ffffc00

00006eec <lfs_setattr>:
    6eec:	b570      	push	{r4, r5, r6, lr}
    6eee:	b090      	sub	sp, #64	; 0x40
    6ef0:	0014      	movs	r4, r2
    6ef2:	001e      	movs	r6, r3
    6ef4:	6f42      	ldr	r2, [r0, #116]	; 0x74
    6ef6:	9b14      	ldr	r3, [sp, #80]	; 0x50
    6ef8:	0005      	movs	r5, r0
    6efa:	4293      	cmp	r3, r2
    6efc:	d82f      	bhi.n	6f5e <lfs_setattr+0x72>
    6efe:	9105      	str	r1, [sp, #20]
    6f00:	2300      	movs	r3, #0
    6f02:	aa05      	add	r2, sp, #20
    6f04:	a908      	add	r1, sp, #32
    6f06:	f7fa fe3f 	bl	1b88 <lfs_dir_find>
    6f0a:	2800      	cmp	r0, #0
    6f0c:	db15      	blt.n	6f3a <lfs_setattr+0x4e>
    6f0e:	4b15      	ldr	r3, [pc, #84]	; (6f64 <lfs_setattr+0x78>)
    6f10:	0300      	lsls	r0, r0, #12
    6f12:	0d80      	lsrs	r0, r0, #22
    6f14:	4298      	cmp	r0, r3
    6f16:	d012      	beq.n	6f3e <lfs_setattr+0x52>
    6f18:	0280      	lsls	r0, r0, #10
    6f1a:	23c0      	movs	r3, #192	; 0xc0
    6f1c:	009b      	lsls	r3, r3, #2
    6f1e:	469c      	mov	ip, r3
    6f20:	9b14      	ldr	r3, [sp, #80]	; 0x50
    6f22:	4464      	add	r4, ip
    6f24:	0524      	lsls	r4, r4, #20
    6f26:	431c      	orrs	r4, r3
    6f28:	4320      	orrs	r0, r4
    6f2a:	9006      	str	r0, [sp, #24]
    6f2c:	2301      	movs	r3, #1
    6f2e:	aa06      	add	r2, sp, #24
    6f30:	a908      	add	r1, sp, #32
    6f32:	0028      	movs	r0, r5
    6f34:	9607      	str	r6, [sp, #28]
    6f36:	f7fd fffd 	bl	4f34 <lfs_dir_commit>
    6f3a:	b010      	add	sp, #64	; 0x40
    6f3c:	bd70      	pop	{r4, r5, r6, pc}
    6f3e:	2200      	movs	r2, #0
    6f40:	2301      	movs	r3, #1
    6f42:	9203      	str	r2, [sp, #12]
    6f44:	9202      	str	r2, [sp, #8]
    6f46:	9201      	str	r2, [sp, #4]
    6f48:	002a      	movs	r2, r5
    6f4a:	425b      	negs	r3, r3
    6f4c:	9300      	str	r3, [sp, #0]
    6f4e:	3220      	adds	r2, #32
    6f50:	a908      	add	r1, sp, #32
    6f52:	0028      	movs	r0, r5
    6f54:	f7f9 ff88 	bl	e68 <lfs_dir_fetchmatch>
    6f58:	2800      	cmp	r0, #0
    6f5a:	d0de      	beq.n	6f1a <lfs_setattr+0x2e>
    6f5c:	e7ed      	b.n	6f3a <lfs_setattr+0x4e>
    6f5e:	201c      	movs	r0, #28
    6f60:	4240      	negs	r0, r0
    6f62:	e7ea      	b.n	6f3a <lfs_setattr+0x4e>
    6f64:	000003ff 	.word	0x000003ff

00006f68 <lfs_removeattr>:
    6f68:	b530      	push	{r4, r5, lr}
    6f6a:	b091      	sub	sp, #68	; 0x44
    6f6c:	0014      	movs	r4, r2
    6f6e:	9105      	str	r1, [sp, #20]
    6f70:	2300      	movs	r3, #0
    6f72:	aa05      	add	r2, sp, #20
    6f74:	a908      	add	r1, sp, #32
    6f76:	0005      	movs	r5, r0
    6f78:	f7fa fe06 	bl	1b88 <lfs_dir_find>
    6f7c:	2800      	cmp	r0, #0
    6f7e:	db16      	blt.n	6fae <lfs_removeattr+0x46>
    6f80:	4b14      	ldr	r3, [pc, #80]	; (6fd4 <lfs_removeattr+0x6c>)
    6f82:	0300      	lsls	r0, r0, #12
    6f84:	0d80      	lsrs	r0, r0, #22
    6f86:	4298      	cmp	r0, r3
    6f88:	d013      	beq.n	6fb2 <lfs_removeattr+0x4a>
    6f8a:	0280      	lsls	r0, r0, #10
    6f8c:	23c0      	movs	r3, #192	; 0xc0
    6f8e:	009b      	lsls	r3, r3, #2
    6f90:	469c      	mov	ip, r3
    6f92:	2300      	movs	r3, #0
    6f94:	4464      	add	r4, ip
    6f96:	0524      	lsls	r4, r4, #20
    6f98:	4320      	orrs	r0, r4
    6f9a:	4c0e      	ldr	r4, [pc, #56]	; (6fd4 <lfs_removeattr+0x6c>)
    6f9c:	9307      	str	r3, [sp, #28]
    6f9e:	4320      	orrs	r0, r4
    6fa0:	9006      	str	r0, [sp, #24]
    6fa2:	3301      	adds	r3, #1
    6fa4:	aa06      	add	r2, sp, #24
    6fa6:	a908      	add	r1, sp, #32
    6fa8:	0028      	movs	r0, r5
    6faa:	f7fd ffc3 	bl	4f34 <lfs_dir_commit>
    6fae:	b011      	add	sp, #68	; 0x44
    6fb0:	bd30      	pop	{r4, r5, pc}
    6fb2:	2200      	movs	r2, #0
    6fb4:	2301      	movs	r3, #1
    6fb6:	9203      	str	r2, [sp, #12]
    6fb8:	9202      	str	r2, [sp, #8]
    6fba:	9201      	str	r2, [sp, #4]
    6fbc:	002a      	movs	r2, r5
    6fbe:	425b      	negs	r3, r3
    6fc0:	9300      	str	r3, [sp, #0]
    6fc2:	3220      	adds	r2, #32
    6fc4:	a908      	add	r1, sp, #32
    6fc6:	0028      	movs	r0, r5
    6fc8:	f7f9 ff4e 	bl	e68 <lfs_dir_fetchmatch>
    6fcc:	2800      	cmp	r0, #0
    6fce:	d0dd      	beq.n	6f8c <lfs_removeattr+0x24>
    6fd0:	e7ed      	b.n	6fae <lfs_removeattr+0x46>
    6fd2:	46c0      	nop			; (mov r8, r8)
    6fd4:	000003ff 	.word	0x000003ff

00006fd8 <lfs_file_open>:
    6fd8:	b510      	push	{r4, lr}
    6fda:	4c04      	ldr	r4, [pc, #16]	; (6fec <lfs_file_open+0x14>)
    6fdc:	b082      	sub	sp, #8
    6fde:	3408      	adds	r4, #8
    6fe0:	9400      	str	r4, [sp, #0]
    6fe2:	f7ff f91d 	bl	6220 <lfs_file_rawopencfg>
    6fe6:	b002      	add	sp, #8
    6fe8:	bd10      	pop	{r4, pc}
    6fea:	46c0      	nop			; (mov r8, r8)
    6fec:	00000000 	.word	0x00000000

00006ff0 <lfs_file_opencfg>:
    6ff0:	b510      	push	{r4, lr}
    6ff2:	b082      	sub	sp, #8
    6ff4:	9c04      	ldr	r4, [sp, #16]
    6ff6:	9400      	str	r4, [sp, #0]
    6ff8:	f7ff f912 	bl	6220 <lfs_file_rawopencfg>
    6ffc:	b002      	add	sp, #8
    6ffe:	bd10      	pop	{r4, pc}

00007000 <lfs_file_close>:
    7000:	b5f0      	push	{r4, r5, r6, r7, lr}
    7002:	2780      	movs	r7, #128	; 0x80
    7004:	6b0b      	ldr	r3, [r1, #48]	; 0x30
    7006:	033f      	lsls	r7, r7, #12
    7008:	b089      	sub	sp, #36	; 0x24
    700a:	0006      	movs	r6, r0
    700c:	000c      	movs	r4, r1
    700e:	423b      	tst	r3, r7
    7010:	d013      	beq.n	703a <lfs_file_close+0x3a>
    7012:	2500      	movs	r5, #0
    7014:	6ab0      	ldr	r0, [r6, #40]	; 0x28
    7016:	2800      	cmp	r0, #0
    7018:	d008      	beq.n	702c <lfs_file_close+0x2c>
    701a:	4284      	cmp	r4, r0
    701c:	d103      	bne.n	7026 <lfs_file_close+0x26>
    701e:	e042      	b.n	70a6 <lfs_file_close+0xa6>
    7020:	429c      	cmp	r4, r3
    7022:	d043      	beq.n	70ac <lfs_file_close+0xac>
    7024:	0018      	movs	r0, r3
    7026:	6803      	ldr	r3, [r0, #0]
    7028:	2b00      	cmp	r3, #0
    702a:	d1f9      	bne.n	7020 <lfs_file_close+0x20>
    702c:	6d23      	ldr	r3, [r4, #80]	; 0x50
    702e:	681b      	ldr	r3, [r3, #0]
    7030:	2b00      	cmp	r3, #0
    7032:	d041      	beq.n	70b8 <lfs_file_close+0xb8>
    7034:	0028      	movs	r0, r5
    7036:	b009      	add	sp, #36	; 0x24
    7038:	bdf0      	pop	{r4, r5, r6, r7, pc}
    703a:	f7fb fef7 	bl	2e2c <lfs_file_flush>
    703e:	6b23      	ldr	r3, [r4, #48]	; 0x30
    7040:	1e05      	subs	r5, r0, #0
    7042:	d13d      	bne.n	70c0 <lfs_file_close+0xc0>
    7044:	03da      	lsls	r2, r3, #15
    7046:	d5e4      	bpl.n	7012 <lfs_file_close+0x12>
    7048:	68a2      	ldr	r2, [r4, #8]
    704a:	3201      	adds	r2, #1
    704c:	d0e1      	beq.n	7012 <lfs_file_close+0x12>
    704e:	68e2      	ldr	r2, [r4, #12]
    7050:	3201      	adds	r2, #1
    7052:	d0de      	beq.n	7012 <lfs_file_close+0x12>
    7054:	02db      	lsls	r3, r3, #11
    7056:	d436      	bmi.n	70c6 <lfs_file_close+0xc6>
    7058:	ab02      	add	r3, sp, #8
    705a:	0022      	movs	r2, r4
    705c:	0019      	movs	r1, r3
    705e:	3228      	adds	r2, #40	; 0x28
    7060:	ca21      	ldmia	r2!, {r0, r5}
    7062:	c121      	stmia	r1!, {r0, r5}
    7064:	2008      	movs	r0, #8
    7066:	0019      	movs	r1, r3
    7068:	4a1c      	ldr	r2, [pc, #112]	; (70dc <lfs_file_close+0xdc>)
    706a:	88a3      	ldrh	r3, [r4, #4]
    706c:	4302      	orrs	r2, r0
    706e:	029b      	lsls	r3, r3, #10
    7070:	9105      	str	r1, [sp, #20]
    7072:	6d21      	ldr	r1, [r4, #80]	; 0x50
    7074:	431a      	orrs	r2, r3
    7076:	9204      	str	r2, [sp, #16]
    7078:	688a      	ldr	r2, [r1, #8]
    707a:	0030      	movs	r0, r6
    707c:	4313      	orrs	r3, r2
    707e:	2281      	movs	r2, #129	; 0x81
    7080:	0552      	lsls	r2, r2, #21
    7082:	4313      	orrs	r3, r2
    7084:	9306      	str	r3, [sp, #24]
    7086:	684b      	ldr	r3, [r1, #4]
    7088:	0021      	movs	r1, r4
    708a:	9301      	str	r3, [sp, #4]
    708c:	9307      	str	r3, [sp, #28]
    708e:	aa04      	add	r2, sp, #16
    7090:	2302      	movs	r3, #2
    7092:	3108      	adds	r1, #8
    7094:	f7fd ff4e 	bl	4f34 <lfs_dir_commit>
    7098:	1e05      	subs	r5, r0, #0
    709a:	d118      	bne.n	70ce <lfs_file_close+0xce>
    709c:	6b22      	ldr	r2, [r4, #48]	; 0x30
    709e:	4b10      	ldr	r3, [pc, #64]	; (70e0 <lfs_file_close+0xe0>)
    70a0:	4013      	ands	r3, r2
    70a2:	6323      	str	r3, [r4, #48]	; 0x30
    70a4:	e7b6      	b.n	7014 <lfs_file_close+0x14>
    70a6:	0030      	movs	r0, r6
    70a8:	0023      	movs	r3, r4
    70aa:	3028      	adds	r0, #40	; 0x28
    70ac:	681b      	ldr	r3, [r3, #0]
    70ae:	6003      	str	r3, [r0, #0]
    70b0:	6d23      	ldr	r3, [r4, #80]	; 0x50
    70b2:	681b      	ldr	r3, [r3, #0]
    70b4:	2b00      	cmp	r3, #0
    70b6:	d1bd      	bne.n	7034 <lfs_file_close+0x34>
    70b8:	6ce0      	ldr	r0, [r4, #76]	; 0x4c
    70ba:	f7ff fffe 	bl	0 <free>
    70be:	e7b9      	b.n	7034 <lfs_file_close+0x34>
    70c0:	431f      	orrs	r7, r3
    70c2:	6327      	str	r7, [r4, #48]	; 0x30
    70c4:	e7a6      	b.n	7014 <lfs_file_close+0x14>
    70c6:	6ce1      	ldr	r1, [r4, #76]	; 0x4c
    70c8:	6ae0      	ldr	r0, [r4, #44]	; 0x2c
    70ca:	4a06      	ldr	r2, [pc, #24]	; (70e4 <lfs_file_close+0xe4>)
    70cc:	e7cd      	b.n	706a <lfs_file_close+0x6a>
    70ce:	2380      	movs	r3, #128	; 0x80
    70d0:	6b22      	ldr	r2, [r4, #48]	; 0x30
    70d2:	031b      	lsls	r3, r3, #12
    70d4:	4313      	orrs	r3, r2
    70d6:	6323      	str	r3, [r4, #48]	; 0x30
    70d8:	e79c      	b.n	7014 <lfs_file_close+0x14>
    70da:	46c0      	nop			; (mov r8, r8)
    70dc:	20200000 	.word	0x20200000
    70e0:	fffeffff 	.word	0xfffeffff
    70e4:	20100000 	.word	0x20100000

000070e8 <lfs_file_sync>:
    70e8:	b570      	push	{r4, r5, r6, lr}
    70ea:	2580      	movs	r5, #128	; 0x80
    70ec:	6b0b      	ldr	r3, [r1, #48]	; 0x30
    70ee:	032d      	lsls	r5, r5, #12
    70f0:	b088      	sub	sp, #32
    70f2:	0006      	movs	r6, r0
    70f4:	000c      	movs	r4, r1
    70f6:	422b      	tst	r3, r5
    70f8:	d002      	beq.n	7100 <lfs_file_sync+0x18>
    70fa:	2000      	movs	r0, #0
    70fc:	b008      	add	sp, #32
    70fe:	bd70      	pop	{r4, r5, r6, pc}
    7100:	f7fb fe94 	bl	2e2c <lfs_file_flush>
    7104:	6b23      	ldr	r3, [r4, #48]	; 0x30
    7106:	2800      	cmp	r0, #0
    7108:	d130      	bne.n	716c <lfs_file_sync+0x84>
    710a:	03da      	lsls	r2, r3, #15
    710c:	d5f5      	bpl.n	70fa <lfs_file_sync+0x12>
    710e:	68a2      	ldr	r2, [r4, #8]
    7110:	3201      	adds	r2, #1
    7112:	d0f2      	beq.n	70fa <lfs_file_sync+0x12>
    7114:	68e2      	ldr	r2, [r4, #12]
    7116:	3201      	adds	r2, #1
    7118:	d0ef      	beq.n	70fa <lfs_file_sync+0x12>
    711a:	02db      	lsls	r3, r3, #11
    711c:	d429      	bmi.n	7172 <lfs_file_sync+0x8a>
    711e:	ab02      	add	r3, sp, #8
    7120:	0022      	movs	r2, r4
    7122:	0019      	movs	r1, r3
    7124:	3228      	adds	r2, #40	; 0x28
    7126:	ca21      	ldmia	r2!, {r0, r5}
    7128:	c121      	stmia	r1!, {r0, r5}
    712a:	2208      	movs	r2, #8
    712c:	0019      	movs	r1, r3
    712e:	4816      	ldr	r0, [pc, #88]	; (7188 <lfs_file_sync+0xa0>)
    7130:	88a3      	ldrh	r3, [r4, #4]
    7132:	4302      	orrs	r2, r0
    7134:	029b      	lsls	r3, r3, #10
    7136:	9105      	str	r1, [sp, #20]
    7138:	6d21      	ldr	r1, [r4, #80]	; 0x50
    713a:	431a      	orrs	r2, r3
    713c:	9204      	str	r2, [sp, #16]
    713e:	688a      	ldr	r2, [r1, #8]
    7140:	0030      	movs	r0, r6
    7142:	4313      	orrs	r3, r2
    7144:	2281      	movs	r2, #129	; 0x81
    7146:	0552      	lsls	r2, r2, #21
    7148:	4313      	orrs	r3, r2
    714a:	9306      	str	r3, [sp, #24]
    714c:	684b      	ldr	r3, [r1, #4]
    714e:	0021      	movs	r1, r4
    7150:	9301      	str	r3, [sp, #4]
    7152:	9307      	str	r3, [sp, #28]
    7154:	aa04      	add	r2, sp, #16
    7156:	2302      	movs	r3, #2
    7158:	3108      	adds	r1, #8
    715a:	f7fd feeb 	bl	4f34 <lfs_dir_commit>
    715e:	2800      	cmp	r0, #0
    7160:	d10b      	bne.n	717a <lfs_file_sync+0x92>
    7162:	6b22      	ldr	r2, [r4, #48]	; 0x30
    7164:	4b09      	ldr	r3, [pc, #36]	; (718c <lfs_file_sync+0xa4>)
    7166:	4013      	ands	r3, r2
    7168:	6323      	str	r3, [r4, #48]	; 0x30
    716a:	e7c7      	b.n	70fc <lfs_file_sync+0x14>
    716c:	431d      	orrs	r5, r3
    716e:	6325      	str	r5, [r4, #48]	; 0x30
    7170:	e7c4      	b.n	70fc <lfs_file_sync+0x14>
    7172:	6ce1      	ldr	r1, [r4, #76]	; 0x4c
    7174:	6ae2      	ldr	r2, [r4, #44]	; 0x2c
    7176:	4806      	ldr	r0, [pc, #24]	; (7190 <lfs_file_sync+0xa8>)
    7178:	e7da      	b.n	7130 <lfs_file_sync+0x48>
    717a:	2380      	movs	r3, #128	; 0x80
    717c:	6b22      	ldr	r2, [r4, #48]	; 0x30
    717e:	031b      	lsls	r3, r3, #12
    7180:	4313      	orrs	r3, r2
    7182:	6323      	str	r3, [r4, #48]	; 0x30
    7184:	e7ba      	b.n	70fc <lfs_file_sync+0x14>
    7186:	46c0      	nop			; (mov r8, r8)
    7188:	20200000 	.word	0x20200000
    718c:	fffeffff 	.word	0xfffeffff
    7190:	20100000 	.word	0x20100000

00007194 <lfs_file_read>:
    7194:	b510      	push	{r4, lr}
    7196:	f7fb fedb 	bl	2f50 <lfs_file_rawread>
    719a:	bd10      	pop	{r4, pc}

0000719c <lfs_file_write>:
    719c:	b510      	push	{r4, lr}
    719e:	f7fb fbe1 	bl	2964 <lfs_file_rawwrite>
    71a2:	bd10      	pop	{r4, pc}

000071a4 <lfs_file_seek>:
    71a4:	b5f8      	push	{r3, r4, r5, r6, r7, lr}
    71a6:	000d      	movs	r5, r1
    71a8:	6f06      	ldr	r6, [r0, #112]	; 0x70
    71aa:	6b49      	ldr	r1, [r1, #52]	; 0x34
    71ac:	0014      	movs	r4, r2
    71ae:	2b00      	cmp	r3, #0
    71b0:	d012      	beq.n	71d8 <lfs_file_seek+0x34>
    71b2:	1854      	adds	r4, r2, r1
    71b4:	2b01      	cmp	r3, #1
    71b6:	d00f      	beq.n	71d8 <lfs_file_seek+0x34>
    71b8:	2b02      	cmp	r3, #2
    71ba:	d003      	beq.n	71c4 <lfs_file_seek+0x20>
    71bc:	42b1      	cmp	r1, r6
    71be:	d817      	bhi.n	71f0 <lfs_file_seek+0x4c>
    71c0:	0008      	movs	r0, r1
    71c2:	bdf8      	pop	{r3, r4, r5, r6, r7, pc}
    71c4:	6aeb      	ldr	r3, [r5, #44]	; 0x2c
    71c6:	6b2f      	ldr	r7, [r5, #48]	; 0x30
    71c8:	001c      	movs	r4, r3
    71ca:	03bf      	lsls	r7, r7, #14
    71cc:	d503      	bpl.n	71d6 <lfs_file_seek+0x32>
    71ce:	000c      	movs	r4, r1
    71d0:	4299      	cmp	r1, r3
    71d2:	d200      	bcs.n	71d6 <lfs_file_seek+0x32>
    71d4:	001c      	movs	r4, r3
    71d6:	1914      	adds	r4, r2, r4
    71d8:	42b4      	cmp	r4, r6
    71da:	d809      	bhi.n	71f0 <lfs_file_seek+0x4c>
    71dc:	42a1      	cmp	r1, r4
    71de:	d0ef      	beq.n	71c0 <lfs_file_seek+0x1c>
    71e0:	0029      	movs	r1, r5
    71e2:	f7fb fe23 	bl	2e2c <lfs_file_flush>
    71e6:	2800      	cmp	r0, #0
    71e8:	d1eb      	bne.n	71c2 <lfs_file_seek+0x1e>
    71ea:	636c      	str	r4, [r5, #52]	; 0x34
    71ec:	0020      	movs	r0, r4
    71ee:	e7e8      	b.n	71c2 <lfs_file_seek+0x1e>
    71f0:	2016      	movs	r0, #22
    71f2:	4240      	negs	r0, r0
    71f4:	e7e5      	b.n	71c2 <lfs_file_seek+0x1e>
    71f6:	46c0      	nop			; (mov r8, r8)

000071f8 <lfs_file_truncate>:
    71f8:	b5f0      	push	{r4, r5, r6, r7, lr}
    71fa:	4646      	mov	r6, r8
    71fc:	464f      	mov	r7, r9
    71fe:	46d6      	mov	lr, sl
    7200:	b5c0      	push	{r6, r7, lr}
    7202:	4680      	mov	r8, r0
    7204:	b086      	sub	sp, #24
    7206:	000e      	movs	r6, r1
    7208:	1e17      	subs	r7, r2, #0
    720a:	db0e      	blt.n	722a <lfs_file_truncate+0x32>
    720c:	6b4b      	ldr	r3, [r1, #52]	; 0x34
    720e:	6acd      	ldr	r5, [r1, #44]	; 0x2c
    7210:	4699      	mov	r9, r3
    7212:	6b0b      	ldr	r3, [r1, #48]	; 0x30
    7214:	002c      	movs	r4, r5
    7216:	039b      	lsls	r3, r3, #14
    7218:	d430      	bmi.n	727c <lfs_file_truncate+0x84>
    721a:	42af      	cmp	r7, r5
    721c:	d333      	bcc.n	7286 <lfs_file_truncate+0x8e>
    721e:	4643      	mov	r3, r8
    7220:	6f1b      	ldr	r3, [r3, #112]	; 0x70
    7222:	42af      	cmp	r7, r5
    7224:	d80a      	bhi.n	723c <lfs_file_truncate+0x44>
    7226:	4599      	cmp	r9, r3
    7228:	d95c      	bls.n	72e4 <lfs_file_truncate+0xec>
    722a:	2416      	movs	r4, #22
    722c:	4264      	negs	r4, r4
    722e:	0020      	movs	r0, r4
    7230:	b006      	add	sp, #24
    7232:	bc1c      	pop	{r2, r3, r4}
    7234:	4690      	mov	r8, r2
    7236:	4699      	mov	r9, r3
    7238:	46a2      	mov	sl, r4
    723a:	bdf0      	pop	{r4, r5, r6, r7, pc}
    723c:	429d      	cmp	r5, r3
    723e:	d8f4      	bhi.n	722a <lfs_file_truncate+0x32>
    7240:	45a9      	cmp	r9, r5
    7242:	d006      	beq.n	7252 <lfs_file_truncate+0x5a>
    7244:	0031      	movs	r1, r6
    7246:	4640      	mov	r0, r8
    7248:	f7fb fdf0 	bl	2e2c <lfs_file_flush>
    724c:	2800      	cmp	r0, #0
    724e:	d152      	bne.n	72f6 <lfs_file_truncate+0xfe>
    7250:	6375      	str	r5, [r6, #52]	; 0x34
    7252:	2c00      	cmp	r4, #0
    7254:	dbeb      	blt.n	722e <lfs_file_truncate+0x36>
    7256:	2517      	movs	r5, #23
    7258:	2300      	movs	r3, #0
    725a:	446d      	add	r5, sp
    725c:	469a      	mov	sl, r3
    725e:	e009      	b.n	7274 <lfs_file_truncate+0x7c>
    7260:	4653      	mov	r3, sl
    7262:	002a      	movs	r2, r5
    7264:	702b      	strb	r3, [r5, #0]
    7266:	0031      	movs	r1, r6
    7268:	2301      	movs	r3, #1
    726a:	4640      	mov	r0, r8
    726c:	f7fb fb7a 	bl	2964 <lfs_file_rawwrite>
    7270:	1e04      	subs	r4, r0, #0
    7272:	dbdc      	blt.n	722e <lfs_file_truncate+0x36>
    7274:	6b73      	ldr	r3, [r6, #52]	; 0x34
    7276:	429f      	cmp	r7, r3
    7278:	d8f2      	bhi.n	7260 <lfs_file_truncate+0x68>
    727a:	e023      	b.n	72c4 <lfs_file_truncate+0xcc>
    727c:	454d      	cmp	r5, r9
    727e:	d337      	bcc.n	72f0 <lfs_file_truncate+0xf8>
    7280:	002c      	movs	r4, r5
    7282:	42af      	cmp	r7, r5
    7284:	d2cb      	bcs.n	721e <lfs_file_truncate+0x26>
    7286:	0031      	movs	r1, r6
    7288:	4640      	mov	r0, r8
    728a:	f7fb fdcf 	bl	2e2c <lfs_file_flush>
    728e:	1e04      	subs	r4, r0, #0
    7290:	d1cd      	bne.n	722e <lfs_file_truncate+0x36>
    7292:	0033      	movs	r3, r6
    7294:	0031      	movs	r1, r6
    7296:	333c      	adds	r3, #60	; 0x3c
    7298:	9302      	str	r3, [sp, #8]
    729a:	3b04      	subs	r3, #4
    729c:	9301      	str	r3, [sp, #4]
    729e:	9700      	str	r7, [sp, #0]
    72a0:	6af3      	ldr	r3, [r6, #44]	; 0x2c
    72a2:	6ab2      	ldr	r2, [r6, #40]	; 0x28
    72a4:	3140      	adds	r1, #64	; 0x40
    72a6:	4640      	mov	r0, r8
    72a8:	f7f9 f9ba 	bl	620 <lfs_ctz_find.constprop.30>
    72ac:	1e04      	subs	r4, r0, #0
    72ae:	d1be      	bne.n	722e <lfs_file_truncate+0x36>
    72b0:	6bb3      	ldr	r3, [r6, #56]	; 0x38
    72b2:	6b32      	ldr	r2, [r6, #48]	; 0x30
    72b4:	62b3      	str	r3, [r6, #40]	; 0x28
    72b6:	23a0      	movs	r3, #160	; 0xa0
    72b8:	02db      	lsls	r3, r3, #11
    72ba:	4313      	orrs	r3, r2
    72bc:	6333      	str	r3, [r6, #48]	; 0x30
    72be:	003b      	movs	r3, r7
    72c0:	6377      	str	r7, [r6, #52]	; 0x34
    72c2:	62f7      	str	r7, [r6, #44]	; 0x2c
    72c4:	4642      	mov	r2, r8
    72c6:	6f12      	ldr	r2, [r2, #112]	; 0x70
    72c8:	4591      	cmp	r9, r2
    72ca:	d8ae      	bhi.n	722a <lfs_file_truncate+0x32>
    72cc:	4599      	cmp	r9, r3
    72ce:	d009      	beq.n	72e4 <lfs_file_truncate+0xec>
    72d0:	0031      	movs	r1, r6
    72d2:	4640      	mov	r0, r8
    72d4:	f7fb fdaa 	bl	2e2c <lfs_file_flush>
    72d8:	2800      	cmp	r0, #0
    72da:	d104      	bne.n	72e6 <lfs_file_truncate+0xee>
    72dc:	464b      	mov	r3, r9
    72de:	4648      	mov	r0, r9
    72e0:	6373      	str	r3, [r6, #52]	; 0x34
    72e2:	e000      	b.n	72e6 <lfs_file_truncate+0xee>
    72e4:	4648      	mov	r0, r9
    72e6:	1e44      	subs	r4, r0, #1
    72e8:	4304      	orrs	r4, r0
    72ea:	17e4      	asrs	r4, r4, #31
    72ec:	4004      	ands	r4, r0
    72ee:	e79e      	b.n	722e <lfs_file_truncate+0x36>
    72f0:	464d      	mov	r5, r9
    72f2:	002c      	movs	r4, r5
    72f4:	e7c5      	b.n	7282 <lfs_file_truncate+0x8a>
    72f6:	0004      	movs	r4, r0
    72f8:	e7ab      	b.n	7252 <lfs_file_truncate+0x5a>
    72fa:	46c0      	nop			; (mov r8, r8)

000072fc <lfs_file_tell>:
    72fc:	6b48      	ldr	r0, [r1, #52]	; 0x34
    72fe:	4770      	bx	lr

00007300 <lfs_file_rewind>:
    7300:	6b4b      	ldr	r3, [r1, #52]	; 0x34
    7302:	b510      	push	{r4, lr}
    7304:	000c      	movs	r4, r1
    7306:	2b00      	cmp	r3, #0
    7308:	d00a      	beq.n	7320 <lfs_file_rewind+0x20>
    730a:	f7fb fd8f 	bl	2e2c <lfs_file_flush>
    730e:	2800      	cmp	r0, #0
    7310:	d101      	bne.n	7316 <lfs_file_rewind+0x16>
    7312:	6360      	str	r0, [r4, #52]	; 0x34
    7314:	bd10      	pop	{r4, pc}
    7316:	1e43      	subs	r3, r0, #1
    7318:	4303      	orrs	r3, r0
    731a:	17db      	asrs	r3, r3, #31
    731c:	4018      	ands	r0, r3
    731e:	e7f9      	b.n	7314 <lfs_file_rewind+0x14>
    7320:	2000      	movs	r0, #0
    7322:	e7f7      	b.n	7314 <lfs_file_rewind+0x14>

00007324 <lfs_file_size>:
    7324:	6acb      	ldr	r3, [r1, #44]	; 0x2c
    7326:	6b0a      	ldr	r2, [r1, #48]	; 0x30
    7328:	0018      	movs	r0, r3
    732a:	0392      	lsls	r2, r2, #14
    732c:	d400      	bmi.n	7330 <lfs_file_size+0xc>
    732e:	4770      	bx	lr
    7330:	6b48      	ldr	r0, [r1, #52]	; 0x34
    7332:	4298      	cmp	r0, r3
    7334:	d2fb      	bcs.n	732e <lfs_file_size+0xa>
    7336:	0018      	movs	r0, r3
    7338:	e7f9      	b.n	732e <lfs_file_size+0xa>
    733a:	46c0      	nop			; (mov r8, r8)

0000733c <lfs_mkdir>:
    733c:	b5f0      	push	{r4, r5, r6, r7, lr}
    733e:	46c6      	mov	lr, r8
    7340:	b500      	push	{lr}
    7342:	b0ac      	sub	sp, #176	; 0xb0
    7344:	0004      	movs	r4, r0
    7346:	9105      	str	r1, [sp, #20]
    7348:	f7fe fe10 	bl	5f6c <lfs_fs_forceconsistency>
    734c:	2800      	cmp	r0, #0
    734e:	d003      	beq.n	7358 <lfs_mkdir+0x1c>
    7350:	b02c      	add	sp, #176	; 0xb0
    7352:	bc04      	pop	{r2}
    7354:	4690      	mov	r8, r2
    7356:	bdf0      	pop	{r4, r5, r6, r7, pc}
    7358:	6aa3      	ldr	r3, [r4, #40]	; 0x28
    735a:	aa05      	add	r2, sp, #20
    735c:	9322      	str	r3, [sp, #136]	; 0x88
    735e:	2312      	movs	r3, #18
    7360:	a924      	add	r1, sp, #144	; 0x90
    7362:	446b      	add	r3, sp
    7364:	0020      	movs	r0, r4
    7366:	f7fa fc0f 	bl	1b88 <lfs_dir_find>
    736a:	1c83      	adds	r3, r0, #2
    736c:	d15d      	bne.n	742a <lfs_mkdir+0xee>
    736e:	466a      	mov	r2, sp
    7370:	4b52      	ldr	r3, [pc, #328]	; (74bc <lfs_mkdir+0x180>)
    7372:	8a52      	ldrh	r2, [r2, #18]
    7374:	429a      	cmp	r2, r3
    7376:	d0eb      	beq.n	7350 <lfs_mkdir+0x14>
    7378:	9805      	ldr	r0, [sp, #20]
    737a:	f7ff fffe 	bl	0 <strlen>
    737e:	6ee3      	ldr	r3, [r4, #108]	; 0x6c
    7380:	4680      	mov	r8, r0
    7382:	4298      	cmp	r0, r3
    7384:	d900      	bls.n	7388 <lfs_mkdir+0x4c>
    7386:	e096      	b.n	74b6 <lfs_mkdir+0x17a>
    7388:	6ea3      	ldr	r3, [r4, #104]	; 0x68
    738a:	a90a      	add	r1, sp, #40	; 0x28
    738c:	6a1b      	ldr	r3, [r3, #32]
    738e:	0020      	movs	r0, r4
    7390:	6623      	str	r3, [r4, #96]	; 0x60
    7392:	f7fb f9a7 	bl	26e4 <lfs_dir_alloc.part.26>
    7396:	2800      	cmp	r0, #0
    7398:	d1da      	bne.n	7350 <lfs_mkdir+0x14>
    739a:	2701      	movs	r7, #1
    739c:	ae12      	add	r6, sp, #72	; 0x48
    739e:	2220      	movs	r2, #32
    73a0:	a924      	add	r1, sp, #144	; 0x90
    73a2:	0030      	movs	r0, r6
    73a4:	f7ff fffe 	bl	0 <memcpy>
    73a8:	427f      	negs	r7, r7
    73aa:	2500      	movs	r5, #0
    73ac:	e00c      	b.n	73c8 <lfs_mkdir+0x8c>
    73ae:	2301      	movs	r3, #1
    73b0:	9503      	str	r5, [sp, #12]
    73b2:	9502      	str	r5, [sp, #8]
    73b4:	9501      	str	r5, [sp, #4]
    73b6:	9700      	str	r7, [sp, #0]
    73b8:	425b      	negs	r3, r3
    73ba:	aa18      	add	r2, sp, #96	; 0x60
    73bc:	0031      	movs	r1, r6
    73be:	0020      	movs	r0, r4
    73c0:	f7f9 fd52 	bl	e68 <lfs_dir_fetchmatch>
    73c4:	2800      	cmp	r0, #0
    73c6:	d1c3      	bne.n	7350 <lfs_mkdir+0x14>
    73c8:	7df3      	ldrb	r3, [r6, #23]
    73ca:	2b00      	cmp	r3, #0
    73cc:	d1ef      	bne.n	73ae <lfs_mkdir+0x72>
    73ce:	ab18      	add	r3, sp, #96	; 0x60
    73d0:	4f3b      	ldr	r7, [pc, #236]	; (74c0 <lfs_mkdir+0x184>)
    73d2:	9309      	str	r3, [sp, #36]	; 0x24
    73d4:	aa08      	add	r2, sp, #32
    73d6:	2301      	movs	r3, #1
    73d8:	a90a      	add	r1, sp, #40	; 0x28
    73da:	0020      	movs	r0, r4
    73dc:	9708      	str	r7, [sp, #32]
    73de:	f7fd fda9 	bl	4f34 <lfs_dir_commit>
    73e2:	2800      	cmp	r0, #0
    73e4:	d1b4      	bne.n	7350 <lfs_mkdir+0x14>
    73e6:	ad22      	add	r5, sp, #136	; 0x88
    73e8:	7feb      	ldrb	r3, [r5, #31]
    73ea:	2b00      	cmp	r3, #0
    73ec:	d123      	bne.n	7436 <lfs_mkdir+0xfa>
    73ee:	466a      	mov	r2, sp
    73f0:	8a51      	ldrh	r1, [r2, #18]
    73f2:	4834      	ldr	r0, [pc, #208]	; (74c4 <lfs_mkdir+0x188>)
    73f4:	0289      	lsls	r1, r1, #10
    73f6:	aa1a      	add	r2, sp, #104	; 0x68
    73f8:	4308      	orrs	r0, r1
    73fa:	901a      	str	r0, [sp, #104]	; 0x68
    73fc:	6053      	str	r3, [r2, #4]
    73fe:	2080      	movs	r0, #128	; 0x80
    7400:	4643      	mov	r3, r8
    7402:	0380      	lsls	r0, r0, #14
    7404:	430b      	orrs	r3, r1
    7406:	4303      	orrs	r3, r0
    7408:	6093      	str	r3, [r2, #8]
    740a:	9b05      	ldr	r3, [sp, #20]
    740c:	60d3      	str	r3, [r2, #12]
    740e:	4b2e      	ldr	r3, [pc, #184]	; (74c8 <lfs_mkdir+0x18c>)
    7410:	4319      	orrs	r1, r3
    7412:	ab0a      	add	r3, sp, #40	; 0x28
    7414:	6111      	str	r1, [r2, #16]
    7416:	6153      	str	r3, [r2, #20]
    7418:	ab0a      	add	r3, sp, #40	; 0x28
    741a:	61d3      	str	r3, [r2, #28]
    741c:	6197      	str	r7, [r2, #24]
    741e:	2304      	movs	r3, #4
    7420:	a924      	add	r1, sp, #144	; 0x90
    7422:	0020      	movs	r0, r4
    7424:	f7fd fd86 	bl	4f34 <lfs_dir_commit>
    7428:	e792      	b.n	7350 <lfs_mkdir+0x14>
    742a:	2800      	cmp	r0, #0
    742c:	da00      	bge.n	7430 <lfs_mkdir+0xf4>
    742e:	e78f      	b.n	7350 <lfs_mkdir+0x14>
    7430:	2011      	movs	r0, #17
    7432:	4240      	negs	r0, r0
    7434:	e78c      	b.n	7350 <lfs_mkdir+0x14>
    7436:	6b23      	ldr	r3, [r4, #48]	; 0x30
    7438:	71a8      	strb	r0, [r5, #6]
    743a:	3301      	adds	r3, #1
    743c:	059a      	lsls	r2, r3, #22
    743e:	1e51      	subs	r1, r2, #1
    7440:	418a      	sbcs	r2, r1
    7442:	005b      	lsls	r3, r3, #1
    7444:	07d2      	lsls	r2, r2, #31
    7446:	085b      	lsrs	r3, r3, #1
    7448:	4313      	orrs	r3, r2
    744a:	6323      	str	r3, [r4, #48]	; 0x30
    744c:	ab0a      	add	r3, sp, #40	; 0x28
    744e:	80a8      	strh	r0, [r5, #4]
    7450:	9307      	str	r3, [sp, #28]
    7452:	62a5      	str	r5, [r4, #40]	; 0x28
    7454:	2301      	movs	r3, #1
    7456:	aa06      	add	r2, sp, #24
    7458:	0031      	movs	r1, r6
    745a:	0020      	movs	r0, r4
    745c:	9706      	str	r7, [sp, #24]
    745e:	f7fd fd69 	bl	4f34 <lfs_dir_commit>
    7462:	682b      	ldr	r3, [r5, #0]
    7464:	62a3      	str	r3, [r4, #40]	; 0x28
    7466:	2800      	cmp	r0, #0
    7468:	d000      	beq.n	746c <lfs_mkdir+0x130>
    746a:	e771      	b.n	7350 <lfs_mkdir+0x14>
    746c:	6b23      	ldr	r3, [r4, #48]	; 0x30
    746e:	3b01      	subs	r3, #1
    7470:	059a      	lsls	r2, r3, #22
    7472:	1e51      	subs	r1, r2, #1
    7474:	418a      	sbcs	r2, r1
    7476:	005b      	lsls	r3, r3, #1
    7478:	07d2      	lsls	r2, r2, #31
    747a:	085b      	lsrs	r3, r3, #1
    747c:	4313      	orrs	r3, r2
    747e:	466a      	mov	r2, sp
    7480:	6323      	str	r3, [r4, #48]	; 0x30
    7482:	8a51      	ldrh	r1, [r2, #18]
    7484:	7feb      	ldrb	r3, [r5, #31]
    7486:	4d0f      	ldr	r5, [pc, #60]	; (74c4 <lfs_mkdir+0x188>)
    7488:	0289      	lsls	r1, r1, #10
    748a:	aa1a      	add	r2, sp, #104	; 0x68
    748c:	430d      	orrs	r5, r1
    748e:	951a      	str	r5, [sp, #104]	; 0x68
    7490:	6050      	str	r0, [r2, #4]
    7492:	4645      	mov	r5, r8
    7494:	2080      	movs	r0, #128	; 0x80
    7496:	430d      	orrs	r5, r1
    7498:	0380      	lsls	r0, r0, #14
    749a:	4328      	orrs	r0, r5
    749c:	6090      	str	r0, [r2, #8]
    749e:	9805      	ldr	r0, [sp, #20]
    74a0:	60d0      	str	r0, [r2, #12]
    74a2:	4809      	ldr	r0, [pc, #36]	; (74c8 <lfs_mkdir+0x18c>)
    74a4:	4301      	orrs	r1, r0
    74a6:	6111      	str	r1, [r2, #16]
    74a8:	a90a      	add	r1, sp, #40	; 0x28
    74aa:	6151      	str	r1, [r2, #20]
    74ac:	4259      	negs	r1, r3
    74ae:	414b      	adcs	r3, r1
    74b0:	425b      	negs	r3, r3
    74b2:	401f      	ands	r7, r3
    74b4:	e7b0      	b.n	7418 <lfs_mkdir+0xdc>
    74b6:	2024      	movs	r0, #36	; 0x24
    74b8:	4240      	negs	r0, r0
    74ba:	e749      	b.n	7350 <lfs_mkdir+0x14>
    74bc:	000003ff 	.word	0x000003ff
    74c0:	600ffc08 	.word	0x600ffc08
    74c4:	40100000 	.word	0x40100000
    74c8:	20000008 	.word	0x20000008

000074cc <lfs_dir_open>:
    74cc:	b5f0      	push	{r4, r5, r6, r7, lr}
    74ce:	000e      	movs	r6, r1
    74d0:	b089      	sub	sp, #36	; 0x24
    74d2:	3608      	adds	r6, #8
    74d4:	000c      	movs	r4, r1
    74d6:	9205      	str	r2, [sp, #20]
    74d8:	2300      	movs	r3, #0
    74da:	aa05      	add	r2, sp, #20
    74dc:	0031      	movs	r1, r6
    74de:	0005      	movs	r5, r0
    74e0:	f7fa fb52 	bl	1b88 <lfs_dir_find>
    74e4:	2800      	cmp	r0, #0
    74e6:	db25      	blt.n	7534 <lfs_dir_open+0x68>
    74e8:	0d03      	lsrs	r3, r0, #20
    74ea:	2b02      	cmp	r3, #2
    74ec:	d132      	bne.n	7554 <lfs_dir_open+0x88>
    74ee:	4b1b      	ldr	r3, [pc, #108]	; (755c <lfs_dir_open+0x90>)
    74f0:	0300      	lsls	r0, r0, #12
    74f2:	0d80      	lsrs	r0, r0, #22
    74f4:	4298      	cmp	r0, r3
    74f6:	d11f      	bne.n	7538 <lfs_dir_open+0x6c>
    74f8:	6a2b      	ldr	r3, [r5, #32]
    74fa:	af06      	add	r7, sp, #24
    74fc:	9306      	str	r3, [sp, #24]
    74fe:	6a6b      	ldr	r3, [r5, #36]	; 0x24
    7500:	9307      	str	r3, [sp, #28]
    7502:	2301      	movs	r3, #1
    7504:	2200      	movs	r2, #0
    7506:	425b      	negs	r3, r3
    7508:	9203      	str	r2, [sp, #12]
    750a:	9202      	str	r2, [sp, #8]
    750c:	9201      	str	r2, [sp, #4]
    750e:	9300      	str	r3, [sp, #0]
    7510:	003a      	movs	r2, r7
    7512:	0031      	movs	r1, r6
    7514:	0028      	movs	r0, r5
    7516:	f7f9 fca7 	bl	e68 <lfs_dir_fetchmatch>
    751a:	2800      	cmp	r0, #0
    751c:	d10a      	bne.n	7534 <lfs_dir_open+0x68>
    751e:	68a3      	ldr	r3, [r4, #8]
    7520:	80a0      	strh	r0, [r4, #4]
    7522:	62e3      	str	r3, [r4, #44]	; 0x2c
    7524:	68e3      	ldr	r3, [r4, #12]
    7526:	62a0      	str	r0, [r4, #40]	; 0x28
    7528:	6323      	str	r3, [r4, #48]	; 0x30
    752a:	2302      	movs	r3, #2
    752c:	71a3      	strb	r3, [r4, #6]
    752e:	6aab      	ldr	r3, [r5, #40]	; 0x28
    7530:	6023      	str	r3, [r4, #0]
    7532:	62ac      	str	r4, [r5, #40]	; 0x28
    7534:	b009      	add	sp, #36	; 0x24
    7536:	bdf0      	pop	{r4, r5, r6, r7, pc}
    7538:	2308      	movs	r3, #8
    753a:	4a09      	ldr	r2, [pc, #36]	; (7560 <lfs_dir_open+0x94>)
    753c:	0280      	lsls	r0, r0, #10
    753e:	af06      	add	r7, sp, #24
    7540:	4302      	orrs	r2, r0
    7542:	9300      	str	r3, [sp, #0]
    7544:	0031      	movs	r1, r6
    7546:	003b      	movs	r3, r7
    7548:	0028      	movs	r0, r5
    754a:	f7fa f987 	bl	185c <lfs_dir_getslice.constprop.39>
    754e:	2800      	cmp	r0, #0
    7550:	dad7      	bge.n	7502 <lfs_dir_open+0x36>
    7552:	e7ef      	b.n	7534 <lfs_dir_open+0x68>
    7554:	2014      	movs	r0, #20
    7556:	4240      	negs	r0, r0
    7558:	e7ec      	b.n	7534 <lfs_dir_open+0x68>
    755a:	46c0      	nop			; (mov r8, r8)
    755c:	000003ff 	.word	0x000003ff
    7560:	20000008 	.word	0x20000008

00007564 <lfs_dir_close>:
    7564:	6a82      	ldr	r2, [r0, #40]	; 0x28
    7566:	2a00      	cmp	r2, #0
    7568:	d008      	beq.n	757c <lfs_dir_close+0x18>
    756a:	4291      	cmp	r1, r2
    756c:	d103      	bne.n	7576 <lfs_dir_close+0x12>
    756e:	e007      	b.n	7580 <lfs_dir_close+0x1c>
    7570:	4299      	cmp	r1, r3
    7572:	d008      	beq.n	7586 <lfs_dir_close+0x22>
    7574:	001a      	movs	r2, r3
    7576:	6813      	ldr	r3, [r2, #0]
    7578:	2b00      	cmp	r3, #0
    757a:	d1f9      	bne.n	7570 <lfs_dir_close+0xc>
    757c:	2000      	movs	r0, #0
    757e:	4770      	bx	lr
    7580:	0002      	movs	r2, r0
    7582:	000b      	movs	r3, r1
    7584:	3228      	adds	r2, #40	; 0x28
    7586:	681b      	ldr	r3, [r3, #0]
    7588:	6013      	str	r3, [r2, #0]
    758a:	e7f7      	b.n	757c <lfs_dir_close+0x18>

0000758c <lfs_dir_read>:
    758c:	b5f0      	push	{r4, r5, r6, r7, lr}
    758e:	46ce      	mov	lr, r9
    7590:	4647      	mov	r7, r8
    7592:	0015      	movs	r5, r2
    7594:	2284      	movs	r2, #132	; 0x84
    7596:	000c      	movs	r4, r1
    7598:	b580      	push	{r7, lr}
    759a:	0006      	movs	r6, r0
    759c:	b087      	sub	sp, #28
    759e:	0052      	lsls	r2, r2, #1
    75a0:	2100      	movs	r1, #0
    75a2:	0028      	movs	r0, r5
    75a4:	f7ff fffe 	bl	0 <memset>
    75a8:	6aa3      	ldr	r3, [r4, #40]	; 0x28
    75aa:	2b00      	cmp	r3, #0
    75ac:	d100      	bne.n	75b0 <lfs_dir_read+0x24>
    75ae:	e06f      	b.n	7690 <lfs_dir_read+0x104>
    75b0:	2b01      	cmp	r3, #1
    75b2:	d100      	bne.n	75b6 <lfs_dir_read+0x2a>
    75b4:	e07b      	b.n	76ae <lfs_dir_read+0x122>
    75b6:	4b41      	ldr	r3, [pc, #260]	; (76bc <lfs_dir_read+0x130>)
    75b8:	0027      	movs	r7, r4
    75ba:	4698      	mov	r8, r3
    75bc:	88a2      	ldrh	r2, [r4, #4]
    75be:	3708      	adds	r7, #8
    75c0:	8ba3      	ldrh	r3, [r4, #28]
    75c2:	4293      	cmp	r3, r2
    75c4:	d14c      	bne.n	7660 <lfs_dir_read+0xd4>
    75c6:	7fe3      	ldrb	r3, [r4, #31]
    75c8:	2b00      	cmp	r3, #0
    75ca:	d100      	bne.n	75ce <lfs_dir_read+0x42>
    75cc:	e06d      	b.n	76aa <lfs_dir_read+0x11e>
    75ce:	2200      	movs	r2, #0
    75d0:	2301      	movs	r3, #1
    75d2:	9203      	str	r2, [sp, #12]
    75d4:	9202      	str	r2, [sp, #8]
    75d6:	9201      	str	r2, [sp, #4]
    75d8:	0022      	movs	r2, r4
    75da:	425b      	negs	r3, r3
    75dc:	9300      	str	r3, [sp, #0]
    75de:	3220      	adds	r2, #32
    75e0:	0039      	movs	r1, r7
    75e2:	0030      	movs	r0, r6
    75e4:	f7f9 fc40 	bl	e68 <lfs_dir_fetchmatch>
    75e8:	2800      	cmp	r0, #0
    75ea:	d134      	bne.n	7656 <lfs_dir_read+0xca>
    75ec:	2300      	movs	r3, #0
    75ee:	4699      	mov	r9, r3
    75f0:	80a0      	strh	r0, [r4, #4]
    75f2:	464a      	mov	r2, r9
    75f4:	6ef3      	ldr	r3, [r6, #108]	; 0x6c
    75f6:	0039      	movs	r1, r7
    75f8:	3301      	adds	r3, #1
    75fa:	4313      	orrs	r3, r2
    75fc:	059a      	lsls	r2, r3, #22
    75fe:	0d92      	lsrs	r2, r2, #22
    7600:	9202      	str	r2, [sp, #8]
    7602:	002a      	movs	r2, r5
    7604:	3208      	adds	r2, #8
    7606:	9201      	str	r2, [sp, #4]
    7608:	2200      	movs	r2, #0
    760a:	0030      	movs	r0, r6
    760c:	9200      	str	r2, [sp, #0]
    760e:	4a2c      	ldr	r2, [pc, #176]	; (76c0 <lfs_dir_read+0x134>)
    7610:	f7f9 ff5e 	bl	14d0 <lfs_dir_getslice>
    7614:	2800      	cmp	r0, #0
    7616:	db2b      	blt.n	7670 <lfs_dir_read+0xe4>
    7618:	464b      	mov	r3, r9
    761a:	4a2a      	ldr	r2, [pc, #168]	; (76c4 <lfs_dir_read+0x138>)
    761c:	0d00      	lsrs	r0, r0, #20
    761e:	431a      	orrs	r2, r3
    7620:	2308      	movs	r3, #8
    7622:	7028      	strb	r0, [r5, #0]
    7624:	9300      	str	r3, [sp, #0]
    7626:	0039      	movs	r1, r7
    7628:	ab04      	add	r3, sp, #16
    762a:	0030      	movs	r0, r6
    762c:	f7fa f916 	bl	185c <lfs_dir_getslice.constprop.39>
    7630:	2800      	cmp	r0, #0
    7632:	db1d      	blt.n	7670 <lfs_dir_read+0xe4>
    7634:	4a24      	ldr	r2, [pc, #144]	; (76c8 <lfs_dir_read+0x13c>)
    7636:	0d03      	lsrs	r3, r0, #20
    7638:	4293      	cmp	r3, r2
    763a:	d016      	beq.n	766a <lfs_dir_read+0xde>
    763c:	4a23      	ldr	r2, [pc, #140]	; (76cc <lfs_dir_read+0x140>)
    763e:	4293      	cmp	r3, r2
    7640:	d102      	bne.n	7648 <lfs_dir_read+0xbc>
    7642:	0580      	lsls	r0, r0, #22
    7644:	0d80      	lsrs	r0, r0, #22
    7646:	6068      	str	r0, [r5, #4]
    7648:	2001      	movs	r0, #1
    764a:	88a3      	ldrh	r3, [r4, #4]
    764c:	3301      	adds	r3, #1
    764e:	80a3      	strh	r3, [r4, #4]
    7650:	6aa3      	ldr	r3, [r4, #40]	; 0x28
    7652:	3301      	adds	r3, #1
    7654:	62a3      	str	r3, [r4, #40]	; 0x28
    7656:	b007      	add	sp, #28
    7658:	bc0c      	pop	{r2, r3}
    765a:	4690      	mov	r8, r2
    765c:	4699      	mov	r9, r3
    765e:	bdf0      	pop	{r4, r5, r6, r7, pc}
    7660:	4542      	cmp	r2, r8
    7662:	d00c      	beq.n	767e <lfs_dir_read+0xf2>
    7664:	0293      	lsls	r3, r2, #10
    7666:	4699      	mov	r9, r3
    7668:	e7c3      	b.n	75f2 <lfs_dir_read+0x66>
    766a:	9b05      	ldr	r3, [sp, #20]
    766c:	606b      	str	r3, [r5, #4]
    766e:	e7eb      	b.n	7648 <lfs_dir_read+0xbc>
    7670:	1c83      	adds	r3, r0, #2
    7672:	d1f0      	bne.n	7656 <lfs_dir_read+0xca>
    7674:	88a2      	ldrh	r2, [r4, #4]
    7676:	3201      	adds	r2, #1
    7678:	b292      	uxth	r2, r2
    767a:	80a2      	strh	r2, [r4, #4]
    767c:	e7a0      	b.n	75c0 <lfs_dir_read+0x34>
    767e:	0028      	movs	r0, r5
    7680:	2202      	movs	r2, #2
    7682:	3008      	adds	r0, #8
    7684:	4912      	ldr	r1, [pc, #72]	; (76d0 <lfs_dir_read+0x144>)
    7686:	f7ff fffe 	bl	0 <memcpy>
    768a:	2302      	movs	r3, #2
    768c:	702b      	strb	r3, [r5, #0]
    768e:	e7db      	b.n	7648 <lfs_dir_read+0xbc>
    7690:	0028      	movs	r0, r5
    7692:	2202      	movs	r2, #2
    7694:	3302      	adds	r3, #2
    7696:	490f      	ldr	r1, [pc, #60]	; (76d4 <lfs_dir_read+0x148>)
    7698:	702b      	strb	r3, [r5, #0]
    769a:	3008      	adds	r0, #8
    769c:	f7ff fffe 	bl	0 <memcpy>
    76a0:	6aa3      	ldr	r3, [r4, #40]	; 0x28
    76a2:	2001      	movs	r0, #1
    76a4:	3301      	adds	r3, #1
    76a6:	62a3      	str	r3, [r4, #40]	; 0x28
    76a8:	e7d5      	b.n	7656 <lfs_dir_read+0xca>
    76aa:	2000      	movs	r0, #0
    76ac:	e7d3      	b.n	7656 <lfs_dir_read+0xca>
    76ae:	2302      	movs	r3, #2
    76b0:	0028      	movs	r0, r5
    76b2:	702b      	strb	r3, [r5, #0]
    76b4:	3008      	adds	r0, #8
    76b6:	2203      	movs	r2, #3
    76b8:	4907      	ldr	r1, [pc, #28]	; (76d8 <lfs_dir_read+0x14c>)
    76ba:	e7ef      	b.n	769c <lfs_dir_read+0x110>
    76bc:	000003ff 	.word	0x000003ff
    76c0:	780ffc00 	.word	0x780ffc00
    76c4:	20000008 	.word	0x20000008
    76c8:	00000202 	.word	0x00000202
    76cc:	00000201 	.word	0x00000201
    76d0:	00000078 	.word	0x00000078
    76d4:	00000368 	.word	0x00000368
    76d8:	0000007c 	.word	0x0000007c

000076dc <lfs_dir_seek>:
    76dc:	2308      	movs	r3, #8
    76de:	b5f0      	push	{r4, r5, r6, r7, lr}
    76e0:	464e      	mov	r6, r9
    76e2:	46de      	mov	lr, fp
    76e4:	4657      	mov	r7, sl
    76e6:	4645      	mov	r5, r8
    76e8:	4699      	mov	r9, r3
    76ea:	b5e0      	push	{r5, r6, r7, lr}
    76ec:	4489      	add	r9, r1
    76ee:	000c      	movs	r4, r1
    76f0:	0015      	movs	r5, r2
    76f2:	000a      	movs	r2, r1
    76f4:	2100      	movs	r1, #0
    76f6:	b085      	sub	sp, #20
    76f8:	3b09      	subs	r3, #9
    76fa:	9103      	str	r1, [sp, #12]
    76fc:	9102      	str	r1, [sp, #8]
    76fe:	9101      	str	r1, [sp, #4]
    7700:	322c      	adds	r2, #44	; 0x2c
    7702:	9300      	str	r3, [sp, #0]
    7704:	4649      	mov	r1, r9
    7706:	0007      	movs	r7, r0
    7708:	f7f9 fbae 	bl	e68 <lfs_dir_fetchmatch>
    770c:	1e06      	subs	r6, r0, #0
    770e:	d119      	bne.n	7744 <lfs_dir_seek+0x68>
    7710:	80a0      	strh	r0, [r4, #4]
    7712:	002a      	movs	r2, r5
    7714:	2d02      	cmp	r5, #2
    7716:	d81d      	bhi.n	7754 <lfs_dir_seek+0x78>
    7718:	62a2      	str	r2, [r4, #40]	; 0x28
    771a:	1aad      	subs	r5, r5, r2
    771c:	d012      	beq.n	7744 <lfs_dir_seek+0x68>
    771e:	6ae1      	ldr	r1, [r4, #44]	; 0x2c
    7720:	6a3b      	ldr	r3, [r7, #32]
    7722:	4299      	cmp	r1, r3
    7724:	d01b      	beq.n	775e <lfs_dir_seek+0x82>
    7726:	6b20      	ldr	r0, [r4, #48]	; 0x30
    7728:	4684      	mov	ip, r0
    772a:	6a78      	ldr	r0, [r7, #36]	; 0x24
    772c:	4584      	cmp	ip, r0
    772e:	d016      	beq.n	775e <lfs_dir_seek+0x82>
    7730:	4281      	cmp	r1, r0
    7732:	d014      	beq.n	775e <lfs_dir_seek+0x82>
    7734:	4661      	mov	r1, ip
    7736:	1a5b      	subs	r3, r3, r1
    7738:	4259      	negs	r1, r3
    773a:	414b      	adcs	r3, r1
    773c:	b29b      	uxth	r3, r3
    773e:	e00f      	b.n	7760 <lfs_dir_seek+0x84>
    7740:	2616      	movs	r6, #22
    7742:	4276      	negs	r6, r6
    7744:	0030      	movs	r0, r6
    7746:	b005      	add	sp, #20
    7748:	bc3c      	pop	{r2, r3, r4, r5}
    774a:	4690      	mov	r8, r2
    774c:	4699      	mov	r9, r3
    774e:	46a2      	mov	sl, r4
    7750:	46ab      	mov	fp, r5
    7752:	bdf0      	pop	{r4, r5, r6, r7, pc}
    7754:	2202      	movs	r2, #2
    7756:	62a2      	str	r2, [r4, #40]	; 0x28
    7758:	1aad      	subs	r5, r5, r2
    775a:	d0f3      	beq.n	7744 <lfs_dir_seek+0x68>
    775c:	e7df      	b.n	771e <lfs_dir_seek+0x42>
    775e:	2301      	movs	r3, #1
    7760:	2101      	movs	r1, #1
    7762:	4249      	negs	r1, r1
    7764:	468b      	mov	fp, r1
    7766:	3121      	adds	r1, #33	; 0x21
    7768:	468a      	mov	sl, r1
    776a:	2100      	movs	r1, #0
    776c:	44a2      	add	sl, r4
    776e:	4688      	mov	r8, r1
    7770:	e002      	b.n	7778 <lfs_dir_seek+0x9c>
    7772:	2d00      	cmp	r5, #0
    7774:	d0e6      	beq.n	7744 <lfs_dir_seek+0x68>
    7776:	6aa2      	ldr	r2, [r4, #40]	; 0x28
    7778:	8ba0      	ldrh	r0, [r4, #28]
    777a:	1ac1      	subs	r1, r0, r3
    777c:	42a9      	cmp	r1, r5
    777e:	d900      	bls.n	7782 <lfs_dir_seek+0xa6>
    7780:	0029      	movs	r1, r5
    7782:	185b      	adds	r3, r3, r1
    7784:	b29b      	uxth	r3, r3
    7786:	188a      	adds	r2, r1, r2
    7788:	80a3      	strh	r3, [r4, #4]
    778a:	62a2      	str	r2, [r4, #40]	; 0x28
    778c:	1a6d      	subs	r5, r5, r1
    778e:	4298      	cmp	r0, r3
    7790:	d1ef      	bne.n	7772 <lfs_dir_seek+0x96>
    7792:	7fe3      	ldrb	r3, [r4, #31]
    7794:	2b00      	cmp	r3, #0
    7796:	d0d3      	beq.n	7740 <lfs_dir_seek+0x64>
    7798:	4643      	mov	r3, r8
    779a:	9303      	str	r3, [sp, #12]
    779c:	9302      	str	r3, [sp, #8]
    779e:	9301      	str	r3, [sp, #4]
    77a0:	465b      	mov	r3, fp
    77a2:	9300      	str	r3, [sp, #0]
    77a4:	2301      	movs	r3, #1
    77a6:	4652      	mov	r2, sl
    77a8:	425b      	negs	r3, r3
    77aa:	4649      	mov	r1, r9
    77ac:	0038      	movs	r0, r7
    77ae:	f7f9 fb5b 	bl	e68 <lfs_dir_fetchmatch>
    77b2:	2800      	cmp	r0, #0
    77b4:	d102      	bne.n	77bc <lfs_dir_seek+0xe0>
    77b6:	80a0      	strh	r0, [r4, #4]
    77b8:	2300      	movs	r3, #0
    77ba:	e7da      	b.n	7772 <lfs_dir_seek+0x96>
    77bc:	0006      	movs	r6, r0
    77be:	e7c1      	b.n	7744 <lfs_dir_seek+0x68>

000077c0 <lfs_dir_tell>:
    77c0:	6a88      	ldr	r0, [r1, #40]	; 0x28
    77c2:	4770      	bx	lr

000077c4 <lfs_dir_rewind>:
    77c4:	2301      	movs	r3, #1
    77c6:	b530      	push	{r4, r5, lr}
    77c8:	000a      	movs	r2, r1
    77ca:	2500      	movs	r5, #0
    77cc:	b085      	sub	sp, #20
    77ce:	425b      	negs	r3, r3
    77d0:	000c      	movs	r4, r1
    77d2:	322c      	adds	r2, #44	; 0x2c
    77d4:	3108      	adds	r1, #8
    77d6:	9503      	str	r5, [sp, #12]
    77d8:	9502      	str	r5, [sp, #8]
    77da:	9501      	str	r5, [sp, #4]
    77dc:	9300      	str	r3, [sp, #0]
    77de:	f7f9 fb43 	bl	e68 <lfs_dir_fetchmatch>
    77e2:	2800      	cmp	r0, #0
    77e4:	d101      	bne.n	77ea <lfs_dir_rewind+0x26>
    77e6:	80a0      	strh	r0, [r4, #4]
    77e8:	62a0      	str	r0, [r4, #40]	; 0x28
    77ea:	b005      	add	sp, #20
    77ec:	bd30      	pop	{r4, r5, pc}
    77ee:	46c0      	nop			; (mov r8, r8)

000077f0 <lfs_fs_size>:
    77f0:	2300      	movs	r3, #0
    77f2:	b500      	push	{lr}
    77f4:	b083      	sub	sp, #12
    77f6:	a901      	add	r1, sp, #4
    77f8:	9301      	str	r3, [sp, #4]
    77fa:	f7fa f90d 	bl	1a18 <lfs_fs_rawtraverse.constprop.37>
    77fe:	2800      	cmp	r0, #0
    7800:	d100      	bne.n	7804 <lfs_fs_size+0x14>
    7802:	9801      	ldr	r0, [sp, #4]
    7804:	b003      	add	sp, #12
    7806:	bd00      	pop	{pc}

00007808 <lfs_fs_traverse>:
    7808:	b5f0      	push	{r4, r5, r6, r7, lr}
    780a:	46de      	mov	lr, fp
    780c:	4657      	mov	r7, sl
    780e:	464e      	mov	r6, r9
    7810:	4645      	mov	r5, r8
    7812:	b5e0      	push	{r5, r6, r7, lr}
    7814:	b091      	sub	sp, #68	; 0x44
    7816:	0005      	movs	r5, r0
    7818:	000e      	movs	r6, r1
    781a:	0017      	movs	r7, r2
    781c:	2100      	movs	r1, #0
    781e:	221c      	movs	r2, #28
    7820:	a808      	add	r0, sp, #32
    7822:	f7ff fffe 	bl	0 <memset>
    7826:	2301      	movs	r3, #1
    7828:	930f      	str	r3, [sp, #60]	; 0x3c
    782a:	6eab      	ldr	r3, [r5, #104]	; 0x68
    782c:	6a1b      	ldr	r3, [r3, #32]
    782e:	085b      	lsrs	r3, r3, #1
    7830:	d050      	beq.n	78d4 <lfs_fs_traverse+0xcc>
    7832:	2300      	movs	r3, #0
    7834:	9305      	str	r3, [sp, #20]
    7836:	3b01      	subs	r3, #1
    7838:	4699      	mov	r9, r3
    783a:	4b5b      	ldr	r3, [pc, #364]	; (79a8 <lfs_fs_traverse+0x1a0>)
    783c:	2100      	movs	r1, #0
    783e:	4698      	mov	r8, r3
    7840:	0038      	movs	r0, r7
    7842:	47b0      	blx	r6
    7844:	2800      	cmp	r0, #0
    7846:	d147      	bne.n	78d8 <lfs_fs_traverse+0xd0>
    7848:	9b0f      	ldr	r3, [sp, #60]	; 0x3c
    784a:	0038      	movs	r0, r7
    784c:	0019      	movs	r1, r3
    784e:	9304      	str	r3, [sp, #16]
    7850:	47b0      	blx	r6
    7852:	2800      	cmp	r0, #0
    7854:	d140      	bne.n	78d8 <lfs_fs_traverse+0xd0>
    7856:	464b      	mov	r3, r9
    7858:	9300      	str	r3, [sp, #0]
    785a:	2301      	movs	r3, #1
    785c:	9003      	str	r0, [sp, #12]
    785e:	9002      	str	r0, [sp, #8]
    7860:	9001      	str	r0, [sp, #4]
    7862:	425b      	negs	r3, r3
    7864:	aa0e      	add	r2, sp, #56	; 0x38
    7866:	a908      	add	r1, sp, #32
    7868:	0028      	movs	r0, r5
    786a:	f7f9 fafd 	bl	e68 <lfs_dir_fetchmatch>
    786e:	2800      	cmp	r0, #0
    7870:	d132      	bne.n	78d8 <lfs_fs_traverse+0xd0>
    7872:	ab02      	add	r3, sp, #8
    7874:	8d9b      	ldrh	r3, [r3, #44]	; 0x2c
    7876:	2400      	movs	r4, #0
    7878:	2b00      	cmp	r3, #0
    787a:	d01c      	beq.n	78b6 <lfs_fs_traverse+0xae>
    787c:	4b4b      	ldr	r3, [pc, #300]	; (79ac <lfs_fs_traverse+0x1a4>)
    787e:	469b      	mov	fp, r3
    7880:	2308      	movs	r3, #8
    7882:	469a      	mov	sl, r3
    7884:	465b      	mov	r3, fp
    7886:	02a2      	lsls	r2, r4, #10
    7888:	431a      	orrs	r2, r3
    788a:	4653      	mov	r3, sl
    788c:	a908      	add	r1, sp, #32
    788e:	9300      	str	r3, [sp, #0]
    7890:	0028      	movs	r0, r5
    7892:	ab06      	add	r3, sp, #24
    7894:	f7f9 ffe2 	bl	185c <lfs_dir_getslice.constprop.39>
    7898:	2800      	cmp	r0, #0
    789a:	db24      	blt.n	78e6 <lfs_fs_traverse+0xde>
    789c:	0d00      	lsrs	r0, r0, #20
    789e:	4540      	cmp	r0, r8
    78a0:	d024      	beq.n	78ec <lfs_fs_traverse+0xe4>
    78a2:	2380      	movs	r3, #128	; 0x80
    78a4:	009b      	lsls	r3, r3, #2
    78a6:	4298      	cmp	r0, r3
    78a8:	d031      	beq.n	790e <lfs_fs_traverse+0x106>
    78aa:	ab02      	add	r3, sp, #8
    78ac:	3401      	adds	r4, #1
    78ae:	8d9b      	ldrh	r3, [r3, #44]	; 0x2c
    78b0:	b2a4      	uxth	r4, r4
    78b2:	42a3      	cmp	r3, r4
    78b4:	d8e6      	bhi.n	7884 <lfs_fs_traverse+0x7c>
    78b6:	9b05      	ldr	r3, [sp, #20]
    78b8:	990e      	ldr	r1, [sp, #56]	; 0x38
    78ba:	3301      	adds	r3, #1
    78bc:	9305      	str	r3, [sp, #20]
    78be:	1c4b      	adds	r3, r1, #1
    78c0:	d030      	beq.n	7924 <lfs_fs_traverse+0x11c>
    78c2:	9b0f      	ldr	r3, [sp, #60]	; 0x3c
    78c4:	3301      	adds	r3, #1
    78c6:	d02d      	beq.n	7924 <lfs_fs_traverse+0x11c>
    78c8:	6eab      	ldr	r3, [r5, #104]	; 0x68
    78ca:	9a05      	ldr	r2, [sp, #20]
    78cc:	6a1b      	ldr	r3, [r3, #32]
    78ce:	085b      	lsrs	r3, r3, #1
    78d0:	4293      	cmp	r3, r2
    78d2:	d8b5      	bhi.n	7840 <lfs_fs_traverse+0x38>
    78d4:	2054      	movs	r0, #84	; 0x54
    78d6:	4240      	negs	r0, r0
    78d8:	b011      	add	sp, #68	; 0x44
    78da:	bc3c      	pop	{r2, r3, r4, r5}
    78dc:	4690      	mov	r8, r2
    78de:	4699      	mov	r9, r3
    78e0:	46a2      	mov	sl, r4
    78e2:	46ab      	mov	fp, r5
    78e4:	bdf0      	pop	{r4, r5, r6, r7, pc}
    78e6:	1c83      	adds	r3, r0, #2
    78e8:	d1f6      	bne.n	78d8 <lfs_fs_traverse+0xd0>
    78ea:	e7de      	b.n	78aa <lfs_fs_traverse+0xa2>
    78ec:	9b07      	ldr	r3, [sp, #28]
    78ee:	2b00      	cmp	r3, #0
    78f0:	d0db      	beq.n	78aa <lfs_fs_traverse+0xa2>
    78f2:	9a06      	ldr	r2, [sp, #24]
    78f4:	9300      	str	r3, [sp, #0]
    78f6:	9204      	str	r2, [sp, #16]
    78f8:	0013      	movs	r3, r2
    78fa:	9702      	str	r7, [sp, #8]
    78fc:	9601      	str	r6, [sp, #4]
    78fe:	002a      	movs	r2, r5
    7900:	2100      	movs	r1, #0
    7902:	0028      	movs	r0, r5
    7904:	f7f8 fd06 	bl	314 <lfs_ctz_traverse.part.23>
    7908:	2800      	cmp	r0, #0
    790a:	d0ce      	beq.n	78aa <lfs_fs_traverse+0xa2>
    790c:	e7e4      	b.n	78d8 <lfs_fs_traverse+0xd0>
    790e:	9906      	ldr	r1, [sp, #24]
    7910:	0038      	movs	r0, r7
    7912:	47b0      	blx	r6
    7914:	2800      	cmp	r0, #0
    7916:	d1df      	bne.n	78d8 <lfs_fs_traverse+0xd0>
    7918:	9907      	ldr	r1, [sp, #28]
    791a:	0038      	movs	r0, r7
    791c:	47b0      	blx	r6
    791e:	2800      	cmp	r0, #0
    7920:	d0c3      	beq.n	78aa <lfs_fs_traverse+0xa2>
    7922:	e7d9      	b.n	78d8 <lfs_fs_traverse+0xd0>
    7924:	6aac      	ldr	r4, [r5, #40]	; 0x28
    7926:	2c00      	cmp	r4, #0
    7928:	d03b      	beq.n	79a2 <lfs_fs_traverse+0x19a>
    792a:	2388      	movs	r3, #136	; 0x88
    792c:	035b      	lsls	r3, r3, #13
    792e:	4699      	mov	r9, r3
    7930:	2380      	movs	r3, #128	; 0x80
    7932:	025b      	lsls	r3, r3, #9
    7934:	4698      	mov	r8, r3
    7936:	2390      	movs	r3, #144	; 0x90
    7938:	035b      	lsls	r3, r3, #13
    793a:	469a      	mov	sl, r3
    793c:	e008      	b.n	7950 <lfs_fs_traverse+0x148>
    793e:	4652      	mov	r2, sl
    7940:	4013      	ands	r3, r2
    7942:	2280      	movs	r2, #128	; 0x80
    7944:	0292      	lsls	r2, r2, #10
    7946:	4293      	cmp	r3, r2
    7948:	d01b      	beq.n	7982 <lfs_fs_traverse+0x17a>
    794a:	6824      	ldr	r4, [r4, #0]
    794c:	2c00      	cmp	r4, #0
    794e:	d028      	beq.n	79a2 <lfs_fs_traverse+0x19a>
    7950:	79a3      	ldrb	r3, [r4, #6]
    7952:	2b01      	cmp	r3, #1
    7954:	d1f9      	bne.n	794a <lfs_fs_traverse+0x142>
    7956:	464a      	mov	r2, r9
    7958:	6b23      	ldr	r3, [r4, #48]	; 0x30
    795a:	401a      	ands	r2, r3
    795c:	4542      	cmp	r2, r8
    795e:	d1ee      	bne.n	793e <lfs_fs_traverse+0x136>
    7960:	6ae2      	ldr	r2, [r4, #44]	; 0x2c
    7962:	2a00      	cmp	r2, #0
    7964:	d0eb      	beq.n	793e <lfs_fs_traverse+0x136>
    7966:	0021      	movs	r1, r4
    7968:	6aa3      	ldr	r3, [r4, #40]	; 0x28
    796a:	3140      	adds	r1, #64	; 0x40
    796c:	9200      	str	r2, [sp, #0]
    796e:	9702      	str	r7, [sp, #8]
    7970:	9601      	str	r6, [sp, #4]
    7972:	002a      	movs	r2, r5
    7974:	0028      	movs	r0, r5
    7976:	f7f8 fccd 	bl	314 <lfs_ctz_traverse.part.23>
    797a:	2800      	cmp	r0, #0
    797c:	d1ac      	bne.n	78d8 <lfs_fs_traverse+0xd0>
    797e:	6b23      	ldr	r3, [r4, #48]	; 0x30
    7980:	e7dd      	b.n	793e <lfs_fs_traverse+0x136>
    7982:	6b62      	ldr	r2, [r4, #52]	; 0x34
    7984:	2a00      	cmp	r2, #0
    7986:	d0e0      	beq.n	794a <lfs_fs_traverse+0x142>
    7988:	0021      	movs	r1, r4
    798a:	6ba3      	ldr	r3, [r4, #56]	; 0x38
    798c:	3140      	adds	r1, #64	; 0x40
    798e:	9200      	str	r2, [sp, #0]
    7990:	9702      	str	r7, [sp, #8]
    7992:	9601      	str	r6, [sp, #4]
    7994:	002a      	movs	r2, r5
    7996:	0028      	movs	r0, r5
    7998:	f7f8 fcbc 	bl	314 <lfs_ctz_traverse.part.23>
    799c:	2800      	cmp	r0, #0
    799e:	d0d4      	beq.n	794a <lfs_fs_traverse+0x142>
    79a0:	e79a      	b.n	78d8 <lfs_fs_traverse+0xd0>
    79a2:	2000      	movs	r0, #0
    79a4:	e798      	b.n	78d8 <lfs_fs_traverse+0xd0>
    79a6:	46c0      	nop			; (mov r8, r8)
    79a8:	00000202 	.word	0x00000202
    79ac:	20000008 	.word	0x20000008
